(lp1
(dp2
S'NOMBRE'
p3
VBook Diagram
p4
sS'BASE'
p5
VBook Diagram#Mongolian Baiti#N#125#100#2#100#100
p6
sS'TEXTO'
p7
S'4283413924#4294967295#4294967295#KGlDb2RlLlFULlRhYlRpcG9zCkZsZWNoYQpwMQooZHAyClMnb3BhY2lkYWQnCnAzCkYxCnNTJ2Zv|cm1hJwpwNApTJzEnCnNTJ2NvbG9yaW50ZXJpb3IyJwpwNQpJLTEKc1MnYW5jaG9DYXNpbGxhJwpw|NgpJMzYKc1MndGlwbycKcDcKSTEKc1MnYW5jaG8nCnA4CkkyCnNTJ2NvbG9yJwpwOQpMNDI3ODE5|MDA4MEwKc1MnZGVzY3VlbGd1ZScKcDEwCkk1CnNTJ2ExaDgnCnAxMQpTJ2QyZDYnCnAxMgpzUyd2|dWVsbycKcDEzCkk1CnNTJ3Bvc2ljaW9uJwpwMTQKKGlDb2RlLlFULlRhYlRpcG9zClBvc2ljaW9u|CnAxNQooZHAxNgpTJ2FsdG8nCnAxNwpJMTYKc1Mnb3JkZW4nCnAxOApJOQpzZzgKSTEyOApzUydh|bmd1bG8nCnAxOQpJMApzUyd5JwpJMTYKc1MneCcKSTAKc2JzUydkZXN0aW5vJwpwMjAKUydtJwpz|UydyZWRvbmRlb3MnCnAyMQpJMDEKc1MnYWx0b2NhYmV6YScKcDIyCkkxNQpzUydjb2xvcmludGVy|aW9yJwpwMjMKTDQyOTQ5NTkxMjlMCnNTJ2xpVmFycycKcDI0CihscDI1CihTJ3Bvc2ljaW9uJwpT|J28nCnRwMjYKYShTJ2ExaDgnClMnYycKdHAyNwphKFMnZ3Jvc29yJwpTJ24nCnRwMjgKYShTJ2Fs|dG9jYWJlemEnClMnbicKdHAyOQphKFMndGlwbycKUyduJwp0cDMwCmEoUydkZXN0aW5vJwpTJ3Qn|CnRwMzEKYShTJ2FuY2hvQ2FzaWxsYScKUyduJwp0cDMyCmEoUydjb2xvcicKUyduJwp0cDMzCmEo|Uydjb2xvcmludGVyaW9yJwpTJ24nCnRwMzQKYShTJ2NvbG9yaW50ZXJpb3IyJwpTJ24nCnRwMzUK|YShTJ29wYWNpZGFkJwpTJ24nCnRwMzYKYShTJ3JlZG9uZGVvcycKUydsJwp0cDM3CmEoUydmb3Jt|YScKUyd0Jwp0cDM4CmEoUydhbmNobycKUyduJwp0cDM5CmEoUyd2dWVsbycKUyduJwp0cDQwCmEo|UydkZXNjdWVsZ3VlJwpTJ24nCnRwNDEKYXNTJ3NpTW92aWJsZScKcDQyCkkwMQpzUydncm9zb3In|CnA0MwpJMQpzUydwbmcnCnA0NApTJ1x4ODlQTkdcclxuXHgxYVxuXHgwMFx4MDBceDAwXHJJSERS|XHgwMFx4MDBceDAwIFx4MDBceDAwXHgwMCBceDA4XHgwNlx4MDBceDAwXHgwMHN6elx4ZjRceDAw|XHgwMFx4MDBceDA0c0JJVFx4MDhceDA4XHgwOFx4MDh8XHgwOGRceDg4XHgwMFx4MDBceDAwXHRw|SFlzXHgwMFx4MDBceDBlXHhjNFx4MDBceDAwXHgwZVx4YzRceDAxXHg5NStceDBlXHgxYlx4MDBc|eDAwXHgwMFx4YjNJREFUWFx4ODVceGVkXHhjZTFceDBlXHg4MkBceDE0XHg4NFx4ZTF5XHgwM1x4|MGJEY1x4YTJceGM0XHhiMFk4XHg4OVx4YTFceGYxLFx4ODBceDFjXHhjMVx4ODN5XHgxMzhceDA2|XHg5NVJceDk4KFx4ODlaXHg5OVx4ZThceDA1dlx4YjdceGQ4XHhiZlx4OWJqPiBceGU0U3FceDhj|Q1x4YTVceGEzXHhhM1x4Y2RPXHhmZVx4OGUiXHg4ZlZceDhmXHhlN1x4ZmJSXHgxOVx4ZjY2XHgx|MVx4N2ZVXHg4Nlx4ZmR+XHhjNzkgXHgwMlx4YzJLXHg4NClceGQ4XHhiOURceDljXHgwMiIgXHhi|Y0NceDk4XHg4Ml1ceGJlXHhlNWw0W3dceDA4XHhjZDYgXHgwMlx4YzJbRFx4YTlceGQ5OENceDk0|XHg5YVx4OGRXXHgwOFx4MTFMXHgwMFx4MTJnXHgwOFx4MDBjXHg5Nlx4Y2FgXHgxZCBceDgySVx4|MDRceGUzZi13XHgxMlx4MGJceDgwXHhkYVx4YjYhXHhjOVJceDE5KFhceDAwXHhiY1x4MTIlV1x4|ZGJceDgwb1x4YjVSclNceGIxTFx4MDBceGNlXHhhZVx4MTBwfVx4ZWVfXHgxZlx4OGJceGZhQlx0|a1x4MDdceDE5XHhjMlx4MDBceDAwXHgwMFx4MDBJRU5EXHhhZUJgXHg4MicKcDQ1CnNiLg==|#4278190080#4278190080#False#KGlDb2RlLlFULlRhYlRpcG9zCkZsZWNoYQpwMQooZHAyClMnb3BhY2lkYWQnCnAzCkYxCnNTJ2Zv|cm1hJwpwNApTJ2EnCnNTJ2NvbG9yaW50ZXJpb3IyJwpwNQpJLTEKc1MnYW5jaG9DYXNpbGxhJwpw|NgpJMzYKc1MnYTFoOCcKcDcKUydkMmQ2JwpwOApzUydhbmNobycKcDkKSTIKc1MnY29sb3InCnAx|MApMNDI5NDk1OTEyOUwKc1MnZGVzY3VlbGd1ZScKcDExCkk1CnNTJ3Z1ZWxvJwpwMTIKSTUKc1Mn|cG9zaWNpb24nCnAxMwooaUNvZGUuUVQuVGFiVGlwb3MKUG9zaWNpb24KcDE0CihkcDE1ClMnYWx0|bycKcDE2CkkxNgpzUydvcmRlbicKcDE3Ckk5CnNnOQpJMTI4CnNTJ2FuZ3VsbycKcDE4CkkwCnNT|J3knCkkxNgpzUyd4JwpJMApzYnNTJ2Rlc3Rpbm8nCnAxOQpTJ20nCnNTJ3JlZG9uZGVvcycKcDIw|CkkwMQpzUydhbHRvY2FiZXphJwpwMjEKSTE1CnNTJ2NvbG9yaW50ZXJpb3InCnAyMgpJLTEKc1Mn|bGlWYXJzJwpwMjMKKGxwMjQKKFMncG9zaWNpb24nClMnbycKdHAyNQphKFMnYTFoOCcKUydjJwp0|cDI2CmEoUydncm9zb3InClMnbicKdHAyNwphKFMnYWx0b2NhYmV6YScKUyduJwp0cDI4CmEoUyd0|aXBvJwpTJ24nCnRwMjkKYShTJ2Rlc3Rpbm8nClMndCcKdHAzMAphKFMnYW5jaG9DYXNpbGxhJwpT|J24nCnRwMzEKYShTJ2NvbG9yJwpTJ24nCnRwMzIKYShTJ2NvbG9yaW50ZXJpb3InClMnbicKdHAz|MwphKFMnY29sb3JpbnRlcmlvcjInClMnbicKdHAzNAphKFMnb3BhY2lkYWQnClMnbicKdHAzNQph|KFMncmVkb25kZW9zJwpTJ2wnCnRwMzYKYShTJ2Zvcm1hJwpTJ3QnCnRwMzcKYShTJ2FuY2hvJwpT|J24nCnRwMzgKYShTJ3Z1ZWxvJwpTJ24nCnRwMzkKYShTJ2Rlc2N1ZWxndWUnClMnbicKdHA0MAph|c1Mnc2lNb3ZpYmxlJwpwNDEKSTAxCnNTJ2dyb3NvcicKcDQyCkk1CnNTJ3BuZycKcDQzClMnXHg4|OVBOR1xyXG5ceDFhXG5ceDAwXHgwMFx4MDBccklIRFJceDAwXHgwMFx4MDAgXHgwMFx4MDBceDAw|IFx4MDhceDA2XHgwMFx4MDBceDAwc3p6XHhmNFx4MDBceDAwXHgwMFx4MDRzQklUXHgwOFx4MDhc|eDA4XHgwOHxceDA4ZFx4ODhceDAwXHgwMFx4MDBcdHBIWXNceDAwXHgwMFx4MGVceGM0XHgwMFx4|MDBceDBlXHhjNFx4MDFceDk1K1x4MGVceDFiXHgwMFx4MDBceDAxXHhiOElEQVRYXHg4NVx4YzVc|eGQ3XHhjZE5ceGQ0UFx4MThceGM2XHhmMVx4ZmZ7XHg5OFx4YjhkXHhjMWJ0akVceDg0XHgwNC5c|eGMwIHFDXHgwMlx4ODkuXHhiY1x4MDQuQDZsXHhiOVx0d1x4YWVceDhjW1x4MTZceGRjXHgwNCZs|XHg4ZEZceGQ5XHhiMCExXHhhNFx4OGNjXHg4YnBceDAxXHg4NFx4YTRceGVkXHhjM2JceDE0Jlx4|OTRceDBlLVx4ZTFceDFjXHhkZVVceGNmR1x4ZGVceGU3XHhkN1x4ZDNceGE2SVx4ZTFceDgxXHhj|Ylx4ZmVfXHhlOFx4ZDdceGUzLlx4MTNuXHJceDg3OFx4ZDdceGI2XHhjZFx4MWZceDlmXHgwNlx4|MDNceDBjXHhjM21ceDBmXHhiM2hceGE4UVx4OGFceGRjXHhhYVx4Y2RceGE2XHgwN1x4YmVceDAx|XHgwZVx4ODBcdFx4Yjd2XHgxOVx4MGVgXHgxNmFceGRhXHhkNWFceGI0XHgxMFx4MDZceGUwUGVc|eGM1XHhlOFx4ODVAXHgwY1x4MDFceGU3XHhkYUZKXHgxZlx4MDJceGUxXHgwMGxceGZlXHhmOFx4|MTRceGI5VURceDE2XHgxYWFceGEzXHgwM1x4MWRGXHgwYlx4OTh2MXpceDk1XHg5ZCJDXHhiNnJc|eGRmL1x4YTZdXHg5Zlx4MDhceDhkXHhhOFx4MDBCI25ceDA0XHg4NERceGQ0XHgwMkIhXHhjNlx4|MDJCIG5ceDA1XHhmOEY0XHgwMlx4ZjhENFx4MDZceGY4Qlx4YjRceDAyNEJ0XHhkYyt7XHhmNmdc|eGQwXHhiNFx4OWZrXHgwYlx4YjBceGQ5XHhmNFx4MDBceGQ5Slx4ZWRnOy82XHhkYVx4ZjRrXHJc|eGI4XHgxZGFceDkzXHhkZVx4MDFceGI1XHgwOFFceGEwYlx4YWJVXHg5Zlx4YmJceDAyLjNceDdm|P1x4OGRceGM5XHg4YlxyXHhjYyZRXHhiMWUvTlx4YmVceDA2XHgwNTQpXHhmNVx4ZTMpXHhjOFx4|ZTdceGEwXHhiM29ceGQzXHg4M1x4YjNceGQxXHhiNTs/XHg4Mlx4YzZceGUxSVx4YjRJXHg5OWdc|eDk0XHhmNlx4OGRceGIySHRceGQ0e1x4MTlceDBjXHhhMFx4YTNceGY4M1x4ZThceDAzXHhkOFx4|YTNceDdmU11KPklXXCdceGVmXHJceGEwJFx4ZGFEXHhjNVx4ZmJceGNhXHg4Mlx4YjFIXHhkMl1c|eGJhXHgxYVx4ZmFceDA4XHhlZlx4YzdTXHg5NHk2clx4ZTdceGQ3XHhhYVx4ZGNceGIxXHg5OVx4|YmZvXHhjMVx4ZGJcdFx4ZTRzXHhmNVx4ZTFceDAwXHhlZVx4OGRceGZhXHhmMVx4YjJHQGdceDFm|OFx4MTlceGJiXHhhNSw+elx4MDNceGQ4XHhmNFx4ZTBceDBjXHhlM1x4MWRceGUye1x4ZmQuXHhj|OVx4MWJceDAwXHhjMFx4OWVnP1x4OThceGM5XHg5NlBceGYxXHgxYVx4ZTlLXHhlNVx4ZDdceGM3|dVx4ZDZ9ZVx4ZGZYXHhlYVx4YzdceGNiSnp7Slx4OWVceGZjVFx4MWEvXHgwNlxyXHgxZldceDE3|USFceGVlXHhmZFx4ZjlceGVhXHhjOEFceDAwXHgwMFx4MDBceDAwSUVORFx4YWVCYFx4ODInCnA0|NApzUyd0aXBvJwpwNDUKSTIKc2Iu|##iVBORw0KGgoAAAANSUhEUgAAAIgAAACGCAYAAAAGsMIiAAAACXBIWXMAAAsTAAALEwEAmpwYAAAABGdBTUEAALGOfPtRkwAAACBjSFJNAAB6JQAAgIMAAPn/AACA6QAAdTAAAOpgAAA6mAAAF2+SX8VGAABSz0lEQVR42uS9Z3CUZ5Y2/HTOuVsttXLOEkqgLISEhAJKSCAEAoTIYDKYIDDBZAPGgEkmGTCYDCaabCyywIgotmq2tsozVTsbZna3dn54dt/r+7P3mW6kfu7et+r99VH11FSN+9GTzn3uc67rOudIAAj/f/33/v17xMXFScR+093djZSUFMn/9m8fOHAAer1eiI6OFtLS0nw6v6urC//93/8t9O/fX/L/8rk/fPiAmJgYn64hcTeQ+/fvo6CgoM8TOzs7cejQIeGf//mfhZSUFCErK0uorq7u87fHjx/Hq1evhJ6eHsHpdApRUVHCoEGDhH79+vX5+7dv36Kzs1P43e9+J/z222+CWq0WTCaTsHDhwj5/f/PmTVy4cEH405/+JISEhAhGo1EICQkRWlpavD70Tz/9hGvXrgk3btwQfv/73wsGg0GIiooScnNzhaVLl/Y678qVK7hw4YLQ2dkphIaGClFRUcLvfvc7ISIiQmhra+vzWdauXYt3794J//iP/yj88ssvgslkEgRBEGpra4Uvvviiz3vbsmULLly4IPz7v/+78Ic//EH4t3/7N6GlpUU4cOCAxJsRnTx5Uvj111+F3377Tfj9738v1NbWCp9++qnoB+/s7MTly5eF27dvCxKJRIiPjxfy8vKE9vZ2cUMBIAAQJk6ciLS0NPz8889g/x879uzZg/j4eEilUkgkEkgkEsTGxvb6HQBh06ZNiIuLg0KhgCAIUCgUCAkJwbZt2/r8/aVLl1BRUQGr1QqdTgeVSgWdTofw8HB0dnb2OufOnTvIzc2FIAgQBAF2ux0ymQx5eXl49epVr98/ePAAixcvRnx8PNRqNQRBgEQiQUBAAPz9/bFnz55e5yxZsgQxMTFQqVR0HblcDkEQUFFRga6uLnx8jUmTJsFsNtPfZ+cJgoCxY8f2+ezjx49HcHAwJBIJ/Pz8oNPpIAgChg8fjp6enj7PWb9+PYKCgiAIAmQyGQRBQGNjY5+/ZcebN28wbtw4qFQqyOVymEwmCIKArKws0fMA/M1ARowYgZkzZ/Y6Yfny5XRDer0egiBApVJhxIgRvX67YsUK2O12CIIAi8UCo9EIQRCQnp6O69ev9/r98ePHUVRURB+A3bjNZsO0adP6vPlRo0ZBEATodDqEhobSR5gzZ06fvz9w4ACio6Ppd1qtFnK5HEajEbNmzep1zt69e6FQKOjlOxwOGAwGCIKA3NxcXLx4ER+//PHjx9PfdzgcsFgsMBgMMBgMmDBhAh49etTrOosXL4Zer6d3yt7r6NGj+1ykAIRjx44hOTmZriOXy5Gbm4sDBw54/dDPnz9HY2MjZDIZtFotXSspKQkbN27s87w7d+6gl4H0dXz66af0R9nHs1gsmDdvXq8/3NHRAYvFQh+BveDc3FxcuHCh1++3b9+OgIAAGI1GyGQyyGQyqFQqhIeH47PPPuvzxlevXg2bzQZBEGA2m+nDjR49utfv7927h6lTpyI3NxcWiwV6vZ48iMvlQmNjI96/f+9x3pMnT5CTkwOpVErXYUd0dDSOHDnS6zrr1q2j3zocDvq91WpFc3Nznwvjzp07cLlc0Gg0UCqVUCgUiI+Px+rVq71+6JcvX6K2tpb+vlKphL+/P7766iuv57x79w7Tp08nT2g2m+Hv74/m5mbcvXu3z/Pevn2LhoYGbNiwAaIGMnPmTPj5+UGpVEKj0UAQBAQFBWH//v29/vA333wDl8sFQRBgNBrJmAoLC3H+/Plevz948CB9XGaASqUSFRUVfX4Edo3o6GhIpVJyxYIgoLi4GPfv3/c459WrVygvL4dCoYBKpYLFYqHruFwufP75531eo7q6GoIg0L0ZDAbIZDIkJydj165dvc7ZvXs3IiIi6OUzbxAaGor58+f3eY3vv/8eY8aMgVQq9dgmV65cKeruly5dirCwMEgkElitViQkJOC7777zes6tW7dQUFAAPz8/aLVaSCQSOBwOr16DHZs3b0ZQUBA+/fTTvg2kp6cHY8eOJbevUqmg1+uRmZmJ48eP9/rjFy5cQHp6OiQSCZxOJz10U1MT3F2V+0sNCgqCQqGgl+Tn54dp06bh+fPnfd78lStXUFRU5BHXGAwGjB07tk/3vWrVKpjNZoqZ2D0FBQVh/fr1fV5j3rx5sNlsMJvNUKlU5G1KS0tx9epVr9sdMzy2ShMTE/t8TwCEr7/+GlFRUVCr1XA4HFAqlUhPT8eWLVu8frQbN26grKyMPLJMJkNRURHOnTsn6m3Ky8vpGRQKBSoqKnDy5Emv59y/fx/t7e0IDAyETCajmLGXSxo6dCisVivkcjk0Gg10Oh3a2trw8uXLXn98//79SEtLg0ajgUajgVarhdFoxNChQ/u8kZ9++gkVFRVQKpWQyWS0UseMGYMXL170ec758+cxaNAgyOVySKVSSKVSpKSkYO3atX3+/ujRo4iPj/dwxYIgICwszGugvH37dvj5+ZFHMxgMUKvVmDlzJh4+fNjrnO7ubowbN44Mg8Va0dHROHz4cJ/X+Oqrr+Dv7w+lUkmeaerUqbh586bXj7Z//35ERERAqVSSVy4qKsKzZ89EvcCYMWPoOZRKJcaOHes16GWxYEZGBhm5XC5HR0dHbwOpqamBw+Ega1WpVFi6dCn62qc2bdqEwMBA+gAKhQJarRZTp06FN6tuaWkhq2bHiBEj+sxWWFCWnp4OQRCg0Whgs9mQn5+Pb7/9ts/ff/jwAY2NjfR7s9kMpVKJkpISr1vX3r17kZiYCJVKRbFEaGgo1qxZ4/WFNjU1wel0khdgnsPbfX3zzTcICwujGE0QBEycOBHv3r3zeo2zZ88iPDyctlOtVotRo0bh8ePHojFHaWkpTCYTZV3Lly8XNaZly5YhKSmJjEkulyMnJweXL1/2NJAjR47QhxYEAYGBgdi5c2efq2fUqFEUkLH/jY+Px969e3sFfgCE27dvo3///uTy5XI5nE4n5s2b53U1nDlzhlwxu6+pU6fiw4cPXh943LhxcDqdtNrUajWmT5/u9RpXr15FQkICBd8sGF+3bl2fv3/y5AlGjx7tsZUajUaYzWYsWbLEa8xRWFgIlUpFwXhZWZnoR9u2bRsKCgroHLPZzDWODx8+oLa2lmK0wMBALFy4UPQ6y5cvR1hYmMeCzcrK8vCCAgDhl19+wcSJEz0eevbs2b3++MOHD9HU1AS5XA6lUkl5f3V1tdd9+saNGygsLIREIqFgNzY2tk/8wf3DMSyFufuhQ4fi9evXEFsJLEgMCgpCVFQUVq1aJfqCamtryVuytLSvDM0dCnAPYlUqFaZPn97nQmLvKysrC0qlkmKV0tJSWp19HUeOHEFERATUajWUSiWkUimam5u9bsHsKCsrg8FggEajgcvlEk19GZ7CFoVcLofZbEZ2djYOHjyIPnGQkSNHkveYMmVKn4BTVVUVxRtsf6+srBR1lZWVlVCr1TCbzVAoFMjKysL3338PMasODw+HwWCAxWKBRqPByJEj8csvv3g95/Tp00hISIDFYoFEIkFKSgquXLni9fePHz9GRUWFB7YTGhoqmjIuXboUGo2Ggl61Wo0FCxZ4ffanT5+ioKAAVquVFl59fb1XjIPFKeHh4QgPD6fgvbW11esW7B4sM+9kMpm4GdHBgwc9vKC/vz9mzpyJ7u5ueAXKhg0bBkEQkJqa2mub+O6771BYWOixh9psNixatMjrjTx8+BBDhw6l4I/97b7SXnfElrk89uEWL14s+rC3b99GYWEhreyqqirR9O/nn3/G8OHDPRDSpKQkbN++3es5u3btQlRUFPR6Pbn8iRMn9vlCAQidnZ3Izs6m+EQul2PgwIGiAen169eRnZ1N92UymURxEXa0tLRAKpXCYrEgNjaWm8Z+++23SEpKoutUVVVh7dq1ePPmDUSR1Pz8fDidzl6R/t27d2m1sSMuLs6rW2XH0KFDoVAoaMUNHDjQ6zbEXGv//v1hNpthNpths9m4ARYAob6+nj5CcXExfvzxR9FzlixZQtG6RqNBRkaG18wDgPDjjz8iJCSEAkWj0UgRfl/HgwcP0NTURGgvg87F7qunpwe1tbVwOBxwOp0IDAz0itV87HGCg4NhtVoxaNAgnD17VvScU6dOYcCAAeQ1ysrKcOvWLfgEtVdWVqKlpQUfp6WpqakeKzovL090Jbx58waNjY20XYWEhGDs2LG4dOmS13P27t2LmJgYMkA/Pz9u/HD37l3U1dURUJWfn98LMPv4WLRoET2H3W6H3W7vE/hzN9qEhAQYDAbodDrEx8f32qPdj2fPnpF30ul0MBgMfVISH58zZswYyqCCg4O9Zlzux5dffomQkBDo9XoMHjy4Txji46CfBeQ2mw1JSUlecac+DeTj49y5c0hJSYFWq6UVV1RUhKdPn3r9o2/fvgXjSlggJwYCsYg9ICAAgiDA6XTCarWivLycSz4VFBSQQQ0aNAg3btwQPWfLli0IDAwkY+/Xrx8OHTrk9ZyTJ08SByUIAlpbW/skA92ziOHDh1OcYjKZuMZx7do1DBo0iHChoKAgfPHFF6LnvHz5EqtWraI0dsSIEaLfhAWkiYmJUKvVUCgUqK6uFo2FuAayY8cOpKWlEXOr0WhQUVGBe/fuef2jr169wtSpUwnnkMlkohkBAOHw4cMICwuD0WiEwWCA2Wzm7qFv3rzBrl27YLFYYLFYMHbsWNy+fVv0nJ07d8LlcsFoNEKpVCI+Pr5PBNadYY6Pj4fBYIBWq+Uil3fv3kVNTQ3Cw8MhkUigUqnwySefiGZd586dQ3JyMmWCSUlJogYLQHj9+jXmzp0LuVxOnBXPc0yePJm+CUOfnzx54pNx9Gkg27dvJ1fEjiFDhojeyM8//4zy8nL6fXh4OMrKyvD27Vuv5+zbtw/x8fEUyFmtVq5xnDt3Djk5OXA4HHA4HFi4cKFoBsVkDKmpqRQP1NXViRrH2bNnUVhYSGlpTU0NfvjhB6+/v3nzJiZMmEDZSlpaGhFd3o7u7m7U1tZ6EI++xFstLS20BTc1NfWJObl7tObmZspWrFYrlixZIoqocg1k8uTJCAkJoTTWbrdj/vz5ojn4nTt3MGTIEEr94uPjMXfuXNGbP3DgAJxOJ2EQ/fr1w8aNG0Vv/tChQ0R1BwQEoLm5mfugkyZNoq3O4XCgvb1ddN89ceIEAgMDIZfLIZPJkJWVJZp1ARAGDhwInU4HqVQKlUrF3SJu3ryJsrIySKVSwnhGjx7tNYtgWdHw4cMJ6UxKShJdsN3d3RgzZgzUajWkUin8/PwwdepUrrf57rvvsGLFCo9gl/7jxo0bKbC02Wyw2+2i0TojeJjnkEgk6Nevn1e+gx1bt25FREQEkXXV1dXczGPbtm2Ii4uDIAiIjIzE+vXrRY3p9evXqK2thVqtpsxj3LhxoigsI9KYF6ytrRUNet+9e4fm5mbiYXQ6XZ/40cepbFxcHHQ6HeRyORwOB9ra2kSN9vHjx6SZMZlMyMjIEM1W3r9/j/b2dthsNvJqra2t3MW0Zs0aREZGQi6XIzs7mwJlih8qKyspdsjMzMSXX34p+kd//vlnZGRkwGq1QiaTISoqipuabdu2zSMHLygoELXq169fo7293QMh/eyzz0S3levXr6O0tJSCOD8/P66hr1+/nl6mv78/GhoaRO/r+++/R3NzMy2oqKgor1C7e0bI8Bqr1YqQkBDuO7527RrCw8NJN9LU1NSnvsT9mDNnDm0rgYGBmD59uuhWz5yDu4TCHSwlUKugoAByuRyFhYU+3XhWVhYZVHp6Ovbt28c1DpZFsJRRLAfv6elBc3MzHA4HdDodwsLCMGPGDJ9xEavVivDwcKxfv17UoJYuXQqn0wmtVgulUomamhrR4PL69euoqqqCIAiQSqVwOp3clPzp06eoq6sjL5CUlMT1NgybstvtkEgkXhV27kd7ezt0Oh10Oh2cTqdPcU1jY6NHHGg0GhEZGUloN/1w0KBBUCgUorgAo4bj4uIgl8uhVqsRGBgoClGzvZ3FDwxoE4PbWTzEiLqcnBzRLIIdCxcuRHBwMBwOB7RaLTeLmjp1KgIDA8kT1NfXi8ZOr169QmNjI8UbTqeTi3Zeu3YNKSkp9AGCg4OxbNky7rO0tbURcs1Ll1+8eIG2tjYKrDMzM0WRYXZMmTKFQgp2blNTE3766SfPGIStVt4LXbduHYKDg4mHiY+P55JCq1atglqthkQigVqtRkxMjCgQ9ObNG7S2tlLgZ7VasWLFCu7Dbtq0CZGRkQTONTQ0iHqOGTNmeNDiI0aMEI1RHjx4gIaGBiLp5HI5vvnmG9H7+vDhA/Ly8ijFHDJkiCjIyK7T0tJCGU5FRYUoDwVAqKiogNlshk6nQ1RUFK5du8Z9X3v37iUDZGLxcePGeediLl++7JUWf//+PebOnUtkmMvlQkhICM6cOQMeFBwaGgqXywWtVouoqCjRc54/f45x48aRyzMajdyti3kCg8EAqVQKjUaD+vp6rzzJkydPMGnSJPj7+5PnqKmp4QaKgwcPhlqthlqthtVqRUdHh2jm8fbtWzQ1NZGIOzMzs09t7sdxCtsijUYj6urqRD/2L7/8ggkTJtCHDgsLE6UN3DOp2NhYureIiAiv+hefcuFJkyaRlQmCgJSUFC6Gv27dOlgsFgp+cnJyRLOCS5cuoaSkBHK5HFarFXFxcaJkIAuUm5qaCGyyWCyi3ubdu3eYPHky9Ho9yR0LCgpw9OhRiEHUWVlZpDHR6XSiUgWGwo4dO5YynJSUFBw7doyL8ZSWltI2XFpaKmq0THfL0vjY2FifFtPnn3+OsLAwghjCwsJEkwuucdTW1kKhUBA2kpKSwo0ftm3bRjC10WhEbm6uKAp76tQp2qeZoIbnJm/fvo309HTyAtHR0aKxUHd3N8n/mTtubW0VNfT9+/cTR6TVapGbm4uvv/5a9L4OHTpEuJBCoUBmZibXOK5fv07STa1Wi+LiYq8e8GP2XaPR+CR6Zgi5v78/fZchQ4aILg5RA3n69CnGjh1LgaLZbMaQIUNEX+jdu3cxevRoqleJioriRut79uxBUVERWXReXh4XnGLiHeZaIyMjuexya2srlEolscu8CH/Tpk2Ijo6m4C0jI0NUY8IC+MzMTPK04eHh3LR03bp1KC4uplSeh7/cvXsX7gGszWbzKbtbs2YNfReLxYK6ujqfUFWvAhyWytntdhgMBtTV1XFJJOYidTod9Ho9N8LfsmULUelqtRoZGRk4ceIEd1uZPn06Bb4ul0s0Yn/9+jVmzZpFrtvlcqG+vl70GmvXriUswWAwIDIyUlQRztT97gRiTk6OKPPLEGVmGDabDZmZmaJB7K1bt1BUVETVBiEhIV41wB+LsNgC1Ol0KC0t5YqQ+jSQV69eYdWqVcjPzyf3pdVq0draKooNnDp1CoMGDYLD4YBEIkF6ejrXOKZPn06wuVKpRP/+/T3SK29ZQVNTExUbabVarueYNGkSTCYTIiIiYDabuSnj7t27qcYnMDAQ/v7+3C3i0qVLaGhoIFVXRUWFT1uRw+GgAD4zM5MrV5g4cSJpbEJCQrB161afAvjw8HAolUpYrVZMmDCBm0m5k3m93CqTuzHo3FsdiXvNSnFxMa2chIQE7gtdtmwZtFotpXIjR470yZqXLl1KKyEpKYmbRU2aNIk+tt1u50oPTp06hZycHHoWs9nstcbFPfNKTU2loDc4OFg03mK4kNVqJfS2rq6uz/IK9/hp+PDhUKvVkMvlSEhI8Fr28XFGxKQUWq3WJ+Ds8ePHmDx5Mnbs2OEJlB0/fhwxMTEeBUO8TOXQoUOIj48nnarRaOTexI4dO2A0GqFSqaBSqdDW1ubTXrh582Zy+wUFBX0WZblzRC0tLRThFxUV9VkZ535cvHiRPCcLlidPnix6zvv371FYWAi1Wo2AgAAMGDCAiwvt378fdrsdKpUKJpMJEydO5JJoRUVFUCqVVI/MSxKePn2K8vJyEpebTCaMGTOGC7k/ePAAJSUlHouW/uPs2bMpFqipqRGlxNmDBgYGUtAXExODTZs2iZ6zcuVKUmsbDAbU1tZyjePly5eYOXMmfbjq6mrRyPv69evIzc2lWt+GhgbR1cm2FVbgLZVKkZiY2Keq/+PtuLa2lrKckJAQLs6xYsUK+Pn5ISAgAH5+fj7B7dOmTSNcKDw8nBvX3L17Fw0NDZRiWywWKqMUOx49eoShQ4eSfLO2tvZvBvLu3TuCwr1Vo7v/oenTp0Ov1xP+UFZWxt0/29raIJVKoVQqodfr++wk0BeekJGRAbvdDr1eD5fLJbp6nj59itbWVvIc4eHhXC/Y0dEBf39/IsScTieXeLtx4wZKSkqgUqkQFBSEpKQk7odbsGABYSlyudxr7Q07fvjhBwwcOJAEyTxdK5NesEBZoVDAarVi4sSJ3Pd87949FBQU0KJyOBwYPHiwpwdpamrCpEmTRPPv58+fY/DgwZDL5VAoFDCbzZg8ebIopP3+/XvMmjWLKvZcLhcWLFjAvektW7ZQVR3TjIjhHD09PQSFq9VqhIaGYvPmzVylWX5+PnnBlJQU7N69m+vRmKwyNDTUJ/3ojh07KBYICwvrs1rx4w/t3rKCF2+wKsSsrCzIZDIqUZ0wYYIo2suY6X79+nmUqRqNRrqmh3iWZ2XMBalUKpjNZlRVVXEBoLq6OqhUKkgkEkRERPgk5T9x4gTpP3Q6HZKTk0WFOAyzYW41PDyc+1IPHjwIu92OiIgISKVSmEwmrkE9f/4cs2bNot/zPvTbt2+xbNkypKSkwGAwICYmhoI/b8fRo0dpYVitVixatEiUI2KGHhoaSoYeEhKCyZMn92p009c3zc/Pp/hGqVQiNDTUYwH7BLWfPn0aSUlJFMAGBQWhsbFRNLg6c+YMZQQmkwkBAQE+7YWsVpZF3s3NzaLbxIULFzBkyBAq7s7JyeFC4d988w2Rjiyd5Z1z9uxZjBs3jrYvXzKvyZMnU1yTnp7O9U579uyh+4qIiPBJ6LN06VK4XC5IJBJIpVLo9XpMnz6de97169eRlZUFm81GXZ3q6up6vWuucdy8eZMCMZvNBqfT6VNwxfZCf39/ZGVliRYzuafMrMzC6XRyDerGjRuorq6GWq2G0WhEYWEh1+WfOHGC3Lder0diYiL27t3LdcPuVMCoUaO4QNP06dNJ8O1yubjGsXLlSopR+vXrxzXA169fo6amhuJAtrX6ohu5dOmSR5GWxWLBmDFj+sS6BJ64tri4GAqFghC/MWPGcFfnsGHDoNFoYDKZkJOT41P9xY4dO0htFh4ezuUWvvrqKzidTlgsFkilUqSlpXFxkYsXL1LhkNPpRGxsLBe5/eabb6hKTq/Xi3bncQenGM7j7+/PVauPGTMGRqMRWq0WdrudG8Cy4FqlUhEXFRAQwC3WZrtBfn4+VCoVNBoNIiIiRCEA7l7IkDulUomGhgbRIHb//v20f2q1WjQ0NHCN49GjR2hubia1mVar5Qpqpk6dSj1A/P390djY2Kt3WF/ehqngVCoVsrOzuYji2bNnKRYyGAwYPny46Lb64cMHsAJvVuPDu0ZbWxsBhiaTifvsb968wbRp0+BwOEhzGxoaypVVskCWBaSMfOUJsbyCUtHR0VAoFFAoFDCZTGhqahIVrrBmJ+xBKyoquMbh3ndLKpVCq9Vi+PDhXgEdprEICwsjLGXYsGHcYOz06dPIzs6GRqOhRnG8l7lt2zbq6WE2m1FRUSG6rXR1dSEvLw9qtRpBQUGQy+XYunWrV4Xas2fPMHjwYKpF9qX0oaenB+3t7R49VgYPHixa0uou3GL6D6vVCoPBgK1bt4q2lOiTi9m4caMHaGSz2biuq6OjA3a7ndKk5ORkPHjwgBtB5+TkUOZhMpm89vX6uN6XNaRbtWoVty3CL7/8QlSAw+FAa2srF7ncvn07HA4H3VtJSYno89y6dQvl5eXEsAYGBorC+i9evEB7e7tHWskD5gAI8+fPp3SZpdk85JZJMWUyGTQaDcLDw1FXV+eThNPDQI4dO+bh6jUaDWJjY712zXHXJbDIXq1Wo7W1VRQGd9dyMDFRZGSkqIv88OEDWltbPUoheSkmy6QYfB4QEICZM2eKeps7d+5gwoQJJF0MDAzE1KlTRc+5ceMGhgwZQo1biouLuVLEefPmEXej0+m4geXr16/xySefkAcwm81IS0vj6ocZEsu2k5iYGCxfvlxUd8sqHlk8R//n4MGDPRrIZGdni0b3r1698ihJMBgMXOke43z69+9PkoCAgADRB33//j1KSkqoPFMQBDQ0NHAf8uTJk0hLSyOKf9GiRaKM9Js3b8Aq15RKJWw2W599VD/2HKzBnFarRWFhIRftXL58OXmOyMhIzJs3j0s3tLe3UxrLtCm8beX58+eYP3++h56Fp9ADIHz22WcIDAwkeQcFiu5FQw0NDaLlhl1dXaipqaHU12w2Iz8/n+vuz5w5Q7Uher0ecXFxohH0y5cvUVFRAYlEAoVCAaVSieHDh4sWUTOdBevso1aruSWdr169wuzZs4ldTU5O5gq4nz59in79+sFisUAul6O+vl60udz79++xZs0aEhPl5ORwWW8G0TPPodVqMWTIEK6gav/+/SgsLIRer4dcLkdqaiqXrAQgTJgwgWIip9OJFy9e/O2FshWalJQkiiWcOXMG6enpVDYYEBCAOXPmcHEBFkGzgvDg4GDRVkw9PT2orq6Gv78/dDodrFarT3T1+fPnKVtxuVyora3l3tvo0aM9OhDzXub+/fupZ6tMJkNra6so3fD27VvMnDmTcI6amhqf9KMzZswgrxkdHe1T7HDlyhXKVNRqNaKiorjaFBbfuHdsDA4ORnd3998MhNHiYrjAkiVLqLDbaDQiKCiI2wGIEU+pqamQSCSQyWQICwsTZX67u7tRVVUFlUoFpVIJpVLpk3tcvHgxIiIiYDQaYbFYfCIEJ0yYQI3oIiMjRbsbsvpVVlfMWinwiEp36WZOTg63XQPDXxiloVKpMHz4cJ/QUSb8ZrwPT5sCQNiwYQPFnsyICwoK/rbF7Ny5E1VVVV5dV09PD7744gtywUqlEpGRkT65rfPnzyMzM5OMKjY2VlR5fuPGDerwx4qoq6uruenY7Nmz6cX4+/tzdZoPHjzAwIEDPXqG8OqKr127RkEvK0vg9SVhJRkMPueBeeyDMXExg8B5XvDNmzeEwSgUCoSHh3OxIdZunX1Xlj5HRERQdaVPXExHRwe9SEEQkJ2dzW13xLKVsrIyOJ1OOJ1OJCYm4vTp06IdegYNGkRuLiAgANOnTxeVH3R3d2PhwoUwmUzQ6XRISkrqswDo4y6KmZmZHlMPeFD4xYsXydCTk5Mxf/580aCXteV077TEq/x3b3TDWqDn5ORwxdI3b95ERUUFNBoNZDIZoqOjRbdvd8E082xarRZarRaVlZV9V/d7Sy9Xr15NuIhWq0V5eTlOnTrFvfjx48cRGRlJXEFWVpZoEPvkyROKHfR6PaxWKzfH7+7uRk1NDSnNXC4XN/U7ceIEEhMTPdpS8gTJa9asQVJSErWznDRpEldp5t5WKisrixsosyJyhtxqtVqMHj2aq2e5du0aBg4cSMaenJzM9bZMvMRgBgaGjho1qpc8QBDLVGbOnEnAjNVqxezZs7kYB2sOk5SUBLlcDolEgszMTNHY5tGjR8SRMPKIV0D++vVr1NfXk7dJTEzkGtTJkyeRm5sLiUQCrVaL0tJSLgq7cuVKyvBMJhM35mLzb5iut7S0VNRrMsHWxo0bSeFvMBh80sycOXMGGRkZpPCPjY3lbmGPHz/GmDFjaGQJm7XjDbvxmt+PHj2aLEwqlZLCiHccPHiQaH7W1lkMG3j79i3t64xA45FVP/30E1pbWyn9S0lJ4bLFe/bsIUZWrVYjISGBi1l8/fXXxGQ7HA5uXPP+/XsqFzGZTBg8eDDXA/z0008eAKXL5cKoUaO47/rbb79F//79iXKoqKjwybOPGzeOYAOtVovo6GhRo+oTTWRjMdjLrKqq4lrmq1evsGnTJspWjEYjiouLRffC69evk0TOaDQiJyeHqyI/d+4c6urqiCfy9/fnVrJ//fXXpLNQqVQoKiriSgS3bt0KnU5H7cDnzp3LrddhPUO0Wi3y8/O5rv7p06ceWYcvfWFZms36zwYHB/vELbGAlO0IUqkUERERHu+hL8DO4wPv2LED1dXVFLjY7XbU1NRwyyDfvHmDUaNGUbRut9u5geLr16+Rk5NDozcSExO5Rvjdd9+hf//+5L7T09O55yxatIi6+qhUKtHJEu6FU4xwi42N5ba32Llzp4cAKTs7mysjYAgpexaXy4UhQ4ZwA9+Ojg6KN+x2O/Lz87nX+eWXXzBjxgyiKkwmE2JjY71iKu4KNg+2z71xPsP7fYk5PvnkEyprDAsL45JuJ06cwMCBA6lZvdPp9GlFs1jA5XKhubmZq7xfvXo1tW9iKjBeK4UNGzYQFD5kyBDu4hg/fjwcDgfMZjO0Wi0GDBjAjTk+fPiAYcOGQaVSEYudnZ3NrcedP38+XC4XSThra2u5BvX48WOqeDQajbBarSgsLBTFR65evUqVAOQeJRIJBS1sWhTvA3ysH7VYLFxA6+zZsx5DCUNDQ7np3/r16+FyuQg6b2pq4t7XypUrPZT3paWlXM6DqbqYXoQXwB44cAA2m4221Pr6ep/EUYMHDyYOSyKR+CTFXLx4MXloq9WKzMxMbq/Td+/eYfDgwZSxabVazJkzx6shvnv3DtOmTUNgYCB9R3pQtVpNNz1kyBBuAMdgXfcOh6NHjxbddy9fvozy8nJSuOfn54vCwG/evMGaNWtQWFhI+3RJSQnXq23fvh3h4eEeBeE80GjGjBmQSqUwGo0+kYGnT59GRkYG3RevvYX7tsICX5PJhIULF3K9QFVVFaxWK+ltysvLuec8efKEPjYrZxDT6Lx69QrNzc3Q6/XQaDSeZN2GDRtIb5mYmOgTAvf9998TW2q1WjFixAhRt7Vv3z4KSE0mE2pra7kNcJcsWULUOxMh8dz3Z599RlulyWRCdXU1V9X1ySefeFTt8Yzj+++/x8CBA8kLlpSUiLYaZ7DB6NGjyQuwbo1ixOPDhw9RUlJCHkChUHAxGEbX5+XlUazCkGVv36enpwcjRowgb2swGMirk9u3WCwIDQ3lws1MSc4IodjYWKxfv97r3t7T04OFCxfSiwkJCcHixYtFpfwvX77Etm3baMVoNBrMmzePW+Mxe/ZsOJ1OgoynTZvGZX4nTZpEo0/Hjh3LXZlXr15FYWEhZVHNzc1cpJM1wWWoqt1u55Y/sEa4DC6IjIzkxnashzubxcvYdm8jY90DX/f26RaLhURVHrSyL2zp0qVLERMTA4lEgvLycu6KXrBgAfEKbAXw6jy++uorop01Gg33AXt6ejBnzhwCmgICAnoNJujrmDt3LnE+48eP55JoZ8+eRXFxMYFz+fn53GdhCncGn4eEhPgkP5g5cyZNvlCpVNzuzQw6j4qKImllcHAwF1NasWIFYmJiYLFYyICHDBnyv6uLYfgDG+QnlUpRVlbGrXn9+uuvkZGRQfjD0KFDuavtm2++IaAtMDCQW2j17NkzjBo1itBEg8HANY7nz59j2rRptK2mpqZyA/KrV696tIgqKSkR1cy4r06WAmu1Wm5B19u3bzFmzBiPvqU8yIBloQwb0Wg0cDgc3Gvt27cPsbGxHpPFs7OzPZ7LJ+P44osviKgSBAEtLS1cMqijo4P0o4GBgT4pz909h5+fH7cxb1dXF5KSkggwY7NZxM7p7OwEwx9Yu21fOgeVlJQgKCgIGo0GgwYN8olGZ/OE/f39ERAQwEVIX79+jcmTJ5OrZ3ICMSHS27dvsXDhQsTHx1NT49jYWK/DqRmHxUTMzBAlEgkGDx7cC7/hGsfnn3+OoKAgkrvFx8dzya2VK1cSnCuRSLjo4MuXL6m5HBvlzmsM88MPPyAqKor6f7AJ3GJppntZgtFoRGlpKTcj2rFjh0eP1+zsbG77hffv3+PAgQME7RsMBp/6lg4aNIgyQiYn4NXgrF+/nlpLSSQStLS0cJ9p06ZNHuPgAwMDMWPGjD7jNW4ZJKt0Y6JXMUDrw4cPaGtrI36ANWblUdWMv2Bjy3gv89y5c4iKiiJFV3BwMDd+YmkcywgSExO56iw2Q455m8LCQu622tnZCff5f06nk6se6+rqQltbG4mLQ0JCUFhYyMVtPvvsM2KM5XI5Bg0axAUCt2/fjoCAANpS1Go1VqxY4dVLiQYvNpuNmsOkpaWJeg429JDFKHq9HlVVVaIPuXv3bhQVFVHzmUGDBnH1locOHUJKSgrMZjMsFgtMJhO3FvXRo0eYNGkSZTc1NTVciP7zzz8nAk2pVKK2tpa7rXR1dZGH0mg0iI6O5nYRfPbsGVjHQqVSiYCAAIwbN45rHDt37qRu1waDAXPnzuWWc7B2GsygYmNjuWlzn7j96NGjIZVKiS3NyckRzfOvX79Olf8sfqioqBBdoZs2baI0lhWE8xRqP/zwA3ExMpkMarWaWwqK/5kK6d5/lIdALl68mPAXhUKBcePGcT3HpUuXKE5j1fK8zOPevXse8wBVKpVPqez+/fsRHh5O08CGDBnC7R60f/9+8qBSqRQDBw7Etm3buNtRL3kgg8GtViv0ej0KCgpEWzkeOnQImZmZVFuqUChQX18viiesXLmSioxYMQ8Poj958iSKi4up/0V8fDy3XYN75yS73Y7p06dzvQCbfCCRSGA2m9Hc3MxNfy9dukSSBblcjqKiIm6D//Pnz6OoqIjkfnFxcT6lsrt27UJKSgrkcjm0Wi0CAgJEaf5Xr15h/Pjx1I9dpVIhLy+PG0f2WTgVHx8PqVRKZN348eNFx1cdP37co0qcVb6LgVMHDx6En58fBb0BAQHcQu2TJ09iwIABhAyaTCafXuaVK1dI9OxLR8D58+dTNuRwOHwaaLx//35ClA0GA8rLy7kdBo4ePUrib4lEwhWLM55k1apVlJaq1WpkZ2dzi7QmT55M702hUKCwsJArF3WnS4jzYD3CWbuCtLQ0rrv39/eHVCqlJv1Tp04Vham///57ArNUKhXCwsK47Z527NjhQe4xroT3sc+ePYu0tDTI5XLuNRiOwLIof39/tLe3+9S4hVHorAcIr5K/q6uLtknWFdKXxsGffvopcTgMUxLbHq5fv47x48fTVqnRaNDa2iq6vT579gwTJ05ETk4OcWSUfTBPwAQoYgHP06dPe6V+vAZuly9fpg9tt9uRkpLCrdc4d+6cRysml8uFefPmib6Yly9fYuHChVAqlVCpVD7VvM6aNYtWmZ+fH6ZNm8YV+xw7dgxBQUF0XlpaGlfV9uTJE7S2tkKlUsFqtSIwMJBrHB8+fCDchpVdTpw4UdRL//jjj+TVWDfJ/Px8LifV0dFB2Q0D5zxcUW5uLtc9HjhwgBhcnU6HnJwc0Rjll19+gTvKFxERgaamJi7z+d133yE2NpZuWKlUcnWajx49Ql1dHTV+86VF9fLly8lzmEwmtLa2cj0Ha43B4qgBAwZwSyGZUk8mk1Ex2L59+0Sv9eLFC2KyjUYjdDodRo8eLeqlb9y4geTkZMjlcnrnQ4cOBa/F2OrVq+F0OinArqys9DSQ7u5ubprE2jiyPTAyMpIbwGVnZ5PGQhAEn1pHs1kuLOg1Go3cnqW3bt3yGLk+bNgw7nUaGxuJwYyLi8Py5ct9wh6Cg4NJSlBcXMztx3758mWkpqZSsVVKSgpXIIX/mTjlHsy3tLSIeo6dO3diwIAB0Gq10Gg0UCgUooiq+/ZqNpspLrRarb09CA9kmj59Orl7NoxPrJiHDVlmKB8TIfHabX/11VcICgoiACgyMlKU3Hr79i0uXLhAKaa/vz/y8/O5UXpJSQnhIoGBgfjss8+4xrF69WpERkbSeUVFRdwtYvPmzUhLS6PpkxMmTPCJw3HnfYxGI9cbrlu3DrGxsaT9UKvVPnVH3LVrF4KCgiCRSCieCggIoG2caxw9PT1YsWIFcSS+SAIYG8k0FlKpFEVFRVzmd+XKlR4ze+Pi4rgfYPfu3RS8mc1mtLe3ixrho0ePUFBQQLFDYWEht4EdC5bdNSDJycncbGDdunUUJMpkMowcOZI75xeA0NzcDJvNBrlcjpiYGCxatEiUQtiwYQMCAgLIS4eEhPgk21i9erXHMAXG5LrHeAIPNp48eTIpoXU6HRevuHTpEqqqqqDX6z0UamLioK6uLkyZMoUMijVy4+3rN27cIHFxdHQ0l9pmrSRYyhcSEuJTEfXq1avh5+dH8VBcXBz3A2zevJnkiEqlEgMHDuQGiW/evPHodqzVatHe3s4VO0VERJBxREZG+tS7dcaMGdSCQ6FQwGazob293ffCqSNHjiA9PZ08h0qlwrJly0QDpOfPn1NbCGaRZWVloh/60aNHaGpqokBUJpMhKSmJW09y69YtlJaWwm63w8/Pj4vCPnr0CCNHjqT+5UqlEh0dHdwVffToUQ8lfU1NDTdjO3ToEMxmM72DtLQ0Ll7x5MkTagSs1Wqh0+kwc+ZM0Wxq48aNFBM6nU5kZ2dzSc4ff/wRra2ttHjd1W0+czFbt24lt80GA/EItOfPn2PUqFE0xlOtVmPIkCGiyOWzZ89QU1NDxJZSqcTQoUO5PMmJEyc8FG08vuP169ceVEBISIhPHQHPnDlDBu9wOLBq1Squqm3nzp20qNi1fPFSjA5QKBTIzc3lKs7Onj0LPz8/qsf1pafqyZMnkZmZSUy72WxGXl6eqMfp9SLXrl1LNLVGo4G/vz93JEhPTw/Gjx9PMjeHw4GMjAxRFJaVDLhzMUVFRdwyg4MHDyI2NhZmsxmJiYlcd/rs2TMUFxfDbDbDaDTC4XD4VCd77949JCUlEcPqC+dz9OhRKs0ICgpCfHw8d8AB/mcaVkBAAAwGA/r168fV2pw+fRppaWn0vmtqanyKbVgHJRaI1tfXczPXXsIgFm8YDAYEBwdze5Q9efIEEydOpLRPrVYjNzeXSzu3t7cTryKRSHxqq7Rjxw7069cPNpsNUVFRPmlB6+vrqc9GWVmZTxzErl27PMQ0TU1N3JqV7777jrwuQ6J9qbCfMmUKBYqJiYncaoKVK1ciKCgIMpkMOp0O+fn5XCHWxo0bqcuj0WhEeHi4TwCih4EsWbIEOp2Oonun08mtVzl+/DjS09Npr7Xb7Vi8eLFoxP38+XOaLc9WQHl5OVcYs2LFCo9ZeLzibmaENpsNFouFq05zF+CweS4sK+IBZ+vWraMmNEajESUlJVxlfFdXF8aOHUseatCgQT4p2xITE2myVWpqKreN1b59+yjeYCNqfWGMWSbo8TJZRRl7MTx3ypq5slXDc6ddXV1obW2lc1icwovuN23ahMDAQGJKea2zr169ilGjRkGv1yMsLIw7acq95NJgMBB45kuHomnTpiEzM5OkEfX19VyYft++fRgwYAD1XfMF8V2yZAlCQkJgNBqhVCpRUlLCbSozd+5c0n+w+Tw8r7Z582bk5eXRoIZevdUNBgPa2tpEV83Bgwep9oSpu3kNWD58+AA2P44FSSNGjOBCwHv37iVVV3p6Ore4u6uryyMg9UXw+3EbJlamyaMDOjo6SKHGUnNerc+CBQvo3RkMBsyePZuLRs+cOZO8LdPn8ETWHR0d8PPzQ2hoKLVE5xF1c+fOpSFRwcHB6Onp+Vtwyto6T5w40etH6+7uRnt7Oz2gXC5HZmYml8F8+PAhpk+fTugoq/znBbGbN2+mltupqancVPHVq1eYNGkSZUUVFRU+VbsxD8Waxa1du5brBRYtWkSexmw2o6CggJt9sekPDHtobm72yXOwQUxMTiAGtz969Ajt7e0E0QuCgPHjx4t66YcPH2Ls2LGE8xiNRvj7+/+tid2NGzcgl8sxePBgUeXUxIkT6aJarRYOh8OnVlQTJkwghTsj+Hj77datWynHT0hI4DK/79+/B5ukaTKZUF9f75PyfNmyZVT3Gx4e7tN2dOPGDY9p3wsWLODqRtj0B3Z/DQ0N3LjrxIkTtBgtFgs3lf3pp588vKdCoUBlZaVogP3gwQPqRM06XUqlUsTExOD169eebsxb+6Z79+6hpaWFMhyNRuOTGPfly5dYsmSJxxTu6dOnc7eV7du3k9KqpKSEK6a5fPky1ewIgoAFCxb4VET9xRdf0DkZGRlckIkZbllZGU285vVTZQE287j+/v7o378/t4Lv8uXLCAsLg91uh1QqJXZVDLPJy8ujbgFGo9Enw2XvjSG+DClm9Ujcvfn27du9RlZFRUVxC5pOnjyJqqoqcvdBQUGoq6vj7p3r1q2jtK+6uppb87phwwaUlpZCo9FAIpH4xBaz1M9ut8NqtcLhcPgEZq1fv568mslk8mmLWLt2LfEkfn5+qK2t5epbv/32W5qaERISwvUchw8fRnBwMHQ6HaRSqU9Jxv379zFhwgTqW8sWsdVq9aARuMgb6x3G0tKoqCguNnL48GFERkYSn6BUKn0KFjdt2kQpWV5eHjfgu3fvHj0YmxThi3F8/vnnHi23fWk0e/jwYSrliIqKQnBwMJeZ/vbbb6lMk7Wz5F3n66+/pq3YbDajra2NuxBZ8z+WTX7yySfcmLCyspL60LKmgbm5ub36vInqOfPy8oiJZPPdeMZx/fp1pKSkQKVSUYRfUlLC7bUxb948epkFBQU+IaTp6el0TnV1NRcVZByTyWSiXqK87Iu9C9YDxel0orq6msvHrF27FuHh4bRCfanKP3nypMdIMh7Wc/HiRURHR0Mul0Mul8PlcnE5qefPn2Ps2LEeM2Oys7Nx8eLFPjNXr/sZ68zD0MS0tDQu9f78+XPK71lEnJ+fz9U/tLe3Q6fTwWAwIDAwkLsC2CgRFqnzOJ+PU2Y/Pz+f6n6ZmIat0KCgIJ+KoMaPH08VfyaTyacu0WvWrEF8fDz8/PyQmprKbed5/fp1xMXFUfVicHAwV0nPuhmwrYQtXjEuqxensmXLFhLfsL5emZmZXPzh2bNn5HEMBgP0ej3mzZsnqtPs7OzE6NGjyQu4XC4uenvu3DkaXabT6VBdXc3NBpgSzL0Oh0fXv3z5Ek1NTXRvGRkZXFLw4waAVquVOzGCJQhsq4yOjuYy2efOnaMWXky4tHfvXlHs6vXr12hra4PBYKDJEVVVVVx6o1eXX71eT7yKQqFAYGAgN7p//Pgx2PhwmUwGi8XCXZ2dnZ3IycmhoC8yMpIr3Dl06BCVgprNZkyYMMGnbGXJkiUUP/j7+3M7FjKdBfOCWVlZXA5nz549NMJNr9f7DO/PmzePUtkBAwZwvfSmTZsQGxsLq9UKlUqF1NRUruEytpglDMnJyWhra+Nmkx4G8sMPP5CynUHhwcHB3Oa0b968QVlZGfR6PSmoecXaL1688Bi3npSUxI0Ftm3bRlxMeHi4T+wqq3VxOp2QSCRISkrieo579+5h3rx58Pf3h0QigcPh4NbUsPbZ7Hni4+O5DDjzaixOq66u5mpbly5dSpC+QqFAQkICF0969+4dli5dSkaYlJTEjW2OHj1KdUceWlBG1Ol0OpSWlnKt+eXLl9TLw2azITAwkFuD0tnZiba2NpoWUVhYyG0Au3DhQjJai8WCsWPHcunt+/fvY9asWfTRfNkmHzx4gMrKShLvOhwOrrFv2bKFvKBOp0NcXJzosAL20ebMmQOZTAY/Pz8UFRVxg/iNGzdSUZfL5UJ6ejp3e3DvpqjRaNCvXz/ugt+9ezf69++PwMDAvyGpDJxi1lxYWMjVZTx79gxDhw6FXC6nfp2+9FZvamqiboU8zgf/MzKUscwRERGYPXs2V1x8+vRplJWVkUFFRERw7+3Vq1eorKykbWXAgAFcz8HKJxkIlpWVxTVCd+DM5XL5JPSZM2cOeTSZTIbBgwdzPcdPP/2EUaNGkdDcFznF2rVrCfNSKBR49uyZp85ApVL5hJDeu3ePAlKtVovq6mpu8TCLBYxGI3XR433oJUuWkMYiMTHRJzDr22+/pZRUo9EgMjLSpxEcc+bMgclkgslkgr+/P/dD37lzB0VFRYTbZGZm+jQ8evHixbDZbFAqlRg7dqxPelgmfLbb7Zg2bRo3dvjyyy8RFxdHwGZ5eTmX97p06RIF/3K5HAkJCZ5bzPHjx2EymbjFSQcPHkRaWprH4GSemObhw4cYOXIkXC4XNBoNd6r0kydPUFVVRUXUdrudO0+WyfBSUlKgUChIDcfrktzV1YXGxkaqeueNSQMg3L17l4YtK5VKn41j5syZBLf7AtGfPn2aKhhdLpdP72DNmjXQaDQwGAxQqVTIzc3lQgDnz59HcHAwLV7WBaFXFsNTJp08eRKJiYnkORISErhajoMHD6KsrAxmsxkKhQLt7e2inoPNmJFKpRQLtLS0cLmLY8eOkdBHrVbDbDZzA9+NGzeioqICBoMBWq0W/fv353qOR48eITs7mzK9iooK7ge4cuUKampqIJfLERYW5pPYiWlG2PbAAygZzhMSEkIYR11dnU+tvUtKSoh81Gg0yM3NJQ2yz03s1q5dSzUrOp0Oubm53GlL58+fp4c0GAyYMWOGqOj3woULtHUxV1dZWcn9ADt37kRsbCxF+FFRUdyU+dq1a0hISCCGtampiZsyP336lMa5WiwWTJ06ldtfo7OzkxrEaLVanzpJrlq1ijK2pKQkn4zjyy+/pLYQTEMrFqe8e/cOy5Ytg8Fg8BgmMGLECA/+S/A1VXTvBVZZWcnVSxw8eBDR0dEwm82IioriVnlduXLFo4tgQEAAamtruQOav/rqK1itVigUCshkMoSEhHBf6JUrV5CYmAi5XA6pVIrQ0FCudG/v3r2UsQUHB3NV58yrMSrdZDJxkc7Xr19j0qRJVDaZlpbm02RM91EnKpUKM2bMEM3ybt68iZaWFgLa2P21tbX1yqa4xjFx4kRKMZ1OJ0aOHMld0XPnziWhT0FBAZeuv3fvHoqLi2Gz2WjyYl5enk+NW0JDQ4nFNBqNXJzj7t27KC8vJ1VbYWEhDh8+DB5/w1Z0cnIyt58JywoZqOcLcPj8+XNMnjyZtq6srCyfOl5/8803yMjIIJ3q+PHjueew+huGeQUFBaG9vb1PoxJ9kUOGDKGMQBAELoX86NEjtLa2UuaRmZnJJbVu3LiBxsZGCo4kEgkaGxu56u5t27YhJiaG4HO73c4NFH/66ScMHz6cKPHx48dzYe3jx4/DYrFAKpWiurrap26FX3zxBZFucXFxXO/58uVLEnIz8oxntGxbcR/VzgMP3717hxEjRnjMjMnMzMTatWu9ZqF9FkNv3ryZomeGWdTX13PT0lmzZkEulxN9zBMXs3RZIpFQNX9xcbFPbaLcZ6YEBARwMYszZ85gyJAhkMvlUKlUqK2t5abmO3bsgMvlglwuR15enk9F16xMk320sWPHiqalHz58IHaV6U19MY4lS5ZAq9WSUU2cOJELHk6ZMsVj7NuAAQO4sVovTmX48OEekxBZHs3TPkycOJHybpvNxi1Ounv3LpKSkih6NplMmDVrFvejLVy4kFhcu92OjIwMrlL7xIkTRIbZbDbU1NT4tK+zjM1ut3PZVSYocq8rKikpEfWg9+/fp3EdzNX7kuHs3LmT+o3p9XrurF8mefT394der4fRaMTgwYN92sJ6yem0Wq0HYdfQ0CBqHNevX8eYMWPImPr168fdozs7OzFo0CA6JyIiguttenp6sGDBAo8hi3V1dVx11pEjR5CYmAipVMptJeG+RTCZQ2Jiok/V/zt37iTPERYWhtLSUtGyhEuXLsHhcFDm5XA4uJgNg/ZZ/3ZBELjUxs8//4wpU6ZAoVBAKpWipKTEp7YQfRpIa2sruW65XM4Fc27evImamhqEhoZCoVD45OqfP39OvUSVSiVcLpdPQZ/7QB2Xy4UJEyaIFid1d3djxYoVlGabTCafWM8ZM2aQ8tzpdHKV9K9fv8a0adNoBKzVasXo0aO5njA9PZ26GcTFxflkhPv27YPdbofRaKR2EmJURWdnJ2pqamA2myGXy1FSUsJtAXrz5k20t7eTnNLjPzLcnhXm8AK+gQMHEoXscDi4SN+TJ09QXl5OKjU/Pz/uB3j48CHmz59PQV9MTAyWLl0qGg+xqZ3M20RFRXFTzBcvXmDKlCnkunNycrjZ15UrV1BRUQG73U5lpLwiqJcvX2LDhg20jSckJHDLRpjnYEVQgiBg3rx5oiDY8ePHUVBQQDiPL2rA27dvo7KyksbEnTx50vMHLGPh7U/79u1DXFwcpFIpVCoVkpKSuL05Lly4QE3spFIpwsPDffIc8+bNIzecl5fH9QK3b99GVlYWZDIZJBIJbDYbl3q/cOGCx+iu/v37c/fnU6dOISIigryawWDAtGnTuNKIlpYWaLVaGAwGhIWF+QTRz5o1C3a7HXK5HIGBgejo6OAKiph0w2g0oqioiIsqHz161KOlqUajwfr163sXAw0ePJjbIdl9aE9kZCRX9Ltt2zaPqZDJycnc+pPOzk40NDR4DBvmSfdu3brl0X1RoVBwy0GPHTtGK02hUPjESt++fRv5+flkHHq9HlOmTBEtaGJF7mwcW2BgoE/F3XPnziUIwM/Pj4vEHjt2jBTxKpUKBQUFXDnFsWPHiMXVaDSwWq2wWq24efNm7zxZDBc4ePAgfTCr1YqMjAzuh163bh3pGNRqNVJTU7lxyi+//AJ3BZRer8fEiRNF0Vv20dgWabFYuEXKBw8eJAbT6XSisrKSW4n37NkzjBgxggYR2Ww2LF26lLtNDh8+nJ4nMTHRpxZRy5Ytoy0iMjKSq1A7ceKEx9iW0tJSrnFcvnzZo36XvW+muvOZi/n8888pgA0PD0dQUBB3j25ra/MwjuTkZG628vjxY4waNQomk4msedKkSaLG4d66Sa/Xo1+/ftwpVZ988glsNhsRW2lpaVxYH27DD5nskbfl/fjjj5gwYQK9/PDwcK5O9eXLl1i8eDH0ej2Cg4MRFBTElX0ePnyY0vLg4GBUV1dzjWPjxo0eBsXKIIYNG0ZBNtcwrly5gqqqKvj5+dG2UlBQwCXqDhw44MHf+CKQZZmU+6gKX0aGNjc3w2AwQKPRQC6XixZPdXd3o6amBhqNhmKOyMhIn8Ap1gVIIpEgJCSEaxwnT56kd6BUKhEREeETt8JKXBUKBYKDg7kYzMWLF8kTKpVKjBgxgks8Hjx4kOgDjUaDoKAgKBSKXhUFAo/rYHu6TqeDQqFAXV0d9+IbNmzwUJDHxcX5tN+OGjWKmpwIgsCtJXn//j1qamrgdDqpEdvixYtF9SlsgB8rzejXrx9XSf/DDz94qO8TEhK4eMqRI0eoN4lEIvFJff/w4UMaZGi1WhEVFcUNYh8+fEhba0BAgE+C7C1btnh0RVSpVIiMjOwzyxFVTKWmppKaSafTYeHChaJ0/fPnzzFjxgyEh4eT/qN///5cFJZJC9k5rCBaTKf5448/eoz+9IUQmzt3LqXkTCLIC0gvXryI7OxsKBQKaLVa+Pn5ca/z9u1b5Ofn070lJydzvSebpmkymaDX62G327ltQ2/cuEFlFgEBAVwtLOssHRMTA7lcDolEApVKhSlTpnjdEbzebEFBATGEjCMQ8xxv3rzByJEjPVo3+dIBB4AwYsQIJCcnQ6VSQafT+bRqcnNz6QNYrVYsXbpUFDhbsmSJRzHTtGnTuKnsd999R6k5623G42OuXr1K3QolEgmSk5O53ubixYse5ZOhoaHcbeXOnTuoq6sjTOmTTz7hKvvmzJmDiIgIyopMJhOmTJniOxfDkDSGPrIALj8/X3SLePHiBcaPH08ui/UQ4xnHgwcP0NLSQjfMVFA8yL22tpZiFIvFwg1I2QwYtVoNPz8/DBgwgGu0169fJyJRo9Fwq/3evHmDuXPnol+/flQC4e/vzwXBtm3bhtzcXCoZqays5C6QXbt2IT4+Hmq1GrGxsVi7dq0oUdfd3Y3x48fT92Rj3Hbt2sWt/u+F27MJSEyMGxUVxS1/GDduHBFOLCPgCYVZ/1GGdprNZqSnp4umck+fPiXmkw2C5q20devWwWw2Q6fTQS6XIzw8nNvTZMuWLUhOTiYoPCgoiNtlwH0ig8FgQEZGBnf4IRsOxJ5n6tSpXEZ2yZIlhClZrVafBNmTJ0+GUqmE0WikMk0x2cLt27fJcLw2iLHZbEhJSeFiFlOmTCHwR6FQICcnh1uFtnv3bmorJZFIEBYWhnPnzuHRo0deK/o7OztRWVlJuEBsbCw3zWYtqlkMxXqdipU+zJ8/36MIKiYmhptJLViwgIJeg8GAtLQ0rhEeO3aMWmayiQxixvHhwwfMmzeP2G9fVHruHZXZdXJzc0W9Gpu7N3To0N4GwiLo0NBQ1NXViWIP79+/x6hRozyKjNLT07lBn3ulPNNa8PiYu3fv0rbCGGNeG8cvv/ySXKqfnx/i4+NFIeonT55g2rRp9DIdDgciIiK4W8SIESM89B/Dhg3j4ilHjx5FUFAQfezhw4dzC6cYT8SEWDyKv6enBxMmTPBohjxgwABRyP3WrVsYNmwY5HI5kpKSehsIK+3j1aycOnWKInv2EVJTU7nqrGvXriE5OZm8jc1m43qbFy9eUKCo1+sRGhrKVbaxEg5GcVutVq7OYvbs2RT0BgcHIzs7W/R5rl69ivT0dOodplQqkZGRwcWHPv30U0RGRhKqWlVVxTWoTz/9lIRB0dHR3LT8zp07NNPHZDIhLS2NO8Lt1q1biIqKgkqlgslkQlxcHD58+NBbR7l48WLRwOXcuXPUu9y9xydPxMyG47C9U6vVcrUM9+/fR3p6OqVjaWlp3DkrbPtiqzMiIoKLQq5du9ajfXZTU5NoRnT//n1UVFRAqVRCIpFALpf71D1p3LhxFMizANMXw2WSx6ysLG7flFOnTiExMREGgwEWiwVOp5NrHNevX6cBDEwolpub+7+D2lnE/fGs97a2Nu6quXnzJoE5rEfXxo0bRdOye/fuoaysjFYnb2IES+PYvFrmcXhB7OzZsyn9ZROdxHCbW7duobi4GCaTid6BL8KllStXktGGhYWhf//+3CB25cqVFMRGRUVxU+yDBw96zMMzGAzcGPLmzZtUPupwOKDRaKBSqSib9Nk43HEE9mLq6+u57vHbb79FRkYGvZysrCyut9m+fTuqq6spvsnJyeHC2mylsftLSUnBnj17vG6VL168QFNTEwXLDDASY2R/+OEHlJaW0vPL5XJUV1dzG9qysfOsE9DAgQNFjbCrqwuffPIJIbcDBgzg8ioXL14kLoY1+eex3+5zBM1mM0lGa2pqiLTkGsbbt2/h/vJ1Oh0iIiJQXl7OHQ2yYMEC0nIwiJonWlm+fDkRfAyF5BF869atI7o+KCgIMTExohjMo0ePMHjwYMqiIiIi8Omnn4rGXffv36fVzF5kSUkJl/1tamqCTqcjnogXc7DxKAyij4yM5NYkz507FwEBAXA6nVQbxPMc7gal0WgoOP84vuMayMiRIyGTyTzmztXW1opG3ZcvX0Z5eTkMBoPHDHue5nLWrFkICgqi62RnZ3PTxR07dlC5oVwuR1BQkKjrvnHjBkpLS+mZBEHgzsO7cOEC+vfvT4ZhMBiQl5cnCp+/ffsWHR0d5DmDg4PR3NwsKvl7+vQpoaOsn4mYFPHVq1eYMWOGR9Ncs9nMra/esWMHVUkqFAooFApERkb2qQjkllsy8ItlBaWlpaKr5syZM8jKyvJoGuvL2PXVq1dTpC6RSJCamso1jt27d1OBFhs1KtbP4+effyZImxnu0KFDuTNtmExSq9VCJpNhwIABotXyL168wKhRoyCRSGA0GqFQKLizfs+ePUuMrMViQUxMjKjn7OrqQltbm0e7K6fTyd1WvvzyS4SGhkIikVCBd3Fxsdf4hluUw8oTWVWdmOe4du0aZSqsZkOn03E9x9atW2mSpFQqRVBQEFcJtmvXLirQYm3ExXQW58+fJy/gTqKJxQLnz5+nEWbumhYxl//+/XusXLmS4ielUon29nZREfORI0cQGRlJHY0aGhq45RKstz7bjv39/blxytGjR2lBscXY0NAgmn15FZ+wQIztTbwVcOXKFcpU2OTF0NBQLs6xePFijxQzJSWFq7ncvn07BcwMRhfTg27cuBEJCQn00QwGA1JTU0XT+YcPH6K4uJhSeRb48ioFFy1aRCJmrVaLlpYWUZJz8+bNFAtIpVLk5eWJes4bN24QaMiIVLvdzpUi3r9/H/n5+ZDL5bTtDRw4sNc7OH36NJYvX07bdJ8yN7vdDrVaTXtufHy8aBp37Ngxj2mVBoMBISEhXLqaDQZwb7XJ+wBr1qyh+2J77+jRoyG2DbGiKYvFApvNhrKyMlHy8cCBA5QuMkY7OjpaVHt77do1lJeXQ6PR0NTv/v37czkf1ttNq9XCbDaL4jyrV69GcnIyNTWWSqUICwvjGsedO3cwevRoAjVtNhsqKys94qFTp05h6NChcDqd0Ov1feMgU6dOpQG7LFDMz88X1U8ePnwYaWlp0Ol08PPzg1arRV5eniiV/uzZMyxcuBAOh4NiFZlMJgofP378GOPGjaOPzYxq2LBhXmOiN2/eUIEWg6kHDhwoWgq5c+dOpKWlkfSAyQTFwLaVK1d6zNNlxij2DtzHuTIk2lvM8e7dOyxcuNBDoSeTyZCYmChKU3R3d2P58uWIj4+HUqmE0+lEREQEZs2a5aHr6ezsRFVVFX0LNjXMw0D27Nnjkd+zzntiK3rhwoUehcBsErUYoNXZ2YmxY8dSWsoUZ2JFWu/fv/do1q9SqaBQKDBlypQ+C4dev36Njo4OJCYmekx3TExMFN3yzp8/T6ks+9ihoaFeeZ+uri50dHR4kG5SqRQ5OTmixr5nzx5kZ2fTNcQQ1QsXLmDgwIHUNYiRjnl5eaJe8Msvv/RQ+Gu1WqxcubIXfcB0JXK5HBqNhsRUDofD00CY3pJBtLm5uR4UN8MI3r59i9OnT2P69OnkshwOBywWCwICArg4x6xZs+ByuTyyHDEo+MGDBxgzZgz0ej3UajXVlpaWllLgt23bNixevBiXLl3C2bNnMWvWLAKZQkNDoVarYbfbRT3hnj17UFxcTIZuNBphs9m89gF5/PgxRowYQZ2O2btgg6efPHmCO3fuoLu7G+/evcORI0fQ0dGBYcOGwWKx0CI0GAxe64O+++47j6mgCoUCJpMJra2tfW75V65cwdKlS1FdXY2EhASo1WrIZDLYbDYEBQX16p60fv16FBcXU3NdtmsolUq0tLR4Gkh9fb2HosndOO7fv4/GxkY0NDSgqKiI3Lw7H+NyubjgzNdff01Uul6vR//+/blpWWNjY69rBQYGekTspaWlJCRmZYnuMv7ExERRUfLKlSuprTUj3xwOh6g2pb6+3sPlS6VSBAYGemQ448aNg8ViQWxsrIeEgEkDtFotGhsb++wxX19fT81yWarMWl71lWKfOHGCgl33Q6vVYsyYMb3wlJMnT3rohiUSCbVDr6yspGvIhf/5l52dLfz666+CWq0WysrKhKqqKgn7b//6r/8q/PGPfxTevXsn/NM//ZMgCIJgtVoFrVYrWCwWQa/XCwUFBcLs2bPpnI//vXnzBv/xH/8hZGRkCKmpqYLL5RJGjhwpDBo0yOs5giAIGo1GyMrKEpRKpfAP//APgtFoFEaOHCk0NjbSeRUVFcKf//xn4Q9/+IPwl7/8RQgICBCCg4MFjUYj/PGPfxTGjBkjjBkzps/rHD16FF1dXYJSqRTi4uKEv/71r4LFYhESEhKEpUuX9nnOq1ev4HQ6hfT0dCE1NVX49ddfBZlMJgwfPlyYMGECndPe3i7813/9F923wWAQpFKp8Oc//1n4P//n/wiTJ08WGhoahJSUFI/rdHZ2QiqVCmlpaYJUKhVCQ0MFnU4naLVaoaGhQcjMzOx1X3K5XMjLyxPCw8MFQRCEv/71r0JUVJSgUqmEkpISobKy0uOcpqYmyX/+53+ip6dH+Lu/+zvht99+E9LT04Xk5GTB6XQKWVlZEkEQBAkAOunq1asICAgQ+vXr1+sGuru78f79e+HXX38VPnz4IISHhwuhoaGCSqUSYmNjhYSEBNEP/X/779WrV/iv//ov4Y9//KPw93//90JycrKQl5fX61q3bt3Cv/zLvwi//fabYDAYBIvFIthsNiExMZF7X8+ePYNUKhUkEonwpz/9STCbzUJ6errPz/PixQvodDohJibG6znv3r3DX/7yF+F3v/ud8Kc//UlISUkRsrOz/5+8s/+bf93d3fjYUAVBEP6/AQDVX5moJef2CwAAAABJRU5ErkJggg==#0#0#4294967295##KGlDb2RlLlFULlRhYlRpcG9zCkZsZWNoYQpwMQooZHAyClMnb3BhY2lkYWQnCnAzCkYxCnNTJ2Zv|cm1hJwpwNApTJzEnCnNTJ2NvbG9yaW50ZXJpb3IyJwpwNQpJLTEKc1MnYW5jaG9DYXNpbGxhJwpw|NgpJMzYKc1MnYTFoOCcKcDcKUydkMmQ2JwpwOApzUydhbmNobycKcDkKSTIKc1MnY29sb3InCnAx|MApMNDI3ODE5MDA4MEwKc1MnZGVzY3VlbGd1ZScKcDExCkk1CnNTJ3Z1ZWxvJwpwMTIKSTUKc1Mn|cG9zaWNpb24nCnAxMwooaUNvZGUuUVQuVGFiVGlwb3MKUG9zaWNpb24KcDE0CihkcDE1ClMnYWx0|bycKcDE2CkkxNgpzUydvcmRlbicKcDE3Ckk4CnNnOQpJMTI4CnNTJ2FuZ3VsbycKcDE4CkkwCnNT|J3knCkkxNgpzUyd4JwpJMApzYnNTJ2Rlc3Rpbm8nCnAxOQpTJ20nCnNTJ3JlZG9uZGVvcycKcDIw|CkkwMApzUydhbHRvY2FiZXphJwpwMjEKSTE1CnNTJ2NvbG9yaW50ZXJpb3InCnAyMgpMNDI3OTg5|Mzk4NEwKc1MnbGlWYXJzJwpwMjMKKGxwMjQKKFMncG9zaWNpb24nClMnbycKdHAyNQphKFMnYTFo|OCcKUydjJwp0cDI2CmEoUydncm9zb3InClMnbicKdHAyNwphKFMnYWx0b2NhYmV6YScKUyduJwp0|cDI4CmEoUyd0aXBvJwpTJ24nCnRwMjkKYShTJ2Rlc3Rpbm8nClMndCcKdHAzMAphKFMnYW5jaG9D|YXNpbGxhJwpTJ24nCnRwMzEKYShTJ2NvbG9yJwpTJ24nCnRwMzIKYShTJ2NvbG9yaW50ZXJpb3In|ClMnbicKdHAzMwphKFMnY29sb3JpbnRlcmlvcjInClMnbicKdHAzNAphKFMnb3BhY2lkYWQnClMn|bicKdHAzNQphKFMncmVkb25kZW9zJwpTJ2wnCnRwMzYKYShTJ2Zvcm1hJwpTJ3QnCnRwMzcKYShT|J2FuY2hvJwpTJ24nCnRwMzgKYShTJ3Z1ZWxvJwpTJ24nCnRwMzkKYShTJ2Rlc2N1ZWxndWUnClMn|bicKdHA0MAphKFMncG5nJwpTJ2MnCnRwNDEKYXNTJ3NpTW92aWJsZScKcDQyCkkwMQpzUydncm9z|b3InCnA0MwpJMQpzUydwbmcnCnA0NApTJ1x4ODlQTkdcclxuXHgxYVxuXHgwMFx4MDBceDAwXHJJ|SERSXHgwMFx4MDBceDAwIFx4MDBceDAwXHgwMCBceDA4XHgwNlx4MDBceDAwXHgwMHN6elx4ZjRc|eDAwXHgwMFx4MDBceDA0c0JJVFx4MDhceDA4XHgwOFx4MDh8XHgwOGRceDg4XHgwMFx4MDBceDAw|XHRwSFlzXHgwMFx4MDBceDBlXHhjNFx4MDBceDAwXHgwZVx4YzRceDAxXHg5NStceDBlXHgxYlx4|MDBceDAwXHgwMFx4YjFJREFUWFx4ODVceGVkXHhjZUFceDBlXHg4MjBceDE0XHg4NFx4ZTF5XHgw|ZlxuRGNceGEyXHhjNFx4ZDBceDk0XHg5ZVx4YzRceGIwXHhmMSxceDgwXHgxY1x4YzFceDgzeVx4|MTM4RldceGNhXHhjMkRJXHhkNFx4OTVceDg5Xlx4YTBceGVkXHhlMlx4ZmRceGJiWVx4Y2RceDA3|SFFceDk1XHhhNlx4ODdceGM0XHhlYVx4YTNceGNmS1x4ZmVceDFkSVVceGFlXHhkZVx4OGZceGU3|XHg4NVx4YWRceDE5fCJceGZlYmtceDA2XHhkZVx4ZWZmQVx4MDgiTlx4ODRceGE5XHhmYVx4OTBc|eDg4XHg5MyBceDA0XHgxMVx4MWZceGMyVD1ceDk3XHhkYlx4OTlceDhkXHhlZVx4MDIidFwnXHgw|OEFceGM0XHg4Ylx4YTh1XHgxYlx4MGVRXHhlYjYuXHgwNFx4OTFceDAzXHg5MFx4MDVDXHgwMFx4|OThceGE4XHhjOEdceGVmXHgwMFx4MTA5XHgxME1ceGI0WVx4ZGZceGMxXHhiY1x4MDBofFx4MTMy|Klx4ZjJceDExTFx4MGJceDgwXHgxN2VceGVhXHhlYVx4MWJceGYwXHhhZCFceGE1blx4YTRSXHgw|N1x4ZTBceDFjXG5ceDgxXHhkMFx4ZTdceGYxXHhmNVx4MDFceDgxSEJcdCFyXHg5YT1ceDAwXHgw|MFx4MDBceDAwSUVORFx4YWVCYFx4ODInCnA0NQpzUyd0aXBvJwpwNDYKSTEKc2Iu|#KGlDb2RlLlFULlRhYlRpcG9zCkZsZWNoYQpwMQooZHAyClMnb3BhY2lkYWQnCnAzCkYxCnNTJ2Zv|cm1hJwpwNApTJzEnCnNTJ2NvbG9yaW50ZXJpb3IyJwpwNQpJLTEKc1MnYW5jaG9DYXNpbGxhJwpw|NgpJMzYKc1MnYTFoOCcKcDcKUydkMmQ2JwpwOApzUydhbmNobycKcDkKSTIKc1MnY29sb3InCnAx|MApMNDI3ODE5MDA4MEwKc1MnZGVzY3VlbGd1ZScKcDExCkk1CnNTJ3Z1ZWxvJwpwMTIKSTUKc1Mn|cG9zaWNpb24nCnAxMwooaUNvZGUuUVQuVGFiVGlwb3MKUG9zaWNpb24KcDE0CihkcDE1ClMnYWx0|bycKcDE2CkkxNgpzUydvcmRlbicKcDE3Ckk4CnNnOQpJMTI4CnNTJ2FuZ3VsbycKcDE4CkkwCnNT|J3knCkkxNgpzUyd4JwpJMApzYnNTJ2Rlc3Rpbm8nCnAxOQpTJ20nCnNTJ3JlZG9uZGVvcycKcDIw|CkkwMApzUydhbHRvY2FiZXphJwpwMjEKSTE1CnNTJ2NvbG9yaW50ZXJpb3InCnAyMgpMNDI5Mjg3|Njc5OUwKc1MnbGlWYXJzJwpwMjMKKGxwMjQKKFMncG9zaWNpb24nClMnbycKdHAyNQphKFMnYTFo|OCcKUydjJwp0cDI2CmEoUydncm9zb3InClMnbicKdHAyNwphKFMnYWx0b2NhYmV6YScKUyduJwp0|cDI4CmEoUyd0aXBvJwpTJ24nCnRwMjkKYShTJ2Rlc3Rpbm8nClMndCcKdHAzMAphKFMnYW5jaG9D|YXNpbGxhJwpTJ24nCnRwMzEKYShTJ2NvbG9yJwpTJ24nCnRwMzIKYShTJ2NvbG9yaW50ZXJpb3In|ClMnbicKdHAzMwphKFMnY29sb3JpbnRlcmlvcjInClMnbicKdHAzNAphKFMnb3BhY2lkYWQnClMn|bicKdHAzNQphKFMncmVkb25kZW9zJwpTJ2wnCnRwMzYKYShTJ2Zvcm1hJwpTJ3QnCnRwMzcKYShT|J2FuY2hvJwpTJ24nCnRwMzgKYShTJ3Z1ZWxvJwpTJ24nCnRwMzkKYShTJ2Rlc2N1ZWxndWUnClMn|bicKdHA0MAphKFMncG5nJwpTJ2MnCnRwNDEKYXNTJ3NpTW92aWJsZScKcDQyCkkwMQpzUydncm9z|b3InCnA0MwpJMQpzUydwbmcnCnA0NApTJ1x4ODlQTkdcclxuXHgxYVxuXHgwMFx4MDBceDAwXHJJ|SERSXHgwMFx4MDBceDAwIFx4MDBceDAwXHgwMCBceDA4XHgwNlx4MDBceDAwXHgwMHN6elx4ZjRc|eDAwXHgwMFx4MDBceDA0c0JJVFx4MDhceDA4XHgwOFx4MDh8XHgwOGRceDg4XHgwMFx4MDBceDAw|XHRwSFlzXHgwMFx4MDBceDBlXHhjNFx4MDBceDAwXHgwZVx4YzRceDAxXHg5NStceDBlXHgxYlx4|MDBceDAwXHgwMFx4YjJJREFUWFx4ODVceGVkXHhjZUFceDBlXHg4MjBceDE0XHg4NFx4ZTF5XHgw|ZlpceDg4XHhjNkRceDg5XHhhMSk9XHg4OWFceGUzWVx4MDA5XHg4Mlx4MDdceGYzJnBceDBjVlx4|Y2FceGMyRE1ceGQ0XHg4NTFceGQxXHgwYlx4YjRdXHhiY1x4N2Y3XHhhYlx4ZjlceDAwKVx4YTZS|XHhhNDtceDkzXHhiOFx4YmRceGNmT1x4ZmVceDFkRVIuXHhlZVx4YWZceGRiXHhjOVx4YjJceGVi|fSJceGZlXHhiMlx4ZWNceGZhXHJvZ0FceDA4IkpEXHhjOVx4YjZceDBiXHg4OThceDA4Qlx4MTBc|eGQxIUpceGI2XHhkZFx4OWFceDhiXHhkOVx4YjBtXHg4MyFceDBjXHhkYlZceDEwXHg4Mlx4ODhc|eDE4UTVceDAxXHgxMVVceDEzXHgxNVx4ODJAXHgxM1x4MDBceDFkXHgwY1x4MDFgXHhjYyhceDFm|XHhiY1x4MDNceDA4NFx4MTFoXFxceGQyXHhlYVx4Y2FceGUwXHgwN1x4ODBceGRhXHhiN0FnXHg5|NFx4MGZceGY0OVx4N2YqXHhkMmdceGRmXHg4MG9ceGI1InVJSU1ceDAwXHg4ZVx4YTFceDEwXHgw|OH1ceDFlX29ceDg1XHhhYkJcdFx4MWFceDkxXHhhYShceDAwXHgwMFx4MDBceDAwSUVORFx4YWVC|YFx4ODInCnA0NQpzUyd0aXBvJwpwNDYKSTEKc2Iu|#iVBORw0KGgoAAAANSUhEUgAAAEAAAABACAIAAAAlC+aJAAAAA3NCSVQICAjb4U/gAAAACXBIWXMAAA7EAAAOxAGVKw4bAAAQqklEQVRogdVaSY8cR3aOyIzcl8qq6mY3STU5kkZyU6vJOYg+SLIO1gIBBAhIF/8AA4Z/g331H/BFukgQBAGCDWl0IECbNARtmBlCXMdkSxraWrh0d1VXdWVVVq6RGT58rZquzCiKsg+DiUN3V/ariHgR733ve+8l/cf//PUOL8if51hiGtvhxV2e/al38n8fyp96A//f8WevANv/QVz75rHOgZrEJJpsb2/nWW4Y+nQ69TxfZerB1VVN02uSW9tbu7u7lmmFYWjbFmOaYRiHDh2qiQkhbt68yTQ2jaaGYRRF3moFlmV1Op2aZJLEt2/f5mWp6/pkMmkH7aqqxram/+oJuQKPdQ7889/9Q22Wq1evXrhwod1uh2FoGIau64qiPPvssysrKzXJDz/8cDqdUkqFEJzzVqtFCDl9+nRNLE3Td999V1EU3/dHo5HneZqmHT58+JlnnqlJbmxsfPHFF61Wazwem6apKIplWf928bfRPhlGfmowxtrtdlmW7XZbUZSyLBVFEUI0JV3XzfNc07SyLB3HEUIoisREFUXRdd33/aIout2uEAJzNiVVVQ2CgHPe7XbLslRVlXNOFTo3G35t/e5iVUn2BAUopYqiMMaqqmKMJUlSVVVTUtM06KZpmqZpnPMsk+Ob4zhZlimKoqoqvhjHsXRCzCaEYIwJIaqqKoo50N9TgJl6VUr2RAipqipNU6jBGMuyTNO02iwYeZ7jnAzDiKJI13XOeVNMCJGmaVVVjuNwzhlj0+kUmtQG55xzLoTQdR0XRQip7XNPgaWnn2SaZApCSFmWnudlWaaqap7nuFPTNJuSjDFFUSilWZb5vg9DaoqpqiqEsCwrjmPTNMuyhLdIVTVNs6oq7N73/aqqDNOQKHCP4bru7u6uaZr9fp8QEoahpmlRFDUlKaWqqk4mk7Ish8Ohruuj0agpBmuM4xhilNIkSfI8ly49Ho81TRsMBoSQ0WgEOJpb9O///V9nkXjtq1t/+1fPw+Kn02kQBFiMUprnuaIouHFCSFmWaZrquj4ejy3LYozZto2jgqVSSimluPQsy6qqUhQlz/OlpSVFUcIwXF5e7vV6vu+naappGiEEexVCxHEcBAGlVNd1Qkie57h8XderqvqXM7/u/+UvseFDzJhDoTAcf/XVV77vJ0nCGNvZ2WGMnThx4ujRo7Wz+fTTTzc3NwkhuFzs/tSpU9jK/vH++++nadput4fDoW3bw+Gw0+k899xzhJCHHnpoJtbr9S5evOh5XhzHuq5vb2/btn3s2LFHHnmkNuHS7z7v7/u4p4CoKkIpocR13aIoXNfF5gghtSvDgA/gwPA37qSpgKIoQRBkWdZqtSilnPM0TZsTCiFc182yLAiCPM8ZY0VRSKGpPj9+DX5/oyoFwFFRFOC9qqpZlkn9VQiBgMUYg1hZlrjx2tA0LU1TmGJZlsBi6VY45wAuYDEg+34V8B88qjLF0HVYNiHEMAwgpvQGsHtFUUzTjOPYsqw0TaWOCE8AYgLvpdgK9SilmqbN/p5Op/ergO57hJAsy+FVlNI0TVutFuxbui3Ezslk4nnePaCQc27b9ng8NgwDKLwI8i3LAupnWea6blVV0qXlCmB4vtfr9QzD6Pf7QojhcKgoyj0MMYqisixnGCelA0AqSmmv16OUTiYTaRD0PG8wGOi63uv1CCGDwUDTtPu5gTkjUxX1lVde4ZwDtgCgg8HgzJkzuq4XRcE59zzPNM3l5eXl5eUZusEqLl26NJ1OwTUURWm1Woyx9fX1TqfT6/U6nc5oNHJdN03TM2fOaJoGXgBeZBjGyy+/PENb/HcymUCyLMuiKDzPMwxjOBySBwK5Ap7nPfDAAzUVwzCM4xg0syxLWOejjz7a7XZrkjdv3uz3+0EQjEYj27axuZMnTxJCIAwCm+f5559/7nleURSKoiRJkqbp0aNH19bWahN+/fXXuARoBcjm5ZwL7V06T1OxgMwZhgG2qKqqaZqMsTzPkySRCgPIXdeFIy4yP8uygG+qquq6XpalNLQbhgFzIITMkD2azEnuKdC/eIXnEnAghGAKIYSqqqAAhBBKaVNSVdU0TVVVBRWllErNvaqqqqpgJAjYeZ5LJ8zz3DCMoigMwxBCFEVRFAVjcxiwH0blZA7rIZnA6YIJS1UFYlZVpapqURRSIIfn7Gfd+CldHTqA/xqGAbYiUcA5dFBhcmJnWRZY2nA4BJyDazQlNU3zPG93dxf24/u+NB+glIJ6lGWZZZllWWTBlcJihRBhGJqmiWidpnNz/nSoS9OUcx7HMWNsc3PT9/3pdCq9gaIohsOhYRibm5u4Lum5Atk6nc729rbneVEUQbgpmWUZiCDw1/f9OI4Vhe6P5HNstHvpm78++kvQIXB6wzDW19fb7TZMYnbjly5d2t7eVhQFxAaSx48fdxwHsRw+yjn/+OOPp9Op4ziTyYQxtrS05DjO+vq6aZrIMUBgp9Pp+fPncWmIfY7jPPjggwcOHEAmCXak6/o/vfXmfz+0V3mos9GiyE3TBLrB4MDUm1HWNE2EanhFURRpmtq2bVkWTGKWyhRFgb3CBqIoopS2221CCCRn9wxognMrijKZTGaVgf2jxrj2LCHu9UUlZgwegKOqKj42R57nruti94QQiC2CJgQ7ADHOuymmKEpRFLNkDWRx0eoSBdKdoSBEZYz+OMAiCSFSR7RtGxwTYVJV1SiK7pHpw44ZY2maLvJs2CfCf1mWnHMpCssVsA+uUEqTOAFLgynDNqQkOY5jIYTjODOGjDpKUxIer+s6EB2Y1hTL8xxrwXOQCv8MOm22A0qJ3/IRtnq9HnTwPE+KmKZp2ra9u7tLfuSb4LBNSc/zcJZJksCvpPvwPI/8CFAg557nSVMfuQIYaZJyzsExNzc3syzb3d2VLpnn+Wg0opT2+/0kSQaDQVEUUpOdccyiKLa2thaxBiBmkiSc883NTSDyIm33jzkYPXZ71CwtXrly5eLFi6ASURQtLS0ZhvHCCy8ASfaPjz766O7du+12u9/v27bteZ7jOK+++mpT+TfffHMW5oQQKysra2trJ06cqElubGx89tlnqqqqqjoejwGp//GHGwuTeunwfV/X9SAIxuPx2toaGE4cx00FXNddXV3N8xwFXUVRFlXmVldXq6pCuQl5zKKyim3brVYrDMOjR4+CCNcyxB9hdGtb5oGEEBKGoe/7URQBMQF2UklQA03TVFWFP0htAGJIu++NmFh6PB4jN4RYbfU9BXqXrpa5HLPgx8jKEYajKJJSCYQqbB0MfhGwYiqATFVVyCSbkjg41BUJISCkgsjI3JG/eUHV6xURDFwuEBO0FgDVlIzj2DAMSikKho7jSA0DWRFjDFgJtaWqoiar6zrcAH/n2dycewoomibDQEIIQYVsPB6XZZkkCXjOfhYwG0jbOeegPXmeS8Vm2QJ4axRFwNDmUFUVKVuSJDDdZll2vkMjRBRFYBDg9NgWpRQUGrtHyRJVXvJj/QsRtyYWhmGWZVgbYRW1MMuyPM8bjUZlWZqmiYtCjbooCtRsZnQGvAuUxHGcWlyaU+C777595513kFJFUdRut8Exm12Wc+fOnTt3rtVqDYdDy7Js22aMnTp1qnnkb7zxBqI7bH1lZcV13ddff70mdufOnbfeekvXdU3TxuNxt9tljD399NPNpb+4+/3GIgV8v+V5Hk6x3W6jEiiNr0EQHDx4sCiKw4cPQ2BRl+XQoUPwjSRJgJiGYTTFXNdttVpINmaI2RRrjr0lRze/FYJE0wiFLaTbYCPSVANdMCAmegJFUUhdFllEURSO44AmSiNxFEWtVms6nbqui4olIeRnUIk8nCBJnU6n6IigqB3HsbRJgZ2hugh0AzNtiqH8D/jinFdVJWWHhmGEYYgWCUApz3NpWVauwIFfPaUoVFVUJKyzLzuOE4Zh82sA01nrCjFVyn5BRUH0TdNE/0aqJxygLEsECtM0x+Px/SqAAeSZTqdlWYIGL0JMNLbQqkA3ZFEdE/Q2DENKaRiGtm0vMm6cOngKblW6dH0n+z9YlhkEgW3bSOGFEKBcP/zwA6oak8kEOZ6u62tra2jboMgTx3EYhjs7O4ZhjMdjbNSyrG63i76QruuO4wAcb926BdOCraKB0Ol0XNdF6K2qCvThu+++g9VNJhMAd1mVCxUIgvaLL75YU/Hy5ctnz56dFQxRIDp58uSTTz5Zk/zggw8mkwmwKMuypaUlzvlrr71WE0vT9O2334Y+o9EIjawjR4689NJLNcnr16+fP38eWsGkfd+/fesWOfLHquZPs1HDMLrdbp7nBw4cAFaCCDQlW60WnCdNU9/3F3mhqqrgmGmarqysIMxJCaJhGEEQFEWxvLyMCleSJIZh7ofFPR/YuXr9Ho3uqqoAI7OEVQpw8Nc8z2E/qCw0xaqqQoVn1kkBA1i0NAol+AnqMbfo3i+NkQV8GlV1GDp8C3AulUySBDEEGaY0tBFCYGmz9jXKFk2xLMuEEGAQWJdzzrS5y99boPPYXyiqfDH4Imo16MTMmHBtoEePmiFAVrotxD5ENzAo13WlNTx4PLg38J0QUjuUn250W5aFDu7Ozg6g0DRN6Y1j6ul0yjlHb1wK5Ggi5nme5/l4PMabB9KEBg04LIp+h67rtbbN3EEmSfzll19igSiKOp0OIsNTTz2FWIvKBwr/ly9fZoxNJhNUSjzP63Q6rVYL1WxEruXl5Rs3bqRpikQHjW5CyNra2tLSUr/fnzW6GWMXLlxALwI1PzCDJ554ArxotvRSt7uzSIHBYHjt2rWZh92+fdu27ccff/zYsWO1s/nkk0/u3Lkz4xHAnNOnTzfZxHvvvVcUBXir53l37txZWlp6/vnnCSHr6+szsa2trbNnz9q2jaQUtvrwww8fP368NuEHly8sVIAQgtd4AF6op0opGl4/QgcFNXcUepsKMMbwcg3ukywo9VFKUUcLgiBNU8dx8DJFU7I29nxguPE1IWQWVpE7z1ob0m/Omg7gXlmWSV0WpXNN04Bdi7JHZFtoTqOGBypwvwowyxKCUGUvAUAtFitJK3PgZKBf6GcuKo0A/pADwJSlnA97xX2ikIoS//0q4P/iCKWk5NyyLOSTeGNCCCFlaUIIICaq6oQQ13UXsTRd1/H2SFVVrutKWTdyyFk30rIsVVXvh8zNN7o9fzgc4j0VIcQs6W5+bdaEzPMc7/xIWTd2D2seDAZoZEgvCh0QZPplWY5GI0DcTyow58Qbu73hcMhLjpPQNb0SVbBxbfnL39S+trm1GUWRqih5Xui6XvCCUnr97bDpBhsbN4J2u9/rtzvtMAwRs36zdasmFk2jra0thSqVqHjBdV3jvAyC1kfXLtYnHPb2N7rnaqOzAYusmcTk9qZ7eLX2UFQVoUrNduK7d4yVwzV6JqqKzuOBEGLy/W3/F2u1h82lo9ubzr6l80lUFZwQ8WB3eQFX+f7W4Pofag+z3dHo5ve1hztXfs+zOacUQvS+vFIWcwhYpdO7v73aXCgb1Y1k/O33O//1Te1hHk5G3/zPH2cruNkJjHaQjSfyG6iKQgihzttDmWWKptde2yyzTDGMmvPyOFYbjQyeZWy+HiGE4Emq2XOemu4MSl45q8v7HxZxTKnCrD1yng53jXZQ5fkqYWyJySqKTFL5+BkP/fuW1BoJw2r9VeXmhKK7nI0nqq4fbLX+F1hlo++np2B8AAAAAElFTkSuQmCC#0#'
p8
sa(dp9
g3
VBook Engraved
p10
sg5
VBook Engraved#Mongolian Baiti#N#125#100#2#100#100
p11
sg7
S'4290091135#4294967295#4294967295#KGlDb2RlLlFULlRhYlRpcG9zCkZsZWNoYQpwMQooZHAyClMnb3BhY2lkYWQnCnAzCkYxCnNTJ2Zv|cm1hJwpwNApTJzEnCnNTJ2NvbG9yaW50ZXJpb3IyJwpwNQpJLTEKc1MnYW5jaG9DYXNpbGxhJwpw|NgpJMzYKc1MndGlwbycKcDcKSTEKc1MnYW5jaG8nCnA4CkkyCnNTJ2NvbG9yJwpwOQpMNDI3ODE5|MDA4MEwKc1MnZGVzY3VlbGd1ZScKcDEwCkk1CnNTJ2ExaDgnCnAxMQpTJ2QyZDYnCnAxMgpzUyd2|dWVsbycKcDEzCkk1CnNTJ3Bvc2ljaW9uJwpwMTQKKGlDb2RlLlFULlRhYlRpcG9zClBvc2ljaW9u|CnAxNQooZHAxNgpTJ2FsdG8nCnAxNwpJMTYKc1Mnb3JkZW4nCnAxOApJOQpzZzgKSTEyOApzUydh|bmd1bG8nCnAxOQpJMApzUyd5JwpJMTYKc1MneCcKSTAKc2JzUydkZXN0aW5vJwpwMjAKUydtJwpz|UydyZWRvbmRlb3MnCnAyMQpJMDEKc1MnYWx0b2NhYmV6YScKcDIyCkkxNQpzUydjb2xvcmludGVy|aW9yJwpwMjMKTDQyOTQ5NTkxMjlMCnNTJ2xpVmFycycKcDI0CihscDI1CihTJ3Bvc2ljaW9uJwpT|J28nCnRwMjYKYShTJ2ExaDgnClMnYycKdHAyNwphKFMnZ3Jvc29yJwpTJ24nCnRwMjgKYShTJ2Fs|dG9jYWJlemEnClMnbicKdHAyOQphKFMndGlwbycKUyduJwp0cDMwCmEoUydkZXN0aW5vJwpTJ3Qn|CnRwMzEKYShTJ2FuY2hvQ2FzaWxsYScKUyduJwp0cDMyCmEoUydjb2xvcicKUyduJwp0cDMzCmEo|Uydjb2xvcmludGVyaW9yJwpTJ24nCnRwMzQKYShTJ2NvbG9yaW50ZXJpb3IyJwpTJ24nCnRwMzUK|YShTJ29wYWNpZGFkJwpTJ24nCnRwMzYKYShTJ3JlZG9uZGVvcycKUydsJwp0cDM3CmEoUydmb3Jt|YScKUyd0Jwp0cDM4CmEoUydhbmNobycKUyduJwp0cDM5CmEoUyd2dWVsbycKUyduJwp0cDQwCmEo|UydkZXNjdWVsZ3VlJwpTJ24nCnRwNDEKYXNTJ3NpTW92aWJsZScKcDQyCkkwMQpzUydncm9zb3In|CnA0MwpJMQpzUydwbmcnCnA0NApTJ1x4ODlQTkdcclxuXHgxYVxuXHgwMFx4MDBceDAwXHJJSERS|XHgwMFx4MDBceDAwIFx4MDBceDAwXHgwMCBceDA4XHgwNlx4MDBceDAwXHgwMHN6elx4ZjRceDAw|XHgwMFx4MDBceDA0c0JJVFx4MDhceDA4XHgwOFx4MDh8XHgwOGRceDg4XHgwMFx4MDBceDAwXHRw|SFlzXHgwMFx4MDBceDBlXHhjNFx4MDBceDAwXHgwZVx4YzRceDAxXHg5NStceDBlXHgxYlx4MDBc|eDAwXHgwMFx4YjNJREFUWFx4ODVceGVkXHhjZTFceDBlXHg4MkBceDE0XHg4NFx4ZTF5XHgwM1x4|MGJEY1x4YTJceGM0XHhiMFk4XHg4OVx4YTFceGYxLFx4ODBceDFjXHhjMVx4ODN5XHgxMzhceDA2|XHg5NVJceDk4KFx4ODlaXHg5OVx4ZThceDA1dlx4YjdceGQ4XHhiZlx4OWJqPiBceGU0U3FceDhj|Q1x4YTVceGEzXHhhM1x4Y2RPXHhmZVx4OGUiXHg4ZlZceDhmXHhlN1x4ZmJSXHgxOVx4ZjY2XHgx|MVx4N2ZVXHg4Nlx4ZmR+XHhjNzkgXHgwMlx4YzJLXHg4NClceGQ4XHhiOURceDljXHgwMiIgXHhi|Y0NceDk4XHg4Ml1ceGJlXHhlNWw0W3dceDA4XHhjZDYgXHgwMlx4YzJbRFx4YTlceGQ5OENceDk0|XHg5YVx4OGRXXHgwOFx4MTFMXHgwMFx4MTJnXHgwOFx4MDBjXHg5Nlx4Y2FgXHgxZCBceDgySVx4|MDRceGUzZi13XHgxMlx4MGJceDgwXHhkYVx4YjYhXHhjOVJceDE5KFhceDAwXHhiY1x4MTIlV1x4|ZGJceDgwb1x4YjVSclNceGIxTFx4MDBceGNlXHhhZVx4MTBwfVx4ZWVfXHgxZlx4OGJceGZhQlx0|a1x4MDdceDE5XHhjMlx4MDBceDAwXHgwMFx4MDBJRU5EXHhhZUJgXHg4MicKcDQ1CnNiLg==|#4278190080#4278190080#False#KGlDb2RlLlFULlRhYlRpcG9zCkZsZWNoYQpwMQooZHAyClMnb3BhY2lkYWQnCnAzCkYxCnNTJ2Zv|cm1hJwpwNApTJ2EnCnNTJ2NvbG9yaW50ZXJpb3IyJwpwNQpJLTEKc1MnYW5jaG9DYXNpbGxhJwpw|NgpJMzYKc1MnYTFoOCcKcDcKUydkMmQ2JwpwOApzUydhbmNobycKcDkKSTIKc1MnY29sb3InCnAx|MApMNDI5NDk1OTEyOUwKc1MnZGVzY3VlbGd1ZScKcDExCkk1CnNTJ3Z1ZWxvJwpwMTIKSTUKc1Mn|cG9zaWNpb24nCnAxMwooaUNvZGUuUVQuVGFiVGlwb3MKUG9zaWNpb24KcDE0CihkcDE1ClMnYWx0|bycKcDE2CkkxNgpzUydvcmRlbicKcDE3Ckk5CnNnOQpJMTI4CnNTJ2FuZ3VsbycKcDE4CkkwCnNT|J3knCkkxNgpzUyd4JwpJMApzYnNTJ2Rlc3Rpbm8nCnAxOQpTJ20nCnNTJ3JlZG9uZGVvcycKcDIw|CkkwMQpzUydhbHRvY2FiZXphJwpwMjEKSTE1CnNTJ2NvbG9yaW50ZXJpb3InCnAyMgpJLTEKc1Mn|bGlWYXJzJwpwMjMKKGxwMjQKKFMncG9zaWNpb24nClMnbycKdHAyNQphKFMnYTFoOCcKUydjJwp0|cDI2CmEoUydncm9zb3InClMnbicKdHAyNwphKFMnYWx0b2NhYmV6YScKUyduJwp0cDI4CmEoUyd0|aXBvJwpTJ24nCnRwMjkKYShTJ2Rlc3Rpbm8nClMndCcKdHAzMAphKFMnYW5jaG9DYXNpbGxhJwpT|J24nCnRwMzEKYShTJ2NvbG9yJwpTJ24nCnRwMzIKYShTJ2NvbG9yaW50ZXJpb3InClMnbicKdHAz|MwphKFMnY29sb3JpbnRlcmlvcjInClMnbicKdHAzNAphKFMnb3BhY2lkYWQnClMnbicKdHAzNQph|KFMncmVkb25kZW9zJwpTJ2wnCnRwMzYKYShTJ2Zvcm1hJwpTJ3QnCnRwMzcKYShTJ2FuY2hvJwpT|J24nCnRwMzgKYShTJ3Z1ZWxvJwpTJ24nCnRwMzkKYShTJ2Rlc2N1ZWxndWUnClMnbicKdHA0MAph|c1Mnc2lNb3ZpYmxlJwpwNDEKSTAxCnNTJ2dyb3NvcicKcDQyCkk1CnNTJ3BuZycKcDQzClMnXHg4|OVBOR1xyXG5ceDFhXG5ceDAwXHgwMFx4MDBccklIRFJceDAwXHgwMFx4MDAgXHgwMFx4MDBceDAw|IFx4MDhceDA2XHgwMFx4MDBceDAwc3p6XHhmNFx4MDBceDAwXHgwMFx4MDRzQklUXHgwOFx4MDhc|eDA4XHgwOHxceDA4ZFx4ODhceDAwXHgwMFx4MDBcdHBIWXNceDAwXHgwMFx4MGVceGM0XHgwMFx4|MDBceDBlXHhjNFx4MDFceDk1K1x4MGVceDFiXHgwMFx4MDBceDAxXHhiOElEQVRYXHg4NVx4YzVc|eGQ3XHhjZE5ceGQ0UFx4MThceGM2XHhmMVx4ZmZ7XHg5OFx4YjhkXHhjMWJ0akVceDg0XHgwNC5c|eGMwIHFDXHgwMlx4ODkuXHhiY1x4MDQuQDZsXHhiOVx0d1x4YWVceDhjW1x4MTZceGRjXHgwNCZs|XHg4ZEZceGQ5XHhiMCExXHhhNFx4OGNjXHg4YnBceDAxXHg4NFx4YTRceGVkXHhjM2JceDE0Jlx4|OTRceDBlLVx4ZTFceDFjXHhkZVVceGNmR1x4ZGVceGU3XHhkN1x4ZDNceGE2SVx4ZTFceDgxXHhj|Ylx4ZmVfXHhlOFx4ZDdceGUzLlx4MTNuXHJceDg3OFx4ZDdceGI2XHhjZFx4MWZceDlmXHgwNlx4|MDNceDBjXHhjM21ceDBmXHhiM2hceGE4UVx4OGFceGRjXHhhYVx4Y2RceGE2XHgwN1x4YmVceDAx|XHgwZVx4ODBcdFx4Yjd2XHgxOVx4MGVgXHgxNmFceGRhXHhkNWFceGI0XHgxMFx4MDZceGUwUGVc|eGM1XHhlOFx4ODVAXHgwY1x4MDFceGU3XHhkYUZKXHgxZlx4MDJceGUxXHgwMGxceGZlXHhmOFx4|MTRceGI5VURceDE2XHgxYWFceGEzXHgwM1x4MWRGXHgwYlx4OTh2MXpceDk1XHg5ZCJDXHhiNnJc|eGRmL1x4YTZdXHg5Zlx4MDhceDhkXHhhOFx4MDBCI25ceDA0XHg4NERceGQ0XHgwMkIhXHhjNlx4|MDJCIG5ceDA1XHhmOEY0XHgwMlx4ZjhENFx4MDZceGY4Qlx4YjRceDAyNEJ0XHhkYyt7XHhmNmdc|eGQwXHhiNFx4OWZrXHgwYlx4YjBceGQ5XHhmNFx4MDBceGQ5Slx4ZWRnOy82XHhkYVx4ZjRrXHJc|eGI4XHgxZGFceDkzXHhkZVx4MDFceGI1XHgwOFFceGEwYlx4YWJVXHg5Zlx4YmJceDAyLjNceDdm|P1x4OGRceGM5XHg4YlxyXHhjYyZRXHhiMWUvTlx4YmVceDA2XHgwNTQpXHhmNVx4ZTMpXHhjOFx4|ZTdceGEwXHhiM29ceGQzXHg4M1x4YjNceGQxXHhiNTs/XHg4Mlx4YzZceGUxSVx4YjRJXHg5OWdc|eDk0XHhmNlx4OGRceGIySHRceGQ0e1x4MTlceDBjXHhhMFx4YTNceGY4M1x4ZThceDAzXHhkOFx4|YTNceDdmU11KPklXXCdceGVmXHJceGEwJFx4ZGFEXHhjNVx4ZmJceGNhXHg4Mlx4YjFIXHhkMl1c|eGJhXHgxYVx4ZmFceDA4XHhlZlx4YzdTXHg5NHk2clx4ZTdceGQ3XHhhYVx4ZGNceGIxXHg5OVx4|YmZvXHhjMVx4ZGJcdFx4ZTRzXHhmNVx4ZTFceDAwXHhlZVx4OGRceGZhXHhmMVx4YjJHQGdceDFm|OFx4MTlceGJiXHhhNSw+elx4MDNceGQ4XHhmNFx4ZTBceDBjXHhlM1x4MWRceGUye1x4ZmQuXHhj|OVx4MWJceDAwXHhjMFx4OWVnP1x4OThceGM5XHg5NlBceGYxXHgxYVx4ZTlLXHhlNVx4ZDdceGM3|dVx4ZDZ9ZVx4ZGZYXHhlYVx4YzdceGNiSnp7Slx4OWVceGZjVFx4MWEvXHgwNlxyXHgxZldceDE3|USFceGVlXHhmZFx4ZjlceGVhXHhjOEFceDAwXHgwMFx4MDBceDAwSUVORFx4YWVCYFx4ODInCnA0|NApzUyd0aXBvJwpwNDUKSTIKc2Iu|##iVBORw0KGgoAAAANSUhEUgAAAIgAAACGCAYAAAAGsMIiAAAACXBIWXMAAAsTAAALEwEAmpwYAAAABGdBTUEAALGOfPtRkwAAACBjSFJNAAB6JQAAgIMAAPn/AACA6QAAdTAAAOpgAAA6mAAAF2+SX8VGAABSz0lEQVR42uS9Z3CUZ5Y2/HTOuVsttXLOEkqgLISEhAJKSCAEAoTIYDKYIDDBZAPGgEkmGTCYDCaabCyywIgotmq2tsozVTsbZna3dn54dt/r+7P3mW6kfu7et+r99VH11FSN+9GTzn3uc67rOudIAAj/f/33/v17xMXFScR+093djZSUFMn/9m8fOHAAer1eiI6OFtLS0nw6v6urC//93/8t9O/fX/L/8rk/fPiAmJgYn64hcTeQ+/fvo6CgoM8TOzs7cejQIeGf//mfhZSUFCErK0uorq7u87fHjx/Hq1evhJ6eHsHpdApRUVHCoEGDhH79+vX5+7dv36Kzs1P43e9+J/z222+CWq0WTCaTsHDhwj5/f/PmTVy4cEH405/+JISEhAhGo1EICQkRWlpavD70Tz/9hGvXrgk3btwQfv/73wsGg0GIiooScnNzhaVLl/Y678qVK7hw4YLQ2dkphIaGClFRUcLvfvc7ISIiQmhra+vzWdauXYt3794J//iP/yj88ssvgslkEgRBEGpra4Uvvviiz3vbsmULLly4IPz7v/+78Ic//EH4t3/7N6GlpUU4cOCAxJsRnTx5Uvj111+F3377Tfj9738v1NbWCp9++qnoB+/s7MTly5eF27dvCxKJRIiPjxfy8vKE9vZ2cUMBIAAQJk6ciLS0NPz8889g/x879uzZg/j4eEilUkgkEkgkEsTGxvb6HQBh06ZNiIuLg0KhgCAIUCgUCAkJwbZt2/r8/aVLl1BRUQGr1QqdTgeVSgWdTofw8HB0dnb2OufOnTvIzc2FIAgQBAF2ux0ymQx5eXl49epVr98/ePAAixcvRnx8PNRqNQRBgEQiQUBAAPz9/bFnz55e5yxZsgQxMTFQqVR0HblcDkEQUFFRga6uLnx8jUmTJsFsNtPfZ+cJgoCxY8f2+ezjx49HcHAwJBIJ/Pz8oNPpIAgChg8fjp6enj7PWb9+PYKCgiAIAmQyGQRBQGNjY5+/ZcebN28wbtw4qFQqyOVymEwmCIKArKws0fMA/M1ARowYgZkzZ/Y6Yfny5XRDer0egiBApVJhxIgRvX67YsUK2O12CIIAi8UCo9EIQRCQnp6O69ev9/r98ePHUVRURB+A3bjNZsO0adP6vPlRo0ZBEATodDqEhobSR5gzZ06fvz9w4ACio6Ppd1qtFnK5HEajEbNmzep1zt69e6FQKOjlOxwOGAwGCIKA3NxcXLx4ER+//PHjx9PfdzgcsFgsMBgMMBgMmDBhAh49etTrOosXL4Zer6d3yt7r6NGj+1ykAIRjx44hOTmZriOXy5Gbm4sDBw54/dDPnz9HY2MjZDIZtFotXSspKQkbN27s87w7d+6gl4H0dXz66af0R9nHs1gsmDdvXq8/3NHRAYvFQh+BveDc3FxcuHCh1++3b9+OgIAAGI1GyGQyyGQyqFQqhIeH47PPPuvzxlevXg2bzQZBEGA2m+nDjR49utfv7927h6lTpyI3NxcWiwV6vZ48iMvlQmNjI96/f+9x3pMnT5CTkwOpVErXYUd0dDSOHDnS6zrr1q2j3zocDvq91WpFc3Nznwvjzp07cLlc0Gg0UCqVUCgUiI+Px+rVq71+6JcvX6K2tpb+vlKphL+/P7766iuv57x79w7Tp08nT2g2m+Hv74/m5mbcvXu3z/Pevn2LhoYGbNiwAaIGMnPmTPj5+UGpVEKj0UAQBAQFBWH//v29/vA333wDl8sFQRBgNBrJmAoLC3H+/Plevz948CB9XGaASqUSFRUVfX4Edo3o6GhIpVJyxYIgoLi4GPfv3/c459WrVygvL4dCoYBKpYLFYqHruFwufP75531eo7q6GoIg0L0ZDAbIZDIkJydj165dvc7ZvXs3IiIi6OUzbxAaGor58+f3eY3vv/8eY8aMgVQq9dgmV65cKeruly5dirCwMEgkElitViQkJOC7777zes6tW7dQUFAAPz8/aLVaSCQSOBwOr16DHZs3b0ZQUBA+/fTTvg2kp6cHY8eOJbevUqmg1+uRmZmJ48eP9/rjFy5cQHp6OiQSCZxOJz10U1MT3F2V+0sNCgqCQqGgl+Tn54dp06bh+fPnfd78lStXUFRU5BHXGAwGjB07tk/3vWrVKpjNZoqZ2D0FBQVh/fr1fV5j3rx5sNlsMJvNUKlU5G1KS0tx9epVr9sdMzy2ShMTE/t8TwCEr7/+GlFRUVCr1XA4HFAqlUhPT8eWLVu8frQbN26grKyMPLJMJkNRURHOnTsn6m3Ky8vpGRQKBSoqKnDy5Emv59y/fx/t7e0IDAyETCajmLGXSxo6dCisVivkcjk0Gg10Oh3a2trw8uXLXn98//79SEtLg0ajgUajgVarhdFoxNChQ/u8kZ9++gkVFRVQKpWQyWS0UseMGYMXL170ec758+cxaNAgyOVySKVSSKVSpKSkYO3atX3+/ujRo4iPj/dwxYIgICwszGugvH37dvj5+ZFHMxgMUKvVmDlzJh4+fNjrnO7ubowbN44Mg8Va0dHROHz4cJ/X+Oqrr+Dv7w+lUkmeaerUqbh586bXj7Z//35ERERAqVSSVy4qKsKzZ89EvcCYMWPoOZRKJcaOHes16GWxYEZGBhm5XC5HR0dHbwOpqamBw+Ega1WpVFi6dCn62qc2bdqEwMBA+gAKhQJarRZTp06FN6tuaWkhq2bHiBEj+sxWWFCWnp4OQRCg0Whgs9mQn5+Pb7/9ts/ff/jwAY2NjfR7s9kMpVKJkpISr1vX3r17kZiYCJVKRbFEaGgo1qxZ4/WFNjU1wel0khdgnsPbfX3zzTcICwujGE0QBEycOBHv3r3zeo2zZ88iPDyctlOtVotRo0bh8ePHojFHaWkpTCYTZV3Lly8XNaZly5YhKSmJjEkulyMnJweXL1/2NJAjR47QhxYEAYGBgdi5c2efq2fUqFEUkLH/jY+Px969e3sFfgCE27dvo3///uTy5XI5nE4n5s2b53U1nDlzhlwxu6+pU6fiw4cPXh943LhxcDqdtNrUajWmT5/u9RpXr15FQkICBd8sGF+3bl2fv3/y5AlGjx7tsZUajUaYzWYsWbLEa8xRWFgIlUpFwXhZWZnoR9u2bRsKCgroHLPZzDWODx8+oLa2lmK0wMBALFy4UPQ6y5cvR1hYmMeCzcrK8vCCAgDhl19+wcSJEz0eevbs2b3++MOHD9HU1AS5XA6lUkl5f3V1tdd9+saNGygsLIREIqFgNzY2tk/8wf3DMSyFufuhQ4fi9evXEFsJLEgMCgpCVFQUVq1aJfqCamtryVuytLSvDM0dCnAPYlUqFaZPn97nQmLvKysrC0qlkmKV0tJSWp19HUeOHEFERATUajWUSiWkUimam5u9bsHsKCsrg8FggEajgcvlEk19GZ7CFoVcLofZbEZ2djYOHjyIPnGQkSNHkveYMmVKn4BTVVUVxRtsf6+srBR1lZWVlVCr1TCbzVAoFMjKysL3338PMasODw+HwWCAxWKBRqPByJEj8csvv3g95/Tp00hISIDFYoFEIkFKSgquXLni9fePHz9GRUWFB7YTGhoqmjIuXboUGo2Ggl61Wo0FCxZ4ffanT5+ioKAAVquVFl59fb1XjIPFKeHh4QgPD6fgvbW11esW7B4sM+9kMpm4GdHBgwc9vKC/vz9mzpyJ7u5ueAXKhg0bBkEQkJqa2mub+O6771BYWOixh9psNixatMjrjTx8+BBDhw6l4I/97b7SXnfElrk89uEWL14s+rC3b99GYWEhreyqqirR9O/nn3/G8OHDPRDSpKQkbN++3es5u3btQlRUFPR6Pbn8iRMn9vlCAQidnZ3Izs6m+EQul2PgwIGiAen169eRnZ1N92UymURxEXa0tLRAKpXCYrEgNjaWm8Z+++23SEpKoutUVVVh7dq1ePPmDUSR1Pz8fDidzl6R/t27d2m1sSMuLs6rW2XH0KFDoVAoaMUNHDjQ6zbEXGv//v1hNpthNpths9m4ARYAob6+nj5CcXExfvzxR9FzlixZQtG6RqNBRkaG18wDgPDjjz8iJCSEAkWj0UgRfl/HgwcP0NTURGgvg87F7qunpwe1tbVwOBxwOp0IDAz0itV87HGCg4NhtVoxaNAgnD17VvScU6dOYcCAAeQ1ysrKcOvWLfgEtVdWVqKlpQUfp6WpqakeKzovL090Jbx58waNjY20XYWEhGDs2LG4dOmS13P27t2LmJgYMkA/Pz9u/HD37l3U1dURUJWfn98LMPv4WLRoET2H3W6H3W7vE/hzN9qEhAQYDAbodDrEx8f32qPdj2fPnpF30ul0MBgMfVISH58zZswYyqCCg4O9Zlzux5dffomQkBDo9XoMHjy4Txji46CfBeQ2mw1JSUlecac+DeTj49y5c0hJSYFWq6UVV1RUhKdPn3r9o2/fvgXjSlggJwYCsYg9ICAAgiDA6XTCarWivLycSz4VFBSQQQ0aNAg3btwQPWfLli0IDAwkY+/Xrx8OHTrk9ZyTJ08SByUIAlpbW/skA92ziOHDh1OcYjKZuMZx7do1DBo0iHChoKAgfPHFF6LnvHz5EqtWraI0dsSIEaLfhAWkiYmJUKvVUCgUqK6uFo2FuAayY8cOpKWlEXOr0WhQUVGBe/fuef2jr169wtSpUwnnkMlkohkBAOHw4cMICwuD0WiEwWCA2Wzm7qFv3rzBrl27YLFYYLFYMHbsWNy+fVv0nJ07d8LlcsFoNEKpVCI+Pr5PBNadYY6Pj4fBYIBWq+Uil3fv3kVNTQ3Cw8MhkUigUqnwySefiGZd586dQ3JyMmWCSUlJogYLQHj9+jXmzp0LuVxOnBXPc0yePJm+CUOfnzx54pNx9Gkg27dvJ1fEjiFDhojeyM8//4zy8nL6fXh4OMrKyvD27Vuv5+zbtw/x8fEUyFmtVq5xnDt3Djk5OXA4HHA4HFi4cKFoBsVkDKmpqRQP1NXViRrH2bNnUVhYSGlpTU0NfvjhB6+/v3nzJiZMmEDZSlpaGhFd3o7u7m7U1tZ6EI++xFstLS20BTc1NfWJObl7tObmZspWrFYrlixZIoqocg1k8uTJCAkJoTTWbrdj/vz5ojn4nTt3MGTIEEr94uPjMXfuXNGbP3DgAJxOJ2EQ/fr1w8aNG0Vv/tChQ0R1BwQEoLm5mfugkyZNoq3O4XCgvb1ddN89ceIEAgMDIZfLIZPJkJWVJZp1ARAGDhwInU4HqVQKlUrF3SJu3ryJsrIySKVSwnhGjx7tNYtgWdHw4cMJ6UxKShJdsN3d3RgzZgzUajWkUin8/PwwdepUrrf57rvvsGLFCo9gl/7jxo0bKbC02Wyw2+2i0TojeJjnkEgk6Nevn1e+gx1bt25FREQEkXXV1dXczGPbtm2Ii4uDIAiIjIzE+vXrRY3p9evXqK2thVqtpsxj3LhxoigsI9KYF6ytrRUNet+9e4fm5mbiYXQ6XZ/40cepbFxcHHQ6HeRyORwOB9ra2kSN9vHjx6SZMZlMyMjIEM1W3r9/j/b2dthsNvJqra2t3MW0Zs0aREZGQi6XIzs7mwJlih8qKyspdsjMzMSXX34p+kd//vlnZGRkwGq1QiaTISoqipuabdu2zSMHLygoELXq169fo7293QMh/eyzz0S3levXr6O0tJSCOD8/P66hr1+/nl6mv78/GhoaRO/r+++/R3NzMy2oqKgor1C7e0bI8Bqr1YqQkBDuO7527RrCw8NJN9LU1NSnvsT9mDNnDm0rgYGBmD59uuhWz5yDu4TCHSwlUKugoAByuRyFhYU+3XhWVhYZVHp6Ovbt28c1DpZFsJRRLAfv6elBc3MzHA4HdDodwsLCMGPGDJ9xEavVivDwcKxfv17UoJYuXQqn0wmtVgulUomamhrR4PL69euoqqqCIAiQSqVwOp3clPzp06eoq6sjL5CUlMT1NgybstvtkEgkXhV27kd7ezt0Oh10Oh2cTqdPcU1jY6NHHGg0GhEZGUloN/1w0KBBUCgUorgAo4bj4uIgl8uhVqsRGBgoClGzvZ3FDwxoE4PbWTzEiLqcnBzRLIIdCxcuRHBwMBwOB7RaLTeLmjp1KgIDA8kT1NfXi8ZOr169QmNjI8UbTqeTi3Zeu3YNKSkp9AGCg4OxbNky7rO0tbURcs1Ll1+8eIG2tjYKrDMzM0WRYXZMmTKFQgp2blNTE3766SfPGIStVt4LXbduHYKDg4mHiY+P55JCq1atglqthkQigVqtRkxMjCgQ9ObNG7S2tlLgZ7VasWLFCu7Dbtq0CZGRkQTONTQ0iHqOGTNmeNDiI0aMEI1RHjx4gIaGBiLp5HI5vvnmG9H7+vDhA/Ly8ijFHDJkiCjIyK7T0tJCGU5FRYUoDwVAqKiogNlshk6nQ1RUFK5du8Z9X3v37iUDZGLxcePGeediLl++7JUWf//+PebOnUtkmMvlQkhICM6cOQMeFBwaGgqXywWtVouoqCjRc54/f45x48aRyzMajdyti3kCg8EAqVQKjUaD+vp6rzzJkydPMGnSJPj7+5PnqKmp4QaKgwcPhlqthlqthtVqRUdHh2jm8fbtWzQ1NZGIOzMzs09t7sdxCtsijUYj6urqRD/2L7/8ggkTJtCHDgsLE6UN3DOp2NhYureIiAiv+hefcuFJkyaRlQmCgJSUFC6Gv27dOlgsFgp+cnJyRLOCS5cuoaSkBHK5HFarFXFxcaJkIAuUm5qaCGyyWCyi3ubdu3eYPHky9Ho9yR0LCgpw9OhRiEHUWVlZpDHR6XSiUgWGwo4dO5YynJSUFBw7doyL8ZSWltI2XFpaKmq0THfL0vjY2FifFtPnn3+OsLAwghjCwsJEkwuucdTW1kKhUBA2kpKSwo0ftm3bRjC10WhEbm6uKAp76tQp2qeZoIbnJm/fvo309HTyAtHR0aKxUHd3N8n/mTtubW0VNfT9+/cTR6TVapGbm4uvv/5a9L4OHTpEuJBCoUBmZibXOK5fv07STa1Wi+LiYq8e8GP2XaPR+CR6Zgi5v78/fZchQ4aILg5RA3n69CnGjh1LgaLZbMaQIUNEX+jdu3cxevRoqleJioriRut79uxBUVERWXReXh4XnGLiHeZaIyMjuexya2srlEolscu8CH/Tpk2Ijo6m4C0jI0NUY8IC+MzMTPK04eHh3LR03bp1KC4uplSeh7/cvXsX7gGszWbzKbtbs2YNfReLxYK6ujqfUFWvAhyWytntdhgMBtTV1XFJJOYidTod9Ho9N8LfsmULUelqtRoZGRk4ceIEd1uZPn06Bb4ul0s0Yn/9+jVmzZpFrtvlcqG+vl70GmvXriUswWAwIDIyUlQRztT97gRiTk6OKPPLEGVmGDabDZmZmaJB7K1bt1BUVETVBiEhIV41wB+LsNgC1Ol0KC0t5YqQ+jSQV69eYdWqVcjPzyf3pdVq0draKooNnDp1CoMGDYLD4YBEIkF6ejrXOKZPn06wuVKpRP/+/T3SK29ZQVNTExUbabVarueYNGkSTCYTIiIiYDabuSnj7t27qcYnMDAQ/v7+3C3i0qVLaGhoIFVXRUWFT1uRw+GgAD4zM5MrV5g4cSJpbEJCQrB161afAvjw8HAolUpYrVZMmDCBm0m5k3m93CqTuzHo3FsdiXvNSnFxMa2chIQE7gtdtmwZtFotpXIjR470yZqXLl1KKyEpKYmbRU2aNIk+tt1u50oPTp06hZycHHoWs9nstcbFPfNKTU2loDc4OFg03mK4kNVqJfS2rq6uz/IK9/hp+PDhUKvVkMvlSEhI8Fr28XFGxKQUWq3WJ+Ds8ePHmDx5Mnbs2OEJlB0/fhwxMTEeBUO8TOXQoUOIj48nnarRaOTexI4dO2A0GqFSqaBSqdDW1ubTXrh582Zy+wUFBX0WZblzRC0tLRThFxUV9VkZ535cvHiRPCcLlidPnix6zvv371FYWAi1Wo2AgAAMGDCAiwvt378fdrsdKpUKJpMJEydO5JJoRUVFUCqVVI/MSxKePn2K8vJyEpebTCaMGTOGC7k/ePAAJSUlHouW/uPs2bMpFqipqRGlxNmDBgYGUtAXExODTZs2iZ6zcuVKUmsbDAbU1tZyjePly5eYOXMmfbjq6mrRyPv69evIzc2lWt+GhgbR1cm2FVbgLZVKkZiY2Keq/+PtuLa2lrKckJAQLs6xYsUK+Pn5ISAgAH5+fj7B7dOmTSNcKDw8nBvX3L17Fw0NDZRiWywWKqMUOx49eoShQ4eSfLO2tvZvBvLu3TuCwr1Vo7v/oenTp0Ov1xP+UFZWxt0/29raIJVKoVQqodfr++wk0BeekJGRAbvdDr1eD5fLJbp6nj59itbWVvIc4eHhXC/Y0dEBf39/IsScTieXeLtx4wZKSkqgUqkQFBSEpKQk7odbsGABYSlyudxr7Q07fvjhBwwcOJAEyTxdK5NesEBZoVDAarVi4sSJ3Pd87949FBQU0KJyOBwYPHiwpwdpamrCpEmTRPPv58+fY/DgwZDL5VAoFDCbzZg8ebIopP3+/XvMmjWLKvZcLhcWLFjAvektW7ZQVR3TjIjhHD09PQSFq9VqhIaGYvPmzVylWX5+PnnBlJQU7N69m+vRmKwyNDTUJ/3ojh07KBYICwvrs1rx4w/t3rKCF2+wKsSsrCzIZDIqUZ0wYYIo2suY6X79+nmUqRqNRrqmh3iWZ2XMBalUKpjNZlRVVXEBoLq6OqhUKkgkEkRERPgk5T9x4gTpP3Q6HZKTk0WFOAyzYW41PDyc+1IPHjwIu92OiIgISKVSmEwmrkE9f/4cs2bNot/zPvTbt2+xbNkypKSkwGAwICYmhoI/b8fRo0dpYVitVixatEiUI2KGHhoaSoYeEhKCyZMn92p009c3zc/Pp/hGqVQiNDTUYwH7BLWfPn0aSUlJFMAGBQWhsbFRNLg6c+YMZQQmkwkBAQE+7YWsVpZF3s3NzaLbxIULFzBkyBAq7s7JyeFC4d988w2Rjiyd5Z1z9uxZjBs3jrYvXzKvyZMnU1yTnp7O9U579uyh+4qIiPBJ6LN06VK4XC5IJBJIpVLo9XpMnz6de97169eRlZUFm81GXZ3q6up6vWuucdy8eZMCMZvNBqfT6VNwxfZCf39/ZGVliRYzuafMrMzC6XRyDerGjRuorq6GWq2G0WhEYWEh1+WfOHGC3Lder0diYiL27t3LdcPuVMCoUaO4QNP06dNJ8O1yubjGsXLlSopR+vXrxzXA169fo6amhuJAtrX6ohu5dOmSR5GWxWLBmDFj+sS6BJ64tri4GAqFghC/MWPGcFfnsGHDoNFoYDKZkJOT41P9xY4dO0htFh4ezuUWvvrqKzidTlgsFkilUqSlpXFxkYsXL1LhkNPpRGxsLBe5/eabb6hKTq/Xi3bncQenGM7j7+/PVauPGTMGRqMRWq0WdrudG8Cy4FqlUhEXFRAQwC3WZrtBfn4+VCoVNBoNIiIiRCEA7l7IkDulUomGhgbRIHb//v20f2q1WjQ0NHCN49GjR2hubia1mVar5Qpqpk6dSj1A/P390djY2Kt3WF/ehqngVCoVsrOzuYji2bNnKRYyGAwYPny46Lb64cMHsAJvVuPDu0ZbWxsBhiaTifvsb968wbRp0+BwOEhzGxoaypVVskCWBaSMfOUJsbyCUtHR0VAoFFAoFDCZTGhqahIVrrBmJ+xBKyoquMbh3ndLKpVCq9Vi+PDhXgEdprEICwsjLGXYsGHcYOz06dPIzs6GRqOhRnG8l7lt2zbq6WE2m1FRUSG6rXR1dSEvLw9qtRpBQUGQy+XYunWrV4Xas2fPMHjwYKpF9qX0oaenB+3t7R49VgYPHixa0uou3GL6D6vVCoPBgK1bt4q2lOiTi9m4caMHaGSz2biuq6OjA3a7ndKk5ORkPHjwgBtB5+TkUOZhMpm89vX6uN6XNaRbtWoVty3CL7/8QlSAw+FAa2srF7ncvn07HA4H3VtJSYno89y6dQvl5eXEsAYGBorC+i9evEB7e7tHWskD5gAI8+fPp3SZpdk85JZJMWUyGTQaDcLDw1FXV+eThNPDQI4dO+bh6jUaDWJjY712zXHXJbDIXq1Wo7W1VRQGd9dyMDFRZGSkqIv88OEDWltbPUoheSkmy6QYfB4QEICZM2eKeps7d+5gwoQJJF0MDAzE1KlTRc+5ceMGhgwZQo1biouLuVLEefPmEXej0+m4geXr16/xySefkAcwm81IS0vj6ocZEsu2k5iYGCxfvlxUd8sqHlk8R//n4MGDPRrIZGdni0b3r1698ihJMBgMXOke43z69+9PkoCAgADRB33//j1KSkqoPFMQBDQ0NHAf8uTJk0hLSyOKf9GiRaKM9Js3b8Aq15RKJWw2W599VD/2HKzBnFarRWFhIRftXL58OXmOyMhIzJs3j0s3tLe3UxrLtCm8beX58+eYP3++h56Fp9ADIHz22WcIDAwkeQcFiu5FQw0NDaLlhl1dXaipqaHU12w2Iz8/n+vuz5w5Q7Uher0ecXFxohH0y5cvUVFRAYlEAoVCAaVSieHDh4sWUTOdBevso1aruSWdr169wuzZs4ldTU5O5gq4nz59in79+sFisUAul6O+vl60udz79++xZs0aEhPl5ORwWW8G0TPPodVqMWTIEK6gav/+/SgsLIRer4dcLkdqaiqXrAQgTJgwgWIip9OJFy9e/O2FshWalJQkiiWcOXMG6enpVDYYEBCAOXPmcHEBFkGzgvDg4GDRVkw9PT2orq6Gv78/dDodrFarT3T1+fPnKVtxuVyora3l3tvo0aM9OhDzXub+/fupZ6tMJkNra6so3fD27VvMnDmTcI6amhqf9KMzZswgrxkdHe1T7HDlyhXKVNRqNaKiorjaFBbfuHdsDA4ORnd3998MhNHiYrjAkiVLqLDbaDQiKCiI2wGIEU+pqamQSCSQyWQICwsTZX67u7tRVVUFlUoFpVIJpVLpk3tcvHgxIiIiYDQaYbFYfCIEJ0yYQI3oIiMjRbsbsvpVVlfMWinwiEp36WZOTg63XQPDXxiloVKpMHz4cJ/QUSb8ZrwPT5sCQNiwYQPFnsyICwoK/rbF7Ny5E1VVVV5dV09PD7744gtywUqlEpGRkT65rfPnzyMzM5OMKjY2VlR5fuPGDerwx4qoq6uruenY7Nmz6cX4+/tzdZoPHjzAwIEDPXqG8OqKr127RkEvK0vg9SVhJRkMPueBeeyDMXExg8B5XvDNmzeEwSgUCoSHh3OxIdZunX1Xlj5HRERQdaVPXExHRwe9SEEQkJ2dzW13xLKVsrIyOJ1OOJ1OJCYm4vTp06IdegYNGkRuLiAgANOnTxeVH3R3d2PhwoUwmUzQ6XRISkrqswDo4y6KmZmZHlMPeFD4xYsXydCTk5Mxf/580aCXteV077TEq/x3b3TDWqDn5ORwxdI3b95ERUUFNBoNZDIZoqOjRbdvd8E082xarRZarRaVlZV9V/d7Sy9Xr15NuIhWq0V5eTlOnTrFvfjx48cRGRlJXEFWVpZoEPvkyROKHfR6PaxWKzfH7+7uRk1NDSnNXC4XN/U7ceIEEhMTPdpS8gTJa9asQVJSErWznDRpEldp5t5WKisrixsosyJyhtxqtVqMHj2aq2e5du0aBg4cSMaenJzM9bZMvMRgBgaGjho1qpc8QBDLVGbOnEnAjNVqxezZs7kYB2sOk5SUBLlcDolEgszMTNHY5tGjR8SRMPKIV0D++vVr1NfXk7dJTEzkGtTJkyeRm5sLiUQCrVaL0tJSLgq7cuVKyvBMJhM35mLzb5iut7S0VNRrMsHWxo0bSeFvMBh80sycOXMGGRkZpPCPjY3lbmGPHz/GmDFjaGQJm7XjDbvxmt+PHj2aLEwqlZLCiHccPHiQaH7W1lkMG3j79i3t64xA45FVP/30E1pbWyn9S0lJ4bLFe/bsIUZWrVYjISGBi1l8/fXXxGQ7HA5uXPP+/XsqFzGZTBg8eDDXA/z0008eAKXL5cKoUaO47/rbb79F//79iXKoqKjwybOPGzeOYAOtVovo6GhRo+oTTWRjMdjLrKqq4lrmq1evsGnTJspWjEYjiouLRffC69evk0TOaDQiJyeHqyI/d+4c6urqiCfy9/fnVrJ//fXXpLNQqVQoKiriSgS3bt0KnU5H7cDnzp3LrddhPUO0Wi3y8/O5rv7p06ceWYcvfWFZms36zwYHB/vELbGAlO0IUqkUERERHu+hL8DO4wPv2LED1dXVFLjY7XbU1NRwyyDfvHmDUaNGUbRut9u5geLr16+Rk5NDozcSExO5Rvjdd9+hf//+5L7T09O55yxatIi6+qhUKtHJEu6FU4xwi42N5ba32Llzp4cAKTs7mysjYAgpexaXy4UhQ4ZwA9+Ojg6KN+x2O/Lz87nX+eWXXzBjxgyiKkwmE2JjY71iKu4KNg+2z71xPsP7fYk5PvnkEyprDAsL45JuJ06cwMCBA6lZvdPp9GlFs1jA5XKhubmZq7xfvXo1tW9iKjBeK4UNGzYQFD5kyBDu4hg/fjwcDgfMZjO0Wi0GDBjAjTk+fPiAYcOGQaVSEYudnZ3NrcedP38+XC4XSThra2u5BvX48WOqeDQajbBarSgsLBTFR65evUqVAOQeJRIJBS1sWhTvA3ysH7VYLFxA6+zZsx5DCUNDQ7np3/r16+FyuQg6b2pq4t7XypUrPZT3paWlXM6DqbqYXoQXwB44cAA2m4221Pr6ep/EUYMHDyYOSyKR+CTFXLx4MXloq9WKzMxMbq/Td+/eYfDgwZSxabVazJkzx6shvnv3DtOmTUNgYCB9R3pQtVpNNz1kyBBuAMdgXfcOh6NHjxbddy9fvozy8nJSuOfn54vCwG/evMGaNWtQWFhI+3RJSQnXq23fvh3h4eEeBeE80GjGjBmQSqUwGo0+kYGnT59GRkYG3RevvYX7tsICX5PJhIULF3K9QFVVFaxWK+ltysvLuec8efKEPjYrZxDT6Lx69QrNzc3Q6/XQaDSeZN2GDRtIb5mYmOgTAvf9998TW2q1WjFixAhRt7Vv3z4KSE0mE2pra7kNcJcsWULUOxMh8dz3Z599RlulyWRCdXU1V9X1ySefeFTt8Yzj+++/x8CBA8kLlpSUiLYaZ7DB6NGjyQuwbo1ixOPDhw9RUlJCHkChUHAxGEbX5+XlUazCkGVv36enpwcjRowgb2swGMirk9u3WCwIDQ3lws1MSc4IodjYWKxfv97r3t7T04OFCxfSiwkJCcHixYtFpfwvX77Etm3baMVoNBrMmzePW+Mxe/ZsOJ1OgoynTZvGZX4nTZpEo0/Hjh3LXZlXr15FYWEhZVHNzc1cpJM1wWWoqt1u55Y/sEa4DC6IjIzkxnashzubxcvYdm8jY90DX/f26RaLhURVHrSyL2zp0qVLERMTA4lEgvLycu6KXrBgAfEKbAXw6jy++uorop01Gg33AXt6ejBnzhwCmgICAnoNJujrmDt3LnE+48eP55JoZ8+eRXFxMYFz+fn53GdhCncGn4eEhPgkP5g5cyZNvlCpVNzuzQw6j4qKImllcHAwF1NasWIFYmJiYLFYyICHDBnyv6uLYfgDG+QnlUpRVlbGrXn9+uuvkZGRQfjD0KFDuavtm2++IaAtMDCQW2j17NkzjBo1itBEg8HANY7nz59j2rRptK2mpqZyA/KrV696tIgqKSkR1cy4r06WAmu1Wm5B19u3bzFmzBiPvqU8yIBloQwb0Wg0cDgc3Gvt27cPsbGxHpPFs7OzPZ7LJ+P44osviKgSBAEtLS1cMqijo4P0o4GBgT4pz909h5+fH7cxb1dXF5KSkggwY7NZxM7p7OwEwx9Yu21fOgeVlJQgKCgIGo0GgwYN8olGZ/OE/f39ERAQwEVIX79+jcmTJ5OrZ3ICMSHS27dvsXDhQsTHx1NT49jYWK/DqRmHxUTMzBAlEgkGDx7cC7/hGsfnn3+OoKAgkrvFx8dzya2VK1cSnCuRSLjo4MuXL6m5HBvlzmsM88MPPyAqKor6f7AJ3GJppntZgtFoRGlpKTcj2rFjh0eP1+zsbG77hffv3+PAgQME7RsMBp/6lg4aNIgyQiYn4NXgrF+/nlpLSSQStLS0cJ9p06ZNHuPgAwMDMWPGjD7jNW4ZJKt0Y6JXMUDrw4cPaGtrI36ANWblUdWMv2Bjy3gv89y5c4iKiiJFV3BwMDd+YmkcywgSExO56iw2Q455m8LCQu622tnZCff5f06nk6se6+rqQltbG4mLQ0JCUFhYyMVtPvvsM2KM5XI5Bg0axAUCt2/fjoCAANpS1Go1VqxY4dVLiQYvNpuNmsOkpaWJeg429JDFKHq9HlVVVaIPuXv3bhQVFVHzmUGDBnH1locOHUJKSgrMZjMsFgtMJhO3FvXRo0eYNGkSZTc1NTVciP7zzz8nAk2pVKK2tpa7rXR1dZGH0mg0iI6O5nYRfPbsGVjHQqVSiYCAAIwbN45rHDt37qRu1waDAXPnzuWWc7B2GsygYmNjuWlzn7j96NGjIZVKiS3NyckRzfOvX79Olf8sfqioqBBdoZs2baI0lhWE8xRqP/zwA3ExMpkMarWaWwqK/5kK6d5/lIdALl68mPAXhUKBcePGcT3HpUuXKE5j1fK8zOPevXse8wBVKpVPqez+/fsRHh5O08CGDBnC7R60f/9+8qBSqRQDBw7Etm3buNtRL3kgg8GtViv0ej0KCgpEWzkeOnQImZmZVFuqUChQX18viiesXLmSioxYMQ8Poj958iSKi4up/0V8fDy3XYN75yS73Y7p06dzvQCbfCCRSGA2m9Hc3MxNfy9dukSSBblcjqKiIm6D//Pnz6OoqIjkfnFxcT6lsrt27UJKSgrkcjm0Wi0CAgJEaf5Xr15h/Pjx1I9dpVIhLy+PG0f2WTgVHx8PqVRKZN348eNFx1cdP37co0qcVb6LgVMHDx6En58fBb0BAQHcQu2TJ09iwIABhAyaTCafXuaVK1dI9OxLR8D58+dTNuRwOHwaaLx//35ClA0GA8rLy7kdBo4ePUrib4lEwhWLM55k1apVlJaq1WpkZ2dzi7QmT55M702hUKCwsJArF3WnS4jzYD3CWbuCtLQ0rrv39/eHVCqlJv1Tp04Vham///57ArNUKhXCwsK47Z527NjhQe4xroT3sc+ePYu0tDTI5XLuNRiOwLIof39/tLe3+9S4hVHorAcIr5K/q6uLtknWFdKXxsGffvopcTgMUxLbHq5fv47x48fTVqnRaNDa2iq6vT579gwTJ05ETk4OcWSUfTBPwAQoYgHP06dPe6V+vAZuly9fpg9tt9uRkpLCrdc4d+6cRysml8uFefPmib6Yly9fYuHChVAqlVCpVD7VvM6aNYtWmZ+fH6ZNm8YV+xw7dgxBQUF0XlpaGlfV9uTJE7S2tkKlUsFqtSIwMJBrHB8+fCDchpVdTpw4UdRL//jjj+TVWDfJ/Px8LifV0dFB2Q0D5zxcUW5uLtc9HjhwgBhcnU6HnJwc0Rjll19+gTvKFxERgaamJi7z+d133yE2NpZuWKlUcnWajx49Ql1dHTV+86VF9fLly8lzmEwmtLa2cj0Ha43B4qgBAwZwSyGZUk8mk1Ex2L59+0Sv9eLFC2KyjUYjdDodRo8eLeqlb9y4geTkZMjlcnrnQ4cOBa/F2OrVq+F0OinArqys9DSQ7u5ubprE2jiyPTAyMpIbwGVnZ5PGQhAEn1pHs1kuLOg1Go3cnqW3bt3yGLk+bNgw7nUaGxuJwYyLi8Py5ct9wh6Cg4NJSlBcXMztx3758mWkpqZSsVVKSgpXIIX/mTjlHsy3tLSIeo6dO3diwIAB0Gq10Gg0UCgUooiq+/ZqNpspLrRarb09CA9kmj59Orl7NoxPrJiHDVlmKB8TIfHabX/11VcICgoiACgyMlKU3Hr79i0uXLhAKaa/vz/y8/O5UXpJSQnhIoGBgfjss8+4xrF69WpERkbSeUVFRdwtYvPmzUhLS6PpkxMmTPCJw3HnfYxGI9cbrlu3DrGxsaT9UKvVPnVH3LVrF4KCgiCRSCieCggIoG2caxw9PT1YsWIFcSS+SAIYG8k0FlKpFEVFRVzmd+XKlR4ze+Pi4rgfYPfu3RS8mc1mtLe3ixrho0ePUFBQQLFDYWEht4EdC5bdNSDJycncbGDdunUUJMpkMowcOZI75xeA0NzcDJvNBrlcjpiYGCxatEiUQtiwYQMCAgLIS4eEhPgk21i9erXHMAXG5LrHeAIPNp48eTIpoXU6HRevuHTpEqqqqqDX6z0UamLioK6uLkyZMoUMijVy4+3rN27cIHFxdHQ0l9pmrSRYyhcSEuJTEfXq1avh5+dH8VBcXBz3A2zevJnkiEqlEgMHDuQGiW/evPHodqzVatHe3s4VO0VERJBxREZG+tS7dcaMGdSCQ6FQwGazob293ffCqSNHjiA9PZ08h0qlwrJly0QDpOfPn1NbCGaRZWVloh/60aNHaGpqokBUJpMhKSmJW09y69YtlJaWwm63w8/Pj4vCPnr0CCNHjqT+5UqlEh0dHdwVffToUQ8lfU1NDTdjO3ToEMxmM72DtLQ0Ll7x5MkTagSs1Wqh0+kwc+ZM0Wxq48aNFBM6nU5kZ2dzSc4ff/wRra2ttHjd1W0+czFbt24lt80GA/EItOfPn2PUqFE0xlOtVmPIkCGiyOWzZ89QU1NDxJZSqcTQoUO5PMmJEyc8FG08vuP169ceVEBISIhPHQHPnDlDBu9wOLBq1Squqm3nzp20qNi1fPFSjA5QKBTIzc3lKs7Onj0LPz8/qsf1pafqyZMnkZmZSUy72WxGXl6eqMfp9SLXrl1LNLVGo4G/vz93JEhPTw/Gjx9PMjeHw4GMjAxRFJaVDLhzMUVFRdwyg4MHDyI2NhZmsxmJiYlcd/rs2TMUFxfDbDbDaDTC4XD4VCd77949JCUlEcPqC+dz9OhRKs0ICgpCfHw8d8AB/mcaVkBAAAwGA/r168fV2pw+fRppaWn0vmtqanyKbVgHJRaI1tfXczPXXsIgFm8YDAYEBwdze5Q9efIEEydOpLRPrVYjNzeXSzu3t7cTryKRSHxqq7Rjxw7069cPNpsNUVFRPmlB6+vrqc9GWVmZTxzErl27PMQ0TU1N3JqV7777jrwuQ6J9qbCfMmUKBYqJiYncaoKVK1ciKCgIMpkMOp0O+fn5XCHWxo0bqcuj0WhEeHi4TwCih4EsWbIEOp2Oonun08mtVzl+/DjS09Npr7Xb7Vi8eLFoxP38+XOaLc9WQHl5OVcYs2LFCo9ZeLzibmaENpsNFouFq05zF+CweS4sK+IBZ+vWraMmNEajESUlJVxlfFdXF8aOHUseatCgQT4p2xITE2myVWpqKreN1b59+yjeYCNqfWGMWSbo8TJZRRl7MTx3ypq5slXDc6ddXV1obW2lc1icwovuN23ahMDAQGJKea2zr169ilGjRkGv1yMsLIw7acq95NJgMBB45kuHomnTpiEzM5OkEfX19VyYft++fRgwYAD1XfMF8V2yZAlCQkJgNBqhVCpRUlLCbSozd+5c0n+w+Tw8r7Z582bk5eXRoIZevdUNBgPa2tpEV83Bgwep9oSpu3kNWD58+AA2P44FSSNGjOBCwHv37iVVV3p6Ore4u6uryyMg9UXw+3EbJlamyaMDOjo6SKHGUnNerc+CBQvo3RkMBsyePZuLRs+cOZO8LdPn8ETWHR0d8PPzQ2hoKLVE5xF1c+fOpSFRwcHB6Onp+Vtwyto6T5w40etH6+7uRnt7Oz2gXC5HZmYml8F8+PAhpk+fTugoq/znBbGbN2+mltupqancVPHVq1eYNGkSZUUVFRU+VbsxD8Waxa1du5brBRYtWkSexmw2o6CggJt9sekPDHtobm72yXOwQUxMTiAGtz969Ajt7e0E0QuCgPHjx4t66YcPH2Ls2LGE8xiNRvj7+/+tid2NGzcgl8sxePBgUeXUxIkT6aJarRYOh8OnVlQTJkwghTsj+Hj77datWynHT0hI4DK/79+/B5ukaTKZUF9f75PyfNmyZVT3Gx4e7tN2dOPGDY9p3wsWLODqRtj0B3Z/DQ0N3LjrxIkTtBgtFgs3lf3pp588vKdCoUBlZaVogP3gwQPqRM06XUqlUsTExOD169eebsxb+6Z79+6hpaWFMhyNRuOTGPfly5dYsmSJxxTu6dOnc7eV7du3k9KqpKSEK6a5fPky1ewIgoAFCxb4VET9xRdf0DkZGRlckIkZbllZGU285vVTZQE287j+/v7o378/t4Lv8uXLCAsLg91uh1QqJXZVDLPJy8ujbgFGo9Enw2XvjSG+DClm9Ujcvfn27du9RlZFRUVxC5pOnjyJqqoqcvdBQUGoq6vj7p3r1q2jtK+6uppb87phwwaUlpZCo9FAIpH4xBaz1M9ut8NqtcLhcPgEZq1fv568mslk8mmLWLt2LfEkfn5+qK2t5epbv/32W5qaERISwvUchw8fRnBwMHQ6HaRSqU9Jxv379zFhwgTqW8sWsdVq9aARuMgb6x3G0tKoqCguNnL48GFERkYSn6BUKn0KFjdt2kQpWV5eHjfgu3fvHj0YmxThi3F8/vnnHi23fWk0e/jwYSrliIqKQnBwMJeZ/vbbb6lMk7Wz5F3n66+/pq3YbDajra2NuxBZ8z+WTX7yySfcmLCyspL60LKmgbm5ub36vInqOfPy8oiJZPPdeMZx/fp1pKSkQKVSUYRfUlLC7bUxb948epkFBQU+IaTp6el0TnV1NRcVZByTyWSiXqK87Iu9C9YDxel0orq6msvHrF27FuHh4bRCfanKP3nypMdIMh7Wc/HiRURHR0Mul0Mul8PlcnE5qefPn2Ps2LEeM2Oys7Nx8eLFPjNXr/sZ68zD0MS0tDQu9f78+XPK71lEnJ+fz9U/tLe3Q6fTwWAwIDAwkLsC2CgRFqnzOJ+PU2Y/Pz+f6n6ZmIat0KCgIJ+KoMaPH08VfyaTyacu0WvWrEF8fDz8/PyQmprKbed5/fp1xMXFUfVicHAwV0nPuhmwrYQtXjEuqxensmXLFhLfsL5emZmZXPzh2bNn5HEMBgP0ej3mzZsnqtPs7OzE6NGjyQu4XC4uenvu3DkaXabT6VBdXc3NBpgSzL0Oh0fXv3z5Ek1NTXRvGRkZXFLw4waAVquVOzGCJQhsq4yOjuYy2efOnaMWXky4tHfvXlHs6vXr12hra4PBYKDJEVVVVVx6o1eXX71eT7yKQqFAYGAgN7p//Pgx2PhwmUwGi8XCXZ2dnZ3IycmhoC8yMpIr3Dl06BCVgprNZkyYMMGnbGXJkiUUP/j7+3M7FjKdBfOCWVlZXA5nz549NMJNr9f7DO/PmzePUtkBAwZwvfSmTZsQGxsLq9UKlUqF1NRUruEytpglDMnJyWhra+Nmkx4G8sMPP5CynUHhwcHB3Oa0b968QVlZGfR6PSmoecXaL1688Bi3npSUxI0Ftm3bRlxMeHi4T+wqq3VxOp2QSCRISkrieo579+5h3rx58Pf3h0QigcPh4NbUsPbZ7Hni4+O5DDjzaixOq66u5mpbly5dSpC+QqFAQkICF0969+4dli5dSkaYlJTEjW2OHj1KdUceWlBG1Ol0OpSWlnKt+eXLl9TLw2azITAwkFuD0tnZiba2NpoWUVhYyG0Au3DhQjJai8WCsWPHcunt+/fvY9asWfTRfNkmHzx4gMrKShLvOhwOrrFv2bKFvKBOp0NcXJzosAL20ebMmQOZTAY/Pz8UFRVxg/iNGzdSUZfL5UJ6ejp3e3DvpqjRaNCvXz/ugt+9ezf69++PwMDAvyGpDJxi1lxYWMjVZTx79gxDhw6FXC6nfp2+9FZvamqiboU8zgf/MzKUscwRERGYPXs2V1x8+vRplJWVkUFFRERw7+3Vq1eorKykbWXAgAFcz8HKJxkIlpWVxTVCd+DM5XL5JPSZM2cOeTSZTIbBgwdzPcdPP/2EUaNGkdDcFznF2rVrCfNSKBR49uyZp85ApVL5hJDeu3ePAlKtVovq6mpu8TCLBYxGI3XR433oJUuWkMYiMTHRJzDr22+/pZRUo9EgMjLSpxEcc+bMgclkgslkgr+/P/dD37lzB0VFRYTbZGZm+jQ8evHixbDZbFAqlRg7dqxPelgmfLbb7Zg2bRo3dvjyyy8RFxdHwGZ5eTmX97p06RIF/3K5HAkJCZ5bzPHjx2EymbjFSQcPHkRaWprH4GSemObhw4cYOXIkXC4XNBoNd6r0kydPUFVVRUXUdrudO0+WyfBSUlKgUChIDcfrktzV1YXGxkaqeueNSQMg3L17l4YtK5VKn41j5syZBLf7AtGfPn2aKhhdLpdP72DNmjXQaDQwGAxQqVTIzc3lQgDnz59HcHAwLV7WBaFXFsNTJp08eRKJiYnkORISErhajoMHD6KsrAxmsxkKhQLt7e2inoPNmJFKpRQLtLS0cLmLY8eOkdBHrVbDbDZzA9+NGzeioqICBoMBWq0W/fv353qOR48eITs7mzK9iooK7ge4cuUKampqIJfLERYW5pPYiWlG2PbAAygZzhMSEkIYR11dnU+tvUtKSoh81Gg0yM3NJQ2yz03s1q5dSzUrOp0Oubm53GlL58+fp4c0GAyYMWOGqOj3woULtHUxV1dZWcn9ADt37kRsbCxF+FFRUdyU+dq1a0hISCCGtampiZsyP336lMa5WiwWTJ06ldtfo7OzkxrEaLVanzpJrlq1ijK2pKQkn4zjyy+/pLYQTEMrFqe8e/cOy5Ytg8Fg8BgmMGLECA/+S/A1VXTvBVZZWcnVSxw8eBDR0dEwm82IioriVnlduXLFo4tgQEAAamtruQOav/rqK1itVigUCshkMoSEhHBf6JUrV5CYmAi5XA6pVIrQ0FCudG/v3r2UsQUHB3NV58yrMSrdZDJxkc7Xr19j0qRJVDaZlpbm02RM91EnKpUKM2bMEM3ybt68iZaWFgLa2P21tbX1yqa4xjFx4kRKMZ1OJ0aOHMld0XPnziWhT0FBAZeuv3fvHoqLi2Gz2WjyYl5enk+NW0JDQ4nFNBqNXJzj7t27KC8vJ1VbYWEhDh8+DB5/w1Z0cnIyt58JywoZqOcLcPj8+XNMnjyZtq6srCyfOl5/8803yMjIIJ3q+PHjueew+huGeQUFBaG9vb1PoxJ9kUOGDKGMQBAELoX86NEjtLa2UuaRmZnJJbVu3LiBxsZGCo4kEgkaGxu56u5t27YhJiaG4HO73c4NFH/66ScMHz6cKPHx48dzYe3jx4/DYrFAKpWiurrap26FX3zxBZFucXFxXO/58uVLEnIz8oxntGxbcR/VzgMP3717hxEjRnjMjMnMzMTatWu9ZqF9FkNv3ryZomeGWdTX13PT0lmzZkEulxN9zBMXs3RZIpFQNX9xcbFPbaLcZ6YEBARwMYszZ85gyJAhkMvlUKlUqK2t5abmO3bsgMvlglwuR15enk9F16xMk320sWPHiqalHz58IHaV6U19MY4lS5ZAq9WSUU2cOJELHk6ZMsVj7NuAAQO4sVovTmX48OEekxBZHs3TPkycOJHybpvNxi1Ounv3LpKSkih6NplMmDVrFvejLVy4kFhcu92OjIwMrlL7xIkTRIbZbDbU1NT4tK+zjM1ut3PZVSYocq8rKikpEfWg9+/fp3EdzNX7kuHs3LmT+o3p9XrurF8mefT394der4fRaMTgwYN92sJ6yem0Wq0HYdfQ0CBqHNevX8eYMWPImPr168fdozs7OzFo0CA6JyIiguttenp6sGDBAo8hi3V1dVx11pEjR5CYmAipVMptJeG+RTCZQ2Jiok/V/zt37iTPERYWhtLSUtGyhEuXLsHhcFDm5XA4uJgNg/ZZ/3ZBELjUxs8//4wpU6ZAoVBAKpWipKTEp7YQfRpIa2sruW65XM4Fc27evImamhqEhoZCoVD45OqfP39OvUSVSiVcLpdPQZ/7QB2Xy4UJEyaIFid1d3djxYoVlGabTCafWM8ZM2aQ8tzpdHKV9K9fv8a0adNoBKzVasXo0aO5njA9PZ26GcTFxflkhPv27YPdbofRaKR2EmJURWdnJ2pqamA2myGXy1FSUsJtAXrz5k20t7eTnNLjPzLcnhXm8AK+gQMHEoXscDi4SN+TJ09QXl5OKjU/Pz/uB3j48CHmz59PQV9MTAyWLl0qGg+xqZ3M20RFRXFTzBcvXmDKlCnkunNycrjZ15UrV1BRUQG73U5lpLwiqJcvX2LDhg20jSckJHDLRpjnYEVQgiBg3rx5oiDY8ePHUVBQQDiPL2rA27dvo7KyksbEnTx50vMHLGPh7U/79u1DXFwcpFIpVCoVkpKSuL05Lly4QE3spFIpwsPDffIc8+bNIzecl5fH9QK3b99GVlYWZDIZJBIJbDYbl3q/cOGCx+iu/v37c/fnU6dOISIigryawWDAtGnTuNKIlpYWaLVaGAwGhIWF+QTRz5o1C3a7HXK5HIGBgejo6OAKiph0w2g0oqioiIsqHz161KOlqUajwfr163sXAw0ePJjbIdl9aE9kZCRX9Ltt2zaPqZDJycnc+pPOzk40NDR4DBvmSfdu3brl0X1RoVBwy0GPHTtGK02hUPjESt++fRv5+flkHHq9HlOmTBEtaGJF7mwcW2BgoE/F3XPnziUIwM/Pj4vEHjt2jBTxKpUKBQUFXDnFsWPHiMXVaDSwWq2wWq24efNm7zxZDBc4ePAgfTCr1YqMjAzuh163bh3pGNRqNVJTU7lxyi+//AJ3BZRer8fEiRNF0Vv20dgWabFYuEXKBw8eJAbT6XSisrKSW4n37NkzjBgxggYR2Ww2LF26lLtNDh8+nJ4nMTHRpxZRy5Ytoy0iMjKSq1A7ceKEx9iW0tJSrnFcvnzZo36XvW+muvOZi/n8888pgA0PD0dQUBB3j25ra/MwjuTkZG628vjxY4waNQomk4msedKkSaLG4d66Sa/Xo1+/ftwpVZ988glsNhsRW2lpaVxYH27DD5nskbfl/fjjj5gwYQK9/PDwcK5O9eXLl1i8eDH0ej2Cg4MRFBTElX0ePnyY0vLg4GBUV1dzjWPjxo0eBsXKIIYNG0ZBNtcwrly5gqqqKvj5+dG2UlBQwCXqDhw44MHf+CKQZZmU+6gKX0aGNjc3w2AwQKPRQC6XixZPdXd3o6amBhqNhmKOyMhIn8Ap1gVIIpEgJCSEaxwnT56kd6BUKhEREeETt8JKXBUKBYKDg7kYzMWLF8kTKpVKjBgxgks8Hjx4kOgDjUaDoKAgKBSKXhUFAo/rYHu6TqeDQqFAXV0d9+IbNmzwUJDHxcX5tN+OGjWKmpwIgsCtJXn//j1qamrgdDqpEdvixYtF9SlsgB8rzejXrx9XSf/DDz94qO8TEhK4eMqRI0eoN4lEIvFJff/w4UMaZGi1WhEVFcUNYh8+fEhba0BAgE+C7C1btnh0RVSpVIiMjOwzyxFVTKWmppKaSafTYeHChaJ0/fPnzzFjxgyEh4eT/qN///5cFJZJC9k5rCBaTKf5448/eoz+9IUQmzt3LqXkTCLIC0gvXryI7OxsKBQKaLVa+Pn5ca/z9u1b5Ofn070lJydzvSebpmkymaDX62G327ltQ2/cuEFlFgEBAVwtLOssHRMTA7lcDolEApVKhSlTpnjdEbzebEFBATGEjCMQ8xxv3rzByJEjPVo3+dIBB4AwYsQIJCcnQ6VSQafT+bRqcnNz6QNYrVYsXbpUFDhbsmSJRzHTtGnTuKnsd999R6k5623G42OuXr1K3QolEgmSk5O53ubixYse5ZOhoaHcbeXOnTuoq6sjTOmTTz7hKvvmzJmDiIgIyopMJhOmTJniOxfDkDSGPrIALj8/X3SLePHiBcaPH08ui/UQ4xnHgwcP0NLSQjfMVFA8yL22tpZiFIvFwg1I2QwYtVoNPz8/DBgwgGu0169fJyJRo9Fwq/3evHmDuXPnol+/flQC4e/vzwXBtm3bhtzcXCoZqays5C6QXbt2IT4+Hmq1GrGxsVi7dq0oUdfd3Y3x48fT92Rj3Hbt2sWt/u+F27MJSEyMGxUVxS1/GDduHBFOLCPgCYVZ/1GGdprNZqSnp4umck+fPiXmkw2C5q20devWwWw2Q6fTQS6XIzw8nNvTZMuWLUhOTiYoPCgoiNtlwH0ig8FgQEZGBnf4IRsOxJ5n6tSpXEZ2yZIlhClZrVafBNmTJ0+GUqmE0WikMk0x2cLt27fJcLw2iLHZbEhJSeFiFlOmTCHwR6FQICcnh1uFtnv3bmorJZFIEBYWhnPnzuHRo0deK/o7OztRWVlJuEBsbCw3zWYtqlkMxXqdipU+zJ8/36MIKiYmhptJLViwgIJeg8GAtLQ0rhEeO3aMWmayiQxixvHhwwfMmzeP2G9fVHruHZXZdXJzc0W9Gpu7N3To0N4GwiLo0NBQ1NXViWIP79+/x6hRozyKjNLT07lBn3ulPNNa8PiYu3fv0rbCGGNeG8cvv/ySXKqfnx/i4+NFIeonT55g2rRp9DIdDgciIiK4W8SIESM89B/Dhg3j4ilHjx5FUFAQfezhw4dzC6cYT8SEWDyKv6enBxMmTPBohjxgwABRyP3WrVsYNmwY5HI5kpKSehsIK+3j1aycOnWKInv2EVJTU7nqrGvXriE5OZm8jc1m43qbFy9eUKCo1+sRGhrKVbaxEg5GcVutVq7OYvbs2RT0BgcHIzs7W/R5rl69ivT0dOodplQqkZGRwcWHPv30U0RGRhKqWlVVxTWoTz/9lIRB0dHR3LT8zp07NNPHZDIhLS2NO8Lt1q1biIqKgkqlgslkQlxcHD58+NBbR7l48WLRwOXcuXPUu9y9xydPxMyG47C9U6vVcrUM9+/fR3p6OqVjaWlp3DkrbPtiqzMiIoKLQq5du9ajfXZTU5NoRnT//n1UVFRAqVRCIpFALpf71D1p3LhxFMizANMXw2WSx6ysLG7flFOnTiExMREGgwEWiwVOp5NrHNevX6cBDEwolpub+7+D2lnE/fGs97a2Nu6quXnzJoE5rEfXxo0bRdOye/fuoaysjFYnb2IES+PYvFrmcXhB7OzZsyn9ZROdxHCbW7duobi4GCaTid6BL8KllStXktGGhYWhf//+3CB25cqVFMRGRUVxU+yDBw96zMMzGAzcGPLmzZtUPupwOKDRaKBSqSib9Nk43HEE9mLq6+u57vHbb79FRkYGvZysrCyut9m+fTuqq6spvsnJyeHC2mylsftLSUnBnj17vG6VL168QFNTEwXLDDASY2R/+OEHlJaW0vPL5XJUV1dzG9qysfOsE9DAgQNFjbCrqwuffPIJIbcDBgzg8ioXL14kLoY1+eex3+5zBM1mM0lGa2pqiLTkGsbbt2/h/vJ1Oh0iIiJQXl7OHQ2yYMEC0nIwiJonWlm+fDkRfAyF5BF869atI7o+KCgIMTExohjMo0ePMHjwYMqiIiIi8Omnn4rGXffv36fVzF5kSUkJl/1tamqCTqcjnogXc7DxKAyij4yM5NYkz507FwEBAXA6nVQbxPMc7gal0WgoOP84vuMayMiRIyGTyTzmztXW1opG3ZcvX0Z5eTkMBoPHDHue5nLWrFkICgqi62RnZ3PTxR07dlC5oVwuR1BQkKjrvnHjBkpLS+mZBEHgzsO7cOEC+vfvT4ZhMBiQl5cnCp+/ffsWHR0d5DmDg4PR3NwsKvl7+vQpoaOsn4mYFPHVq1eYMWOGR9Ncs9nMra/esWMHVUkqFAooFApERkb2qQjkllsy8ItlBaWlpaKr5syZM8jKyvJoGuvL2PXVq1dTpC6RSJCamso1jt27d1OBFhs1KtbP4+effyZImxnu0KFDuTNtmExSq9VCJpNhwIABotXyL168wKhRoyCRSGA0GqFQKLizfs+ePUuMrMViQUxMjKjn7OrqQltbm0e7K6fTyd1WvvzyS4SGhkIikVCBd3Fxsdf4hluUw8oTWVWdmOe4du0aZSqsZkOn03E9x9atW2mSpFQqRVBQEFcJtmvXLirQYm3ExXQW58+fJy/gTqKJxQLnz5+nEWbumhYxl//+/XusXLmS4ielUon29nZREfORI0cQGRlJHY0aGhq45RKstz7bjv39/blxytGjR2lBscXY0NAgmn15FZ+wQIztTbwVcOXKFcpU2OTF0NBQLs6xePFijxQzJSWFq7ncvn07BcwMRhfTg27cuBEJCQn00QwGA1JTU0XT+YcPH6K4uJhSeRb48ioFFy1aRCJmrVaLlpYWUZJz8+bNFAtIpVLk5eWJes4bN24QaMiIVLvdzpUi3r9/H/n5+ZDL5bTtDRw4sNc7OH36NJYvX07bdJ8yN7vdDrVaTXtufHy8aBp37Ngxj2mVBoMBISEhXLqaDQZwb7XJ+wBr1qyh+2J77+jRoyG2DbGiKYvFApvNhrKyMlHy8cCBA5QuMkY7OjpaVHt77do1lJeXQ6PR0NTv/v37czkf1ttNq9XCbDaL4jyrV69GcnIyNTWWSqUICwvjGsedO3cwevRoAjVtNhsqKys94qFTp05h6NChcDqd0Ov1feMgU6dOpQG7LFDMz88X1U8ePnwYaWlp0Ol08PPzg1arRV5eniiV/uzZMyxcuBAOh4NiFZlMJgofP378GOPGjaOPzYxq2LBhXmOiN2/eUIEWg6kHDhwoWgq5c+dOpKWlkfSAyQTFwLaVK1d6zNNlxij2DtzHuTIk2lvM8e7dOyxcuNBDoSeTyZCYmChKU3R3d2P58uWIj4+HUqmE0+lEREQEZs2a5aHr6ezsRFVVFX0LNjXMw0D27Nnjkd+zzntiK3rhwoUehcBsErUYoNXZ2YmxY8dSWsoUZ2JFWu/fv/do1q9SqaBQKDBlypQ+C4dev36Njo4OJCYmekx3TExMFN3yzp8/T6ks+9ihoaFeeZ+uri50dHR4kG5SqRQ5OTmixr5nzx5kZ2fTNcQQ1QsXLmDgwIHUNYiRjnl5eaJe8Msvv/RQ+Gu1WqxcubIXfcB0JXK5HBqNhsRUDofD00CY3pJBtLm5uR4UN8MI3r59i9OnT2P69OnkshwOBywWCwICArg4x6xZs+ByuTyyHDEo+MGDBxgzZgz0ej3UajXVlpaWllLgt23bNixevBiXLl3C2bNnMWvWLAKZQkNDoVarYbfbRT3hnj17UFxcTIZuNBphs9m89gF5/PgxRowYQZ2O2btgg6efPHmCO3fuoLu7G+/evcORI0fQ0dGBYcOGwWKx0CI0GAxe64O+++47j6mgCoUCJpMJra2tfW75V65cwdKlS1FdXY2EhASo1WrIZDLYbDYEBQX16p60fv16FBcXU3NdtmsolUq0tLR4Gkh9fb2HosndOO7fv4/GxkY0NDSgqKiI3Lw7H+NyubjgzNdff01Uul6vR//+/blpWWNjY69rBQYGekTspaWlJCRmZYnuMv7ExERRUfLKlSuprTUj3xwOh6g2pb6+3sPlS6VSBAYGemQ448aNg8ViQWxsrIeEgEkDtFotGhsb++wxX19fT81yWarMWl71lWKfOHGCgl33Q6vVYsyYMb3wlJMnT3rohiUSCbVDr6yspGvIhf/5l52dLfz666+CWq0WysrKhKqqKgn7b//6r/8q/PGPfxTevXsn/NM//ZMgCIJgtVoFrVYrWCwWQa/XCwUFBcLs2bPpnI//vXnzBv/xH/8hZGRkCKmpqYLL5RJGjhwpDBo0yOs5giAIGo1GyMrKEpRKpfAP//APgtFoFEaOHCk0NjbSeRUVFcKf//xn4Q9/+IPwl7/8RQgICBCCg4MFjUYj/PGPfxTGjBkjjBkzps/rHD16FF1dXYJSqRTi4uKEv/71r4LFYhESEhKEpUuX9nnOq1ev4HQ6hfT0dCE1NVX49ddfBZlMJgwfPlyYMGECndPe3i7813/9F923wWAQpFKp8Oc//1n4P//n/wiTJ08WGhoahJSUFI/rdHZ2QiqVCmlpaYJUKhVCQ0MFnU4naLVaoaGhQcjMzOx1X3K5XMjLyxPCw8MFQRCEv/71r0JUVJSgUqmEkpISobKy0uOcpqYmyX/+53+ip6dH+Lu/+zvht99+E9LT04Xk5GTB6XQKWVlZEkEQBAkAOunq1asICAgQ+vXr1+sGuru78f79e+HXX38VPnz4IISHhwuhoaGCSqUSYmNjhYSEBNEP/X/779WrV/iv//ov4Y9//KPw93//90JycrKQl5fX61q3bt3Cv/zLvwi//fabYDAYBIvFIthsNiExMZF7X8+ePYNUKhUkEonwpz/9STCbzUJ6errPz/PixQvodDohJibG6znv3r3DX/7yF+F3v/ud8Kc//UlISUkRsrOz/5+8s/+bf93d3fjYUAVBEP6/AQDVX5moJef2CwAAAABJRU5ErkJggg==#0#0#4294967295##KGlDb2RlLlFULlRhYlRpcG9zCkZsZWNoYQpwMQooZHAyClMnb3BhY2lkYWQnCnAzCkYxCnNTJ2Zv|cm1hJwpwNApTJzEnCnNTJ2NvbG9yaW50ZXJpb3IyJwpwNQpJLTEKc1MnYW5jaG9DYXNpbGxhJwpw|NgpJMzYKc1MnYTFoOCcKcDcKUydkMmQ2JwpwOApzUydhbmNobycKcDkKSTIKc1MnY29sb3InCnAx|MApMNDI3ODE5MDA4MEwKc1MnZGVzY3VlbGd1ZScKcDExCkk1CnNTJ3Z1ZWxvJwpwMTIKSTUKc1Mn|cG9zaWNpb24nCnAxMwooaUNvZGUuUVQuVGFiVGlwb3MKUG9zaWNpb24KcDE0CihkcDE1ClMnYWx0|bycKcDE2CkkxNgpzUydvcmRlbicKcDE3Ckk4CnNnOQpJMTI4CnNTJ2FuZ3VsbycKcDE4CkkwCnNT|J3knCkkxNgpzUyd4JwpJMApzYnNTJ2Rlc3Rpbm8nCnAxOQpTJ20nCnNTJ3JlZG9uZGVvcycKcDIw|CkkwMApzUydhbHRvY2FiZXphJwpwMjEKSTE1CnNTJ2NvbG9yaW50ZXJpb3InCnAyMgpMNDI3OTg5|Mzk4NEwKc1MnbGlWYXJzJwpwMjMKKGxwMjQKKFMncG9zaWNpb24nClMnbycKdHAyNQphKFMnYTFo|OCcKUydjJwp0cDI2CmEoUydncm9zb3InClMnbicKdHAyNwphKFMnYWx0b2NhYmV6YScKUyduJwp0|cDI4CmEoUyd0aXBvJwpTJ24nCnRwMjkKYShTJ2Rlc3Rpbm8nClMndCcKdHAzMAphKFMnYW5jaG9D|YXNpbGxhJwpTJ24nCnRwMzEKYShTJ2NvbG9yJwpTJ24nCnRwMzIKYShTJ2NvbG9yaW50ZXJpb3In|ClMnbicKdHAzMwphKFMnY29sb3JpbnRlcmlvcjInClMnbicKdHAzNAphKFMnb3BhY2lkYWQnClMn|bicKdHAzNQphKFMncmVkb25kZW9zJwpTJ2wnCnRwMzYKYShTJ2Zvcm1hJwpTJ3QnCnRwMzcKYShT|J2FuY2hvJwpTJ24nCnRwMzgKYShTJ3Z1ZWxvJwpTJ24nCnRwMzkKYShTJ2Rlc2N1ZWxndWUnClMn|bicKdHA0MAphKFMncG5nJwpTJ2MnCnRwNDEKYXNTJ3NpTW92aWJsZScKcDQyCkkwMQpzUydncm9z|b3InCnA0MwpJMQpzUydwbmcnCnA0NApTJ1x4ODlQTkdcclxuXHgxYVxuXHgwMFx4MDBceDAwXHJJ|SERSXHgwMFx4MDBceDAwIFx4MDBceDAwXHgwMCBceDA4XHgwNlx4MDBceDAwXHgwMHN6elx4ZjRc|eDAwXHgwMFx4MDBceDA0c0JJVFx4MDhceDA4XHgwOFx4MDh8XHgwOGRceDg4XHgwMFx4MDBceDAw|XHRwSFlzXHgwMFx4MDBceDBlXHhjNFx4MDBceDAwXHgwZVx4YzRceDAxXHg5NStceDBlXHgxYlx4|MDBceDAwXHgwMFx4YjFJREFUWFx4ODVceGVkXHhjZUFceDBlXHg4MjBceDE0XHg4NFx4ZTF5XHgw|ZlxuRGNceGEyXHhjNFx4ZDBceDk0XHg5ZVx4YzRceGIwXHhmMSxceDgwXHgxY1x4YzFceDgzeVx4|MTM4RldceGNhXHhjMkRJXHhkNFx4OTVceDg5Xlx4YTBceGVkXHhlMlx4ZmRceGJiWVx4Y2RceDA3|SFFceDk1XHhhNlx4ODdceGM0XHhlYVx4YTNceGNmS1x4ZmVceDFkSVVceGFlXHhkZVx4OGZceGU3|XHg4NVx4YWRceDE5fCJceGZlYmtceDA2XHhkZVx4ZWZmQVx4MDgiTlx4ODRceGE5XHhmYVx4OTBc|eDg4XHg5MyBceDA0XHgxMVx4MWZceGMyVD1ceDk3XHhkYlx4OTlceDhkXHhlZVx4MDIidFwnXHgw|OEFceGM0XHg4Ylx4YTh1XHgxYlx4MGVRXHhlYjYuXHgwNFx4OTFceDAzXHg5MFx4MDVDXHgwMFx4|OThceGE4XHhjOEdceGVmXHgwMFx4MTA5XHgxME1ceGI0WVx4ZGZceGMxXHhiY1x4MDBofFx4MTMy|Klx4ZjJceDExTFx4MGJceDgwXHgxN2VceGVhXHhlYVx4MWJceGYwXHhhZCFceGE1blx4YTRSXHgw|N1x4ZTBceDFjXG5ceDgxXHhkMFx4ZTdceGYxXHhmNVx4MDFceDgxSEJcdCFyXHg5YT1ceDAwXHgw|MFx4MDBceDAwSUVORFx4YWVCYFx4ODInCnA0NQpzUyd0aXBvJwpwNDYKSTEKc2Iu|#KGlDb2RlLlFULlRhYlRpcG9zCkZsZWNoYQpwMQooZHAyClMnb3BhY2lkYWQnCnAzCkYxCnNTJ2Zv|cm1hJwpwNApTJzEnCnNTJ2NvbG9yaW50ZXJpb3IyJwpwNQpJLTEKc1MnYW5jaG9DYXNpbGxhJwpw|NgpJMzYKc1MnYTFoOCcKcDcKUydkMmQ2JwpwOApzUydhbmNobycKcDkKSTIKc1MnY29sb3InCnAx|MApMNDI3ODE5MDA4MEwKc1MnZGVzY3VlbGd1ZScKcDExCkk1CnNTJ3Z1ZWxvJwpwMTIKSTUKc1Mn|cG9zaWNpb24nCnAxMwooaUNvZGUuUVQuVGFiVGlwb3MKUG9zaWNpb24KcDE0CihkcDE1ClMnYWx0|bycKcDE2CkkxNgpzUydvcmRlbicKcDE3Ckk4CnNnOQpJMTI4CnNTJ2FuZ3VsbycKcDE4CkkwCnNT|J3knCkkxNgpzUyd4JwpJMApzYnNTJ2Rlc3Rpbm8nCnAxOQpTJ20nCnNTJ3JlZG9uZGVvcycKcDIw|CkkwMApzUydhbHRvY2FiZXphJwpwMjEKSTE1CnNTJ2NvbG9yaW50ZXJpb3InCnAyMgpMNDI5Mjg3|Njc5OUwKc1MnbGlWYXJzJwpwMjMKKGxwMjQKKFMncG9zaWNpb24nClMnbycKdHAyNQphKFMnYTFo|OCcKUydjJwp0cDI2CmEoUydncm9zb3InClMnbicKdHAyNwphKFMnYWx0b2NhYmV6YScKUyduJwp0|cDI4CmEoUyd0aXBvJwpTJ24nCnRwMjkKYShTJ2Rlc3Rpbm8nClMndCcKdHAzMAphKFMnYW5jaG9D|YXNpbGxhJwpTJ24nCnRwMzEKYShTJ2NvbG9yJwpTJ24nCnRwMzIKYShTJ2NvbG9yaW50ZXJpb3In|ClMnbicKdHAzMwphKFMnY29sb3JpbnRlcmlvcjInClMnbicKdHAzNAphKFMnb3BhY2lkYWQnClMn|bicKdHAzNQphKFMncmVkb25kZW9zJwpTJ2wnCnRwMzYKYShTJ2Zvcm1hJwpTJ3QnCnRwMzcKYShT|J2FuY2hvJwpTJ24nCnRwMzgKYShTJ3Z1ZWxvJwpTJ24nCnRwMzkKYShTJ2Rlc2N1ZWxndWUnClMn|bicKdHA0MAphKFMncG5nJwpTJ2MnCnRwNDEKYXNTJ3NpTW92aWJsZScKcDQyCkkwMQpzUydncm9z|b3InCnA0MwpJMQpzUydwbmcnCnA0NApTJ1x4ODlQTkdcclxuXHgxYVxuXHgwMFx4MDBceDAwXHJJ|SERSXHgwMFx4MDBceDAwIFx4MDBceDAwXHgwMCBceDA4XHgwNlx4MDBceDAwXHgwMHN6elx4ZjRc|eDAwXHgwMFx4MDBceDA0c0JJVFx4MDhceDA4XHgwOFx4MDh8XHgwOGRceDg4XHgwMFx4MDBceDAw|XHRwSFlzXHgwMFx4MDBceDBlXHhjNFx4MDBceDAwXHgwZVx4YzRceDAxXHg5NStceDBlXHgxYlx4|MDBceDAwXHgwMFx4YjJJREFUWFx4ODVceGVkXHhjZUFceDBlXHg4MjBceDE0XHg4NFx4ZTF5XHgw|ZlpceDg4XHhjNkRceDg5XHhhMSk9XHg4OWFceGUzWVx4MDA5XHg4Mlx4MDdceGYzJnBceDBjVlx4|Y2FceGMyRE1ceGQ0XHg4NTFceGQxXHgwYlx4YjRdXHhiY1x4N2Y3XHhhYlx4ZjlceDAwKVx4YTZS|XHhhNDtceDkzXHhiOFx4YmRceGNmT1x4ZmVceDFkRVIuXHhlZVx4YWZceGRiXHhjOVx4YjJceGVi|fSJceGZlXHhiMlx4ZWNceGZhXHJvZ0FceDA4IkpEXHhjOVx4YjZceDBiXHg4OThceDA4Qlx4MTBc|eGQxIUpceGI2XHhkZFx4OWFceDhiXHhkOVx4YjBtXHg4MyFceDBjXHhkYlZceDEwXHg4Mlx4ODhc|eDE4UTVceDAxXHgxMVVceDEzXHgxNVx4ODJAXHgxM1x4MDBceDFkXHgwY1x4MDFgXHhjYyhceDFm|XHhiY1x4MDNceDA4NFx4MTFoXFxceGQyXHhlYVx4Y2FceGUwXHgwN1x4ODBceGRhXHhiN0FnXHg5|NFx4MGZceGY0OVx4N2YqXHhkMmdceGRmXHg4MG9ceGI1InVJSU1ceDAwXHg4ZVx4YTFceDEwXHgw|OH1ceDFlX29ceDg1XHhhYkJcdFx4MWFceDkxXHhhYShceDAwXHgwMFx4MDBceDAwSUVORFx4YWVC|YFx4ODInCnA0NQpzUyd0aXBvJwpwNDYKSTEKc2Iu|#iVBORw0KGgoAAAANSUhEUgAAAEAAAABACAIAAAAlC+aJAAAAA3NCSVQICAjb4U/gAAAACXBIWXMAAA7EAAAOxAGVKw4bAAAQpklEQVRogdVaS48cR3LOrMrKele/Zjh8jUaPlUxCkLWkD6JtSIJseHUQlgABCb76ZPjmo3+FfTQsXSQIgmAZhmQdDNBLYmW9DKxs6kGtRGpFQdRwhjPTze7p6qquZ1alD9+wxa7OJrn2YbF5mJnuicrMyIz44ouIor/8l38S2ZT8fg5muUxk0zKZ/K538n8f2u96A//f8XuvALvzw+Xv+90jGw2JOIr29vbyojBNPp1OfT9gun74yGHD4A3Jvd3d/f19y7bDMHQcmzHDNM2jR482xKSU165dMxiLp1PTNMuyaLVatu10u92GZJokW1tbVVVxzqMoanc6dV07evVHjx1TK9A9svHXf/t3jVm++OKLTz75pNPphGFomibnXNO0p59+em1trSH5zjvvTKdTSqmUUgjRarUIIefOnWuIZVn2xhtvaJoWBMF4PPZ93zCMY8eOPfXUUw3JK1eufPzxx61WazKZWJalaZpt25c+uninDCP3GoyxTqdTVVWn09E0raoqTdOklIuSnucVRWEYRlVVrutKKTVNYaKapnHOgyAoy7LX60kpMeeipK7r7XZbCNHr9aqq0nVdCKFROjcbfv33F9+IWrEnKEAp1TSNMVbXNWMsTdO6rhclDcOAboZhGIYhhMjzXDmn67p5nmuapus6HkySRDkhZpNSMsaklHVdl2WpUMCy2DIF6rrOsgxqMMbyPDcMozELRlEUOCfTNOM45pwLIRbFpJRZltV17bquEIIxNp1OoUljCCGEEFJKzjkuihBSzZ/dgQJP/MEjFlMjUlVVvu/nea7relEUuFPLshYlGWOaplFK8zwPggCGtCim67qU0rbtJEksy6qqCt6iVNWyrLqusfsgCOq6tkxTocBdhud5+/v7lmUNBgNCSBiGhmHEcbwoSSnVdT2KoqqqRqMR53w8Hi+KwRqTJIEYpTRN06IolEtPJhPDMIbDISFkPB4DjuYW/cXrfz+LxFdviT/+sxdg8dPptN1uYzFKaVEUmqbhxgkhVVVlWcY5n0wmtm0zxhzHwVHBUimllFJcep7ndV1rmlYUxcrKiqZpYRiurq72+/0gCLIsMwyDEIK9SimTJGm325RSzjkhpCgKXD7nvK7rf//XN356/OBiDSeYQ6EwnFy9ejUIgjRNGWO3bt1ijJ0+fXpjoxkcPvjgg52dHUIILhe7P3v2LLZy53jrrbeyLOt0OqPRyHGc0WjU7XafeeYZQsjDDz88E+v3+5cuXfJ9P0kSzvne3p7jOCdPnnz00UcbE/7qP88Tks4+HihwcGaEeJ5XlqXnedgcIaRxZRjwARwY/sadLCqgaVq73c7zvNVqUUqFEFmWLU4opfQ8L8/zdrtdFAVjrCxLJTQ158evr769XlYS4KhpGvBe1/U8z5X+KqVEwGKMQQzxclHSMIwsy2CKVVUBi5VbEUIAuIDFgOz7VWDj2GHONM45LJsQYpomEFN5A9i9pmmWZSVJYtt2lmVKR4QnADGB90pshXqUUsMwZn9Pp/fm+QcKBJ5DCMmLAl5FKc2yrNVqwb6V20LsjKLI9/27QKEQwnGcyWRimiZQeBnk27YN1M/z3PO8uq6VS6sVOFDD9/v9vmmag8FASjkajTRNu4shxnFcVdUM45R0AEhFKe33+5TSKIqUQdD3/eFwyDnv9/uEkOFwaBjG/dzAHIxeGYi//Ku/EUIAtgCgw+Hw5s2bnPOyLIUQvu9blrW6ugrrB7rBKra2tqbTKbiGpmmtVosx1uv1ut1uv9/vdrvj8djzvCzLrl69ahgGeAF4kWmaq6urM7TFf6Mo2tzcBLkqy9L3fdM0P/iPd//wqI0NN2HU9/3jx483VAzDMEkS0MyqqmCdjz32WK/Xa0heu3ZtMBi02+3xeOw4DjZ35swZQgiEQWCLovjoo4983y/LUtO0NE2zLNvY2FhfX29M+M033+ASoBUgu5p3oYNLz/K8WsKFTNMEW9R13bIsxlhRFGmaKoUB5J7nwRGXmZ9t28A3Xdc551VVKUO7aZowB0LIDNmjeA5UDhT47Ktvs7JSLoYppJS6roMCEELoPKfF0HU9yzJd10FFKaVKc6/ruq5rGAkCdlEUygmLojBNsyxL0zSllGVZlmXJ9DmrOVDgweNH+BIyh/WQTOB0wYSVqgIx67rWdb0sSyWQw3PuZN34qVwdOoD/mqYJtqJQ4MihnqGrFbBtGyxtNBoBzsE1FiUNw/B9f39/H/YTBIEyH6CUgnpUVZXnuW3bZMmVwmKllGEYWpaFaJ3Nz3nvUJdlmRAiSRLG2M7OThAE0+lUeQNlWY5GI9M0d3Z2cF3KcwWydbvdvb093/fjOIbwomSe5yCCwN8gCJIkaWRkczD66Wa0ceKnoEPg9KZpnjhxotPpwCRmN/7pp5/u7e1pmgZiA8lTp065rotYDh8VQrz33nvT6dR13SiKGGMrKyuu6544ccKyLOQYILDT6fTixYu4NMQ+13UfeuihQ4cOIZMEO+Kcv/qP//BwcOCuTRgti8KyLKAbDA5MfTHKWpaFUA2vKMsyyzLHcWzbhknMUpmyLLFX2EAcx5TSTqdDCIHk7J4BTXBuTdOiKJpVBu4cnPM72eiBJfRH41pKqh0weACOruv4uDiKovA8D7snhEBsGTQh2AGIcd6LYpqmlWU5S9ZAFpetPvcgfo1Gk1oSpjN6e4BFEkKUjug4DjgmwqSu63Ec3yXThx0zxrIsW+bZsE+E/6qqhBBKFFYrsLba1SlN0hQsDaYM21CS5CRJpJSu684YMuooi5LweM45EB2YtihWFAXWgucgFf4t6HSn5VFKWkGAsNXv96GD7/tKxLQsy3Gc/f19cptvgsMuSvq+j7NM0xR+pdyH7/vkNkCBnPu+r0x91ApgpFkmhADH3NnZyfN8f39fuWRRFOPxmFI6GAzSNB0Oh2VZKk12xjHLstzd3V3GGoCYaZoKIXZ2doDIy7S9c8zB6FZmL5YWP//880uXLoFKxHG8srJimuZzzz0HJLlzvPvuuzdv3ux0OoPBwHEc3/dd133hhRcWlX/llVdmYU5Kuba2tr6+fvr06YbklStXPvzwQ13XdV2fTCaA1G8vf7I0qVeOIAg45+12ezKZrK+vg+EkSbKogOd5hw8fLooCBV1N05ZV5g4fPlzXNcpNyGOWlVUcx2m1WmEYbmxsgAhHUUTIj+WmAxPauzVSeSAhhIRhGARBHMdATICdUhLUwDAMXdfhD0obgBjS7rsjJpaeTCbIDSHWWP02G/36Wlaq6RT8GFk5wnAcx0oqgVCFrYPBLwNWTAWQqesameSiJA4OdUVCCAgpUZK5P/+T05ahNidcLhATtBYAtSiZJIlpmpRSFAxd11UaBrIixhiwEmorVUVNlnMON8DfeTFnlgcKGIypMJAQQlAhm0wmVVWlaQqecycLmA2k7UII0J6iKJRis2wBvDWOY2Do4tB1HSlbmqYwXSGEZc3NOXfqUtZxHINBgNNjW5RSUGjsHiVLVHnJ7foXIm5DLAzDPM+xNsIqamG2bfu+Px6Pq6qyLAsXhRp1WZao2czoDHgXKInruo24NKfA9evXX3/9daRUcRx3Oh1wzMUuy4ULFy5cuNBqtUajkW3bjuMwxs6ePbt45C+//DKiO2x9bW3N87yXXnqpIba9vf3qq69yzg3DmEwmvV6PMfbkk08uLn3zu68UpUWMIGj5vo9T7HQ6qAQq42u73T5y5EhZlseOHYPAsi7L0aNH4RtpmgIxzfn6OIbnea1WC8nGDDEXxRbHwZLfbd6UkkzjGIUtpNtgI8pUA10wICZ6AmVZKl0WWURZlq7rgiYqI3Ecx61Wazqdep6HiiUh5LegEpMoqaVELQkdERS1kyRRNimwM1QXgW5gpotiKP8DvoQQdV0r2aFpmmEYokUCUCqKQlmWVStw6vGf6BrVdB0J6+xh13XDMFx8DGA6a10hpirZL6goiL5lWejfKPWEA1RVhUBhWdZkcu9XCOasFsgznU6rqgINXoaYaGyhVYFuyLI6JuhtGIaU0jAMHcdZZtw4dfAU3Kpy6eZO7vxg21a73XYcBym8lBKUa3NzE1WNKIqQ43HO19fX0bZBkSdJkjAMb926ZZrmZDLBRm3b7vV66Atxzl3XBTjeuHEDpgVbRQOh2+16nofQW9c16MP169dhdVEUAbjredIxp0C73fnZz37WUPGzzz47f/78rGCIAtGZM2eeeOKJhuTbb78dRRGwKM/zlZUVIcSLL77YEMuy7LXXXoM+4/EYjawHHnjg+eefb0h+9dVXFy9ehFYw6SAIbty48cCJH3vs92ajpmn2er2iKA4dOgSsBBFYlGy1WnCeLMuCIFjmhbqug2NmWba2toYwpySIpmm22+2yLFdXV1HhStPUtFRdyi+/+f4uje66rgEjs4RVCXDw16IoYD+oLCyK1XWNCs+sk4JqxbKlUSjBT8ZYHM/V3A8UYLpGlvBpVNVh6PAtwLlSMk1TxBBkmMrQRgiBpc3a1yhbLIrleS6lBIPAukIIg6lqoyd/ssGWlBbhi6jVoBMzY8KNgR49aoYAWeW2EPsQ3cCgPM9T1vDg8eDewHdCSONQ7t3otm0bHdxbt24BCi3LUt44pp5Op0II9MaVQI4mYlEURVFMJhO8eaBMaNCAw6Lod3DOG22buZz425H807/4ORaI47jb7SIyIEih9oRyPpoGjLEoilApQZUTNBZPIaCiJYNEB41uQsju7u7KyspgMJg1ulEywrSo+aF8jYY+qAqW/sW//fOpBw7odzMnHo6Gly9fnnnY1taW4ziPP/74yZMnG2fz/vvvb29vz3gEMOfcuXOLbOLNN98syxK81ff97e3tlZWVZ599lhBy4sSJmdju7u758+cdx0FSClt95JFHTp061Zjws//65VI2SgjFazwAL9RTlRQNrx+hg4KaOwq9iwowxvByDe6TLCn1UUpRR2u321mWua6Ls1+UbIwDH7jy3SYhZBZWkTvPWhvKJ2dNB5hKnudKl0Xp3DAMYNey7BHZFprTqOGBCtyvArbFpSTa7QQAtVispKzMgZOBfqGfuaw0AvhDDgBTVnI+7BX3iUIqSvz3q8CDxw5TSkQlbNuGI+KNCSmlkqVJKYGYqKoTQjzPW8bSOOd4ewQ+rWTdyCFn3UjbtnVdvx8yN2cevh+MRiO8pyKlnCXdi4/NmpBFUeCdHyXrxu5hzcPhEI0M5UWhA4JMv6qq8XgMiLunAnNOvL+7ORqNKiEOus2cy7q+0m7/z4cXGo/t7uzEcazpWlGUnHNRlpTS14bbi25w5euvO51OfzDodjphGCJm7X5/pSE2jePd3V2qabKuS1Fyg4uqardal3/1fkNytPPD8YcOzT7OxYHZgEU2TGJrb3jsULfxZV3XlDbaVmSvP+j0Vvk8PVvEAynlDzcHDx471PhSEtKYcXt3eHTtx6WjaVoKQQhZWTuiRpjNm3u/vrbV+HIURtc2dxtffnn1u6SYZwFSfvrr3+RiDgFFnn30xbXFhcKo+TbED1u7X357o/HlJE5+c3179rEUotvyO4E3iRP1DZRC1JKY87W6oiiZwRpnkxcl50bDeZMss02TLkiafM59pZRpXjjz9Hg0DnMhj6y05yZMM6pptnlgn6Mw6gReUQpqeoxZipxdAROEGKqcUfllywnuU5IvLL6merYx4YrlTeKEm1ar0/1fuFu5o6CkVWUAAAAASUVORK5CYII=#0#'
p12
sa(dp13
g3
VBook Good Companions
p14
sg5
VBook Good Companions#Mongolian Baiti#N#125#100#2#100#100
p15
sg7
S'4279613142#4294967295#4294967295#KGlDb2RlLlFULlRhYlRpcG9zCkZsZWNoYQpwMQooZHAyClMnb3BhY2lkYWQnCnAzCkYxCnNTJ2Zv|cm1hJwpwNApTJzEnCnNTJ2NvbG9yaW50ZXJpb3IyJwpwNQpJLTEKc1MnYW5jaG9DYXNpbGxhJwpw|NgpJMzYKc1MndGlwbycKcDcKSTEKc1MnYW5jaG8nCnA4CkkyCnNTJ2NvbG9yJwpwOQpMNDI3ODE5|MDA4MEwKc1MnYTFoOCcKcDEwClMnZDJkNicKcDExCnNTJ3Z1ZWxvJwpwMTIKSTUKc1MncG9zaWNp|b24nCnAxMwooaUNvZGUuUVQuVGFiVGlwb3MKUG9zaWNpb24KcDE0CihkcDE1ClMnYWx0bycKcDE2|CkkxNgpzUydvcmRlbicKcDE3Ckk5CnNnOApJMTI4CnNTJ2FuZ3VsbycKcDE4CkkwCnNTJ3knCkkx|NgpzUyd4JwpJMApzYnNTJ2Rlc3Rpbm8nCnAxOQpTJ20nCnNTJ3JlZG9uZGVvcycKcDIwCkkwMQpz|UydhbHRvY2FiZXphJwpwMjEKSTE1CnNTJ2xpVmFycycKcDIyCihscDIzCihTJ3Bvc2ljaW9uJwpT|J28nCnRwMjQKYShTJ2ExaDgnClMnYycKdHAyNQphKFMnZ3Jvc29yJwpTJ24nCnRwMjYKYShTJ2Fs|dG9jYWJlemEnClMnbicKdHAyNwphKFMndGlwbycKUyduJwp0cDI4CmEoUydkZXN0aW5vJwpTJ3Qn|CnRwMjkKYShTJ2FuY2hvQ2FzaWxsYScKUyduJwp0cDMwCmEoUydjb2xvcicKUyduJwp0cDMxCmEo|Uydjb2xvcmludGVyaW9yJwpTJ24nCnRwMzIKYShTJ2NvbG9yaW50ZXJpb3IyJwpTJ24nCnRwMzMK|YShTJ29wYWNpZGFkJwpTJ24nCnRwMzQKYShTJ3JlZG9uZGVvcycKUydsJwp0cDM1CmEoUydmb3Jt|YScKUyd0Jwp0cDM2CmEoUydhbmNobycKUyduJwp0cDM3CmEoUyd2dWVsbycKUyduJwp0cDM4CmEo|UydkZXNjdWVsZ3VlJwpTJ24nCnRwMzkKYXNTJ2NvbG9yaW50ZXJpb3InCnA0MApMNDI5NDk1OTEy|OUwKc1MnZGVzY3VlbGd1ZScKcDQxCkk1CnNTJ3NpTW92aWJsZScKcDQyCkkwMQpzUydncm9zb3In|CnA0MwpJMQpzUydwbmcnCnA0NApTJ1x4ODlQTkdcclxuXHgxYVxuXHgwMFx4MDBceDAwXHJJSERS|XHgwMFx4MDBceDAwIFx4MDBceDAwXHgwMCBceDA4XHgwNlx4MDBceDAwXHgwMHN6elx4ZjRceDAw|XHgwMFx4MDBceDA0c0JJVFx4MDhceDA4XHgwOFx4MDh8XHgwOGRceDg4XHgwMFx4MDBceDAwXHRw|SFlzXHgwMFx4MDBceDBlXHhjNFx4MDBceDAwXHgwZVx4YzRceDAxXHg5NStceDBlXHgxYlx4MDBc|eDAwXHgwMFx4YjNJREFUWFx4ODVceGVkXHhjZTFceDBlXHg4MkBceDE0XHg4NFx4ZTF5XHgwM1x4|MGJEY1x4YTJceGM0XHhiMFk4XHg4OVx4YTFceGYxLFx4ODBceDFjXHhjMVx4ODN5XHgxMzhceDA2|XHg5NVJceDk4KFx4ODlaXHg5OVx4ZThceDA1dlx4YjdceGQ4XHhiZlx4OWJqPiBceGU0U3FceDhj|Q1x4YTVceGEzXHhhM1x4Y2RPXHhmZVx4OGUiXHg4ZlZceDhmXHhlN1x4ZmJSXHgxOVx4ZjY2XHgx|MVx4N2ZVXHg4Nlx4ZmR+XHhjNzkgXHgwMlx4YzJLXHg4NClceGQ4XHhiOURceDljXHgwMiIgXHhi|Y0NceDk4XHg4Ml1ceGJlXHhlNWw0W3dceDA4XHhjZDYgXHgwMlx4YzJbRFx4YTlceGQ5OENceDk0|XHg5YVx4OGRXXHgwOFx4MTFMXHgwMFx4MTJnXHgwOFx4MDBjXHg5Nlx4Y2FgXHgxZCBceDgySVx4|MDRceGUzZi13XHgxMlx4MGJceDgwXHhkYVx4YjYhXHhjOVJceDE5KFhceDAwXHhiY1x4MTIlV1x4|ZGJceDgwb1x4YjVSclNceGIxTFx4MDBceGNlXHhhZVx4MTBwfVx4ZWVfXHgxZlx4OGJceGZhQlx0|a1x4MDdceDE5XHhjMlx4MDBceDAwXHgwMFx4MDBJRU5EXHhhZUJgXHg4MicKcDQ1CnNiLg==|#4278190080#4278190080#False#KGlDb2RlLlFULlRhYlRpcG9zCkZsZWNoYQpwMQooZHAyClMnb3BhY2lkYWQnCnAzCkYxCnNTJ2Zv|cm1hJwpwNApTJ2EnCnNTJ2NvbG9yaW50ZXJpb3IyJwpwNQpJLTEKc1MnYW5jaG9DYXNpbGxhJwpw|NgpJMzYKc1MnYTFoOCcKcDcKUydkMmQ2JwpwOApzUydhbmNobycKcDkKSTIKc1MnY29sb3InCnAx|MApMNDI5NDk1OTEyOUwKc1MndnVlbG8nCnAxMQpJNQpzUydwb3NpY2lvbicKcDEyCihpQ29kZS5R|VC5UYWJUaXBvcwpQb3NpY2lvbgpwMTMKKGRwMTQKUydhbHRvJwpwMTUKSTE2CnNTJ29yZGVuJwpw|MTYKSTkKc2c5CkkxMjgKc1MnYW5ndWxvJwpwMTcKSTAKc1MneScKSTE2CnNTJ3gnCkkwCnNic1Mn|ZGVzdGlubycKcDE4ClMnbScKc1MncmVkb25kZW9zJwpwMTkKSTAxCnNTJ2FsdG9jYWJlemEnCnAy|MApJMTUKc1MnbGlWYXJzJwpwMjEKKGxwMjIKKFMncG9zaWNpb24nClMnbycKdHAyMwphKFMnYTFo|OCcKUydjJwp0cDI0CmEoUydncm9zb3InClMnbicKdHAyNQphKFMnYWx0b2NhYmV6YScKUyduJwp0|cDI2CmEoUyd0aXBvJwpTJ24nCnRwMjcKYShTJ2Rlc3Rpbm8nClMndCcKdHAyOAphKFMnYW5jaG9D|YXNpbGxhJwpTJ24nCnRwMjkKYShTJ2NvbG9yJwpTJ24nCnRwMzAKYShTJ2NvbG9yaW50ZXJpb3In|ClMnbicKdHAzMQphKFMnY29sb3JpbnRlcmlvcjInClMnbicKdHAzMgphKFMnb3BhY2lkYWQnClMn|bicKdHAzMwphKFMncmVkb25kZW9zJwpTJ2wnCnRwMzQKYShTJ2Zvcm1hJwpTJ3QnCnRwMzUKYShT|J2FuY2hvJwpTJ24nCnRwMzYKYShTJ3Z1ZWxvJwpTJ24nCnRwMzcKYShTJ2Rlc2N1ZWxndWUnClMn|bicKdHAzOAphc1MnY29sb3JpbnRlcmlvcicKcDM5CkktMQpzUydkZXNjdWVsZ3VlJwpwNDAKSTUK|c1Mnc2lNb3ZpYmxlJwpwNDEKSTAxCnNTJ2dyb3NvcicKcDQyCkk1CnNTJ3BuZycKcDQzClMnXHg4|OVBOR1xyXG5ceDFhXG5ceDAwXHgwMFx4MDBccklIRFJceDAwXHgwMFx4MDAgXHgwMFx4MDBceDAw|IFx4MDhceDA2XHgwMFx4MDBceDAwc3p6XHhmNFx4MDBceDAwXHgwMFx4MDRzQklUXHgwOFx4MDhc|eDA4XHgwOHxceDA4ZFx4ODhceDAwXHgwMFx4MDBcdHBIWXNceDAwXHgwMFx4MGVceGM0XHgwMFx4|MDBceDBlXHhjNFx4MDFceDk1K1x4MGVceDFiXHgwMFx4MDBceDAxXHhiOElEQVRYXHg4NVx4YzVc|eGQ3XHhjZE5ceGQ0UFx4MThceGM2XHhmMVx4ZmZ7XHg5OFx4YjhkXHhjMWJ0akVceDg0XHgwNC5c|eGMwIHFDXHgwMlx4ODkuXHhiY1x4MDQuQDZsXHhiOVx0d1x4YWVceDhjW1x4MTZceGRjXHgwNCZs|XHg4ZEZceGQ5XHhiMCExXHhhNFx4OGNjXHg4YnBceDAxXHg4NFx4YTRceGVkXHhjM2JceDE0Jlx4|OTRceDBlLVx4ZTFceDFjXHhkZVVceGNmR1x4ZGVceGU3XHhkN1x4ZDNceGE2SVx4ZTFceDgxXHhj|Ylx4ZmVfXHhlOFx4ZDdceGUzLlx4MTNuXHJceDg3OFx4ZDdceGI2XHhjZFx4MWZceDlmXHgwNlx4|MDNceDBjXHhjM21ceDBmXHhiM2hceGE4UVx4OGFceGRjXHhhYVx4Y2RceGE2XHgwN1x4YmVceDAx|XHgwZVx4ODBcdFx4Yjd2XHgxOVx4MGVgXHgxNmFceGRhXHhkNWFceGI0XHgxMFx4MDZceGUwUGVc|eGM1XHhlOFx4ODVAXHgwY1x4MDFceGU3XHhkYUZKXHgxZlx4MDJceGUxXHgwMGxceGZlXHhmOFx4|MTRceGI5VURceDE2XHgxYWFceGEzXHgwM1x4MWRGXHgwYlx4OTh2MXpceDk1XHg5ZCJDXHhiNnJc|eGRmL1x4YTZdXHg5Zlx4MDhceDhkXHhhOFx4MDBCI25ceDA0XHg4NERceGQ0XHgwMkIhXHhjNlx4|MDJCIG5ceDA1XHhmOEY0XHgwMlx4ZjhENFx4MDZceGY4Qlx4YjRceDAyNEJ0XHhkYyt7XHhmNmdc|eGQwXHhiNFx4OWZrXHgwYlx4YjBceGQ5XHhmNFx4MDBceGQ5Slx4ZWRnOy82XHhkYVx4ZjRrXHJc|eGI4XHgxZGFceDkzXHhkZVx4MDFceGI1XHgwOFFceGEwYlx4YWJVXHg5Zlx4YmJceDAyLjNceDdm|P1x4OGRceGM5XHg4YlxyXHhjYyZRXHhiMWUvTlx4YmVceDA2XHgwNTQpXHhmNVx4ZTMpXHhjOFx4|ZTdceGEwXHhiM29ceGQzXHg4M1x4YjNceGQxXHhiNTs/XHg4Mlx4YzZceGUxSVx4YjRJXHg5OWdc|eDk0XHhmNlx4OGRceGIySHRceGQ0e1x4MTlceDBjXHhhMFx4YTNceGY4M1x4ZThceDAzXHhkOFx4|YTNceDdmU11KPklXXCdceGVmXHJceGEwJFx4ZGFEXHhjNVx4ZmJceGNhXHg4Mlx4YjFIXHhkMl1c|eGJhXHgxYVx4ZmFceDA4XHhlZlx4YzdTXHg5NHk2clx4ZTdceGQ3XHhhYVx4ZGNceGIxXHg5OVx4|YmZvXHhjMVx4ZGJcdFx4ZTRzXHhmNVx4ZTFceDAwXHhlZVx4OGRceGZhXHhmMVx4YjJHQGdceDFm|OFx4MTlceGJiXHhhNSw+elx4MDNceGQ4XHhmNFx4ZTBceDBjXHhlM1x4MWRceGUye1x4ZmQuXHhj|OVx4MWJceDAwXHhjMFx4OWVnP1x4OThceGM5XHg5NlBceGYxXHgxYVx4ZTlLXHhlNVx4ZDdceGM3|dVx4ZDZ9ZVx4ZGZYXHhlYVx4YzdceGNiSnp7Slx4OWVceGZjVFx4MWEvXHgwNlxyXHgxZldceDE3|USFceGVlXHhmZFx4ZjlceGVhXHhjOEFceDAwXHgwMFx4MDBceDAwSUVORFx4YWVCYFx4ODInCnA0|NApzUyd0aXBvJwpwNDUKSTIKc2Iu|##iVBORw0KGgoAAAANSUhEUgAAAIgAAACGCAYAAAAGsMIiAAAACXBIWXMAAAsTAAALEwEAmpwYAAAABGdBTUEAALGOfPtRkwAAACBjSFJNAAB6JQAAgIMAAPn/AACA6QAAdTAAAOpgAAA6mAAAF2+SX8VGAABSz0lEQVR42uS9Z3CUZ5Y2/HTOuVsttXLOEkqgLISEhAJKSCAEAoTIYDKYIDDBZAPGgEkmGTCYDCaabCyywIgotmq2tsozVTsbZna3dn54dt/r+7P3mW6kfu7et+r99VH11FSN+9GTzn3uc67rOudIAAj/f/33/v17xMXFScR+093djZSUFMn/9m8fOHAAer1eiI6OFtLS0nw6v6urC//93/8t9O/fX/L/8rk/fPiAmJgYn64hcTeQ+/fvo6CgoM8TOzs7cejQIeGf//mfhZSUFCErK0uorq7u87fHjx/Hq1evhJ6eHsHpdApRUVHCoEGDhH79+vX5+7dv36Kzs1P43e9+J/z222+CWq0WTCaTsHDhwj5/f/PmTVy4cEH405/+JISEhAhGo1EICQkRWlpavD70Tz/9hGvXrgk3btwQfv/73wsGg0GIiooScnNzhaVLl/Y678qVK7hw4YLQ2dkphIaGClFRUcLvfvc7ISIiQmhra+vzWdauXYt3794J//iP/yj88ssvgslkEgRBEGpra4Uvvviiz3vbsmULLly4IPz7v/+78Ic//EH4t3/7N6GlpUU4cOCAxJsRnTx5Uvj111+F3377Tfj9738v1NbWCp9++qnoB+/s7MTly5eF27dvCxKJRIiPjxfy8vKE9vZ2cUMBIAAQJk6ciLS0NPz8889g/x879uzZg/j4eEilUkgkEkgkEsTGxvb6HQBh06ZNiIuLg0KhgCAIUCgUCAkJwbZt2/r8/aVLl1BRUQGr1QqdTgeVSgWdTofw8HB0dnb2OufOnTvIzc2FIAgQBAF2ux0ymQx5eXl49epVr98/ePAAixcvRnx8PNRqNQRBgEQiQUBAAPz9/bFnz55e5yxZsgQxMTFQqVR0HblcDkEQUFFRga6uLnx8jUmTJsFsNtPfZ+cJgoCxY8f2+ezjx49HcHAwJBIJ/Pz8oNPpIAgChg8fjp6enj7PWb9+PYKCgiAIAmQyGQRBQGNjY5+/ZcebN28wbtw4qFQqyOVymEwmCIKArKws0fMA/M1ARowYgZkzZ/Y6Yfny5XRDer0egiBApVJhxIgRvX67YsUK2O12CIIAi8UCo9EIQRCQnp6O69ev9/r98ePHUVRURB+A3bjNZsO0adP6vPlRo0ZBEATodDqEhobSR5gzZ06fvz9w4ACio6Ppd1qtFnK5HEajEbNmzep1zt69e6FQKOjlOxwOGAwGCIKA3NxcXLx4ER+//PHjx9PfdzgcsFgsMBgMMBgMmDBhAh49etTrOosXL4Zer6d3yt7r6NGj+1ykAIRjx44hOTmZriOXy5Gbm4sDBw54/dDPnz9HY2MjZDIZtFotXSspKQkbN27s87w7d+6gl4H0dXz66af0R9nHs1gsmDdvXq8/3NHRAYvFQh+BveDc3FxcuHCh1++3b9+OgIAAGI1GyGQyyGQyqFQqhIeH47PPPuvzxlevXg2bzQZBEGA2m+nDjR49utfv7927h6lTpyI3NxcWiwV6vZ48iMvlQmNjI96/f+9x3pMnT5CTkwOpVErXYUd0dDSOHDnS6zrr1q2j3zocDvq91WpFc3Nznwvjzp07cLlc0Gg0UCqVUCgUiI+Px+rVq71+6JcvX6K2tpb+vlKphL+/P7766iuv57x79w7Tp08nT2g2m+Hv74/m5mbcvXu3z/Pevn2LhoYGbNiwAaIGMnPmTPj5+UGpVEKj0UAQBAQFBWH//v29/vA333wDl8sFQRBgNBrJmAoLC3H+/Plevz948CB9XGaASqUSFRUVfX4Edo3o6GhIpVJyxYIgoLi4GPfv3/c459WrVygvL4dCoYBKpYLFYqHruFwufP75531eo7q6GoIg0L0ZDAbIZDIkJydj165dvc7ZvXs3IiIi6OUzbxAaGor58+f3eY3vv/8eY8aMgVQq9dgmV65cKeruly5dirCwMEgkElitViQkJOC7777zes6tW7dQUFAAPz8/aLVaSCQSOBwOr16DHZs3b0ZQUBA+/fTTvg2kp6cHY8eOJbevUqmg1+uRmZmJ48eP9/rjFy5cQHp6OiQSCZxOJz10U1MT3F2V+0sNCgqCQqGgl+Tn54dp06bh+fPnfd78lStXUFRU5BHXGAwGjB07tk/3vWrVKpjNZoqZ2D0FBQVh/fr1fV5j3rx5sNlsMJvNUKlU5G1KS0tx9epVr9sdMzy2ShMTE/t8TwCEr7/+GlFRUVCr1XA4HFAqlUhPT8eWLVu8frQbN26grKyMPLJMJkNRURHOnTsn6m3Ky8vpGRQKBSoqKnDy5Emv59y/fx/t7e0IDAyETCajmLGXSxo6dCisVivkcjk0Gg10Oh3a2trw8uXLXn98//79SEtLg0ajgUajgVarhdFoxNChQ/u8kZ9++gkVFRVQKpWQyWS0UseMGYMXL170ec758+cxaNAgyOVySKVSSKVSpKSkYO3atX3+/ujRo4iPj/dwxYIgICwszGugvH37dvj5+ZFHMxgMUKvVmDlzJh4+fNjrnO7ubowbN44Mg8Va0dHROHz4cJ/X+Oqrr+Dv7w+lUkmeaerUqbh586bXj7Z//35ERERAqVSSVy4qKsKzZ89EvcCYMWPoOZRKJcaOHes16GWxYEZGBhm5XC5HR0dHbwOpqamBw+Ega1WpVFi6dCn62qc2bdqEwMBA+gAKhQJarRZTp06FN6tuaWkhq2bHiBEj+sxWWFCWnp4OQRCg0Whgs9mQn5+Pb7/9ts/ff/jwAY2NjfR7s9kMpVKJkpISr1vX3r17kZiYCJVKRbFEaGgo1qxZ4/WFNjU1wel0khdgnsPbfX3zzTcICwujGE0QBEycOBHv3r3zeo2zZ88iPDyctlOtVotRo0bh8ePHojFHaWkpTCYTZV3Lly8XNaZly5YhKSmJjEkulyMnJweXL1/2NJAjR47QhxYEAYGBgdi5c2efq2fUqFEUkLH/jY+Px969e3sFfgCE27dvo3///uTy5XI5nE4n5s2b53U1nDlzhlwxu6+pU6fiw4cPXh943LhxcDqdtNrUajWmT5/u9RpXr15FQkICBd8sGF+3bl2fv3/y5AlGjx7tsZUajUaYzWYsWbLEa8xRWFgIlUpFwXhZWZnoR9u2bRsKCgroHLPZzDWODx8+oLa2lmK0wMBALFy4UPQ6y5cvR1hYmMeCzcrK8vCCAgDhl19+wcSJEz0eevbs2b3++MOHD9HU1AS5XA6lUkl5f3V1tdd9+saNGygsLIREIqFgNzY2tk/8wf3DMSyFufuhQ4fi9evXEFsJLEgMCgpCVFQUVq1aJfqCamtryVuytLSvDM0dCnAPYlUqFaZPn97nQmLvKysrC0qlkmKV0tJSWp19HUeOHEFERATUajWUSiWkUimam5u9bsHsKCsrg8FggEajgcvlEk19GZ7CFoVcLofZbEZ2djYOHjyIPnGQkSNHkveYMmVKn4BTVVUVxRtsf6+srBR1lZWVlVCr1TCbzVAoFMjKysL3338PMasODw+HwWCAxWKBRqPByJEj8csvv3g95/Tp00hISIDFYoFEIkFKSgquXLni9fePHz9GRUWFB7YTGhoqmjIuXboUGo2Ggl61Wo0FCxZ4ffanT5+ioKAAVquVFl59fb1XjIPFKeHh4QgPD6fgvbW11esW7B4sM+9kMpm4GdHBgwc9vKC/vz9mzpyJ7u5ueAXKhg0bBkEQkJqa2mub+O6771BYWOixh9psNixatMjrjTx8+BBDhw6l4I/97b7SXnfElrk89uEWL14s+rC3b99GYWEhreyqqirR9O/nn3/G8OHDPRDSpKQkbN++3es5u3btQlRUFPR6Pbn8iRMn9vlCAQidnZ3Izs6m+EQul2PgwIGiAen169eRnZ1N92UymURxEXa0tLRAKpXCYrEgNjaWm8Z+++23SEpKoutUVVVh7dq1ePPmDUSR1Pz8fDidzl6R/t27d2m1sSMuLs6rW2XH0KFDoVAoaMUNHDjQ6zbEXGv//v1hNpthNpths9m4ARYAob6+nj5CcXExfvzxR9FzlixZQtG6RqNBRkaG18wDgPDjjz8iJCSEAkWj0UgRfl/HgwcP0NTURGgvg87F7qunpwe1tbVwOBxwOp0IDAz0itV87HGCg4NhtVoxaNAgnD17VvScU6dOYcCAAeQ1ysrKcOvWLfgEtVdWVqKlpQUfp6WpqakeKzovL090Jbx58waNjY20XYWEhGDs2LG4dOmS13P27t2LmJgYMkA/Pz9u/HD37l3U1dURUJWfn98LMPv4WLRoET2H3W6H3W7vE/hzN9qEhAQYDAbodDrEx8f32qPdj2fPnpF30ul0MBgMfVISH58zZswYyqCCg4O9Zlzux5dffomQkBDo9XoMHjy4Txji46CfBeQ2mw1JSUlecac+DeTj49y5c0hJSYFWq6UVV1RUhKdPn3r9o2/fvgXjSlggJwYCsYg9ICAAgiDA6XTCarWivLycSz4VFBSQQQ0aNAg3btwQPWfLli0IDAwkY+/Xrx8OHTrk9ZyTJ08SByUIAlpbW/skA92ziOHDh1OcYjKZuMZx7do1DBo0iHChoKAgfPHFF6LnvHz5EqtWraI0dsSIEaLfhAWkiYmJUKvVUCgUqK6uFo2FuAayY8cOpKWlEXOr0WhQUVGBe/fuef2jr169wtSpUwnnkMlkohkBAOHw4cMICwuD0WiEwWCA2Wzm7qFv3rzBrl27YLFYYLFYMHbsWNy+fVv0nJ07d8LlcsFoNEKpVCI+Pr5PBNadYY6Pj4fBYIBWq+Uil3fv3kVNTQ3Cw8MhkUigUqnwySefiGZd586dQ3JyMmWCSUlJogYLQHj9+jXmzp0LuVxOnBXPc0yePJm+CUOfnzx54pNx9Gkg27dvJ1fEjiFDhojeyM8//4zy8nL6fXh4OMrKyvD27Vuv5+zbtw/x8fEUyFmtVq5xnDt3Djk5OXA4HHA4HFi4cKFoBsVkDKmpqRQP1NXViRrH2bNnUVhYSGlpTU0NfvjhB6+/v3nzJiZMmEDZSlpaGhFd3o7u7m7U1tZ6EI++xFstLS20BTc1NfWJObl7tObmZspWrFYrlixZIoqocg1k8uTJCAkJoTTWbrdj/vz5ojn4nTt3MGTIEEr94uPjMXfuXNGbP3DgAJxOJ2EQ/fr1w8aNG0Vv/tChQ0R1BwQEoLm5mfugkyZNoq3O4XCgvb1ddN89ceIEAgMDIZfLIZPJkJWVJZp1ARAGDhwInU4HqVQKlUrF3SJu3ryJsrIySKVSwnhGjx7tNYtgWdHw4cMJ6UxKShJdsN3d3RgzZgzUajWkUin8/PwwdepUrrf57rvvsGLFCo9gl/7jxo0bKbC02Wyw2+2i0TojeJjnkEgk6Nevn1e+gx1bt25FREQEkXXV1dXczGPbtm2Ii4uDIAiIjIzE+vXrRY3p9evXqK2thVqtpsxj3LhxoigsI9KYF6ytrRUNet+9e4fm5mbiYXQ6XZ/40cepbFxcHHQ6HeRyORwOB9ra2kSN9vHjx6SZMZlMyMjIEM1W3r9/j/b2dthsNvJqra2t3MW0Zs0aREZGQi6XIzs7mwJlih8qKyspdsjMzMSXX34p+kd//vlnZGRkwGq1QiaTISoqipuabdu2zSMHLygoELXq169fo7293QMh/eyzz0S3levXr6O0tJSCOD8/P66hr1+/nl6mv78/GhoaRO/r+++/R3NzMy2oqKgor1C7e0bI8Bqr1YqQkBDuO7527RrCw8NJN9LU1NSnvsT9mDNnDm0rgYGBmD59uuhWz5yDu4TCHSwlUKugoAByuRyFhYU+3XhWVhYZVHp6Ovbt28c1DpZFsJRRLAfv6elBc3MzHA4HdDodwsLCMGPGDJ9xEavVivDwcKxfv17UoJYuXQqn0wmtVgulUomamhrR4PL69euoqqqCIAiQSqVwOp3clPzp06eoq6sjL5CUlMT1NgybstvtkEgkXhV27kd7ezt0Oh10Oh2cTqdPcU1jY6NHHGg0GhEZGUloN/1w0KBBUCgUorgAo4bj4uIgl8uhVqsRGBgoClGzvZ3FDwxoE4PbWTzEiLqcnBzRLIIdCxcuRHBwMBwOB7RaLTeLmjp1KgIDA8kT1NfXi8ZOr169QmNjI8UbTqeTi3Zeu3YNKSkp9AGCg4OxbNky7rO0tbURcs1Ll1+8eIG2tjYKrDMzM0WRYXZMmTKFQgp2blNTE3766SfPGIStVt4LXbduHYKDg4mHiY+P55JCq1atglqthkQigVqtRkxMjCgQ9ObNG7S2tlLgZ7VasWLFCu7Dbtq0CZGRkQTONTQ0iHqOGTNmeNDiI0aMEI1RHjx4gIaGBiLp5HI5vvnmG9H7+vDhA/Ly8ijFHDJkiCjIyK7T0tJCGU5FRYUoDwVAqKiogNlshk6nQ1RUFK5du8Z9X3v37iUDZGLxcePGeediLl++7JUWf//+PebOnUtkmMvlQkhICM6cOQMeFBwaGgqXywWtVouoqCjRc54/f45x48aRyzMajdyti3kCg8EAqVQKjUaD+vp6rzzJkydPMGnSJPj7+5PnqKmp4QaKgwcPhlqthlqthtVqRUdHh2jm8fbtWzQ1NZGIOzMzs09t7sdxCtsijUYj6urqRD/2L7/8ggkTJtCHDgsLE6UN3DOp2NhYureIiAiv+hefcuFJkyaRlQmCgJSUFC6Gv27dOlgsFgp+cnJyRLOCS5cuoaSkBHK5HFarFXFxcaJkIAuUm5qaCGyyWCyi3ubdu3eYPHky9Ho9yR0LCgpw9OhRiEHUWVlZpDHR6XSiUgWGwo4dO5YynJSUFBw7doyL8ZSWltI2XFpaKmq0THfL0vjY2FifFtPnn3+OsLAwghjCwsJEkwuucdTW1kKhUBA2kpKSwo0ftm3bRjC10WhEbm6uKAp76tQp2qeZoIbnJm/fvo309HTyAtHR0aKxUHd3N8n/mTtubW0VNfT9+/cTR6TVapGbm4uvv/5a9L4OHTpEuJBCoUBmZibXOK5fv07STa1Wi+LiYq8e8GP2XaPR+CR6Zgi5v78/fZchQ4aILg5RA3n69CnGjh1LgaLZbMaQIUNEX+jdu3cxevRoqleJioriRut79uxBUVERWXReXh4XnGLiHeZaIyMjuexya2srlEolscu8CH/Tpk2Ijo6m4C0jI0NUY8IC+MzMTPK04eHh3LR03bp1KC4uplSeh7/cvXsX7gGszWbzKbtbs2YNfReLxYK6ujqfUFWvAhyWytntdhgMBtTV1XFJJOYidTod9Ho9N8LfsmULUelqtRoZGRk4ceIEd1uZPn06Bb4ul0s0Yn/9+jVmzZpFrtvlcqG+vl70GmvXriUswWAwIDIyUlQRztT97gRiTk6OKPPLEGVmGDabDZmZmaJB7K1bt1BUVETVBiEhIV41wB+LsNgC1Ol0KC0t5YqQ+jSQV69eYdWqVcjPzyf3pdVq0draKooNnDp1CoMGDYLD4YBEIkF6ejrXOKZPn06wuVKpRP/+/T3SK29ZQVNTExUbabVarueYNGkSTCYTIiIiYDabuSnj7t27qcYnMDAQ/v7+3C3i0qVLaGhoIFVXRUWFT1uRw+GgAD4zM5MrV5g4cSJpbEJCQrB161afAvjw8HAolUpYrVZMmDCBm0m5k3m93CqTuzHo3FsdiXvNSnFxMa2chIQE7gtdtmwZtFotpXIjR470yZqXLl1KKyEpKYmbRU2aNIk+tt1u50oPTp06hZycHHoWs9nstcbFPfNKTU2loDc4OFg03mK4kNVqJfS2rq6uz/IK9/hp+PDhUKvVkMvlSEhI8Fr28XFGxKQUWq3WJ+Ds8ePHmDx5Mnbs2OEJlB0/fhwxMTEeBUO8TOXQoUOIj48nnarRaOTexI4dO2A0GqFSqaBSqdDW1ubTXrh582Zy+wUFBX0WZblzRC0tLRThFxUV9VkZ535cvHiRPCcLlidPnix6zvv371FYWAi1Wo2AgAAMGDCAiwvt378fdrsdKpUKJpMJEydO5JJoRUVFUCqVVI/MSxKePn2K8vJyEpebTCaMGTOGC7k/ePAAJSUlHouW/uPs2bMpFqipqRGlxNmDBgYGUtAXExODTZs2iZ6zcuVKUmsbDAbU1tZyjePly5eYOXMmfbjq6mrRyPv69evIzc2lWt+GhgbR1cm2FVbgLZVKkZiY2Keq/+PtuLa2lrKckJAQLs6xYsUK+Pn5ISAgAH5+fj7B7dOmTSNcKDw8nBvX3L17Fw0NDZRiWywWKqMUOx49eoShQ4eSfLO2tvZvBvLu3TuCwr1Vo7v/oenTp0Ov1xP+UFZWxt0/29raIJVKoVQqodfr++wk0BeekJGRAbvdDr1eD5fLJbp6nj59itbWVvIc4eHhXC/Y0dEBf39/IsScTieXeLtx4wZKSkqgUqkQFBSEpKQk7odbsGABYSlyudxr7Q07fvjhBwwcOJAEyTxdK5NesEBZoVDAarVi4sSJ3Pd87949FBQU0KJyOBwYPHiwpwdpamrCpEmTRPPv58+fY/DgwZDL5VAoFDCbzZg8ebIopP3+/XvMmjWLKvZcLhcWLFjAvektW7ZQVR3TjIjhHD09PQSFq9VqhIaGYvPmzVylWX5+PnnBlJQU7N69m+vRmKwyNDTUJ/3ojh07KBYICwvrs1rx4w/t3rKCF2+wKsSsrCzIZDIqUZ0wYYIo2suY6X79+nmUqRqNRrqmh3iWZ2XMBalUKpjNZlRVVXEBoLq6OqhUKkgkEkRERPgk5T9x4gTpP3Q6HZKTk0WFOAyzYW41PDyc+1IPHjwIu92OiIgISKVSmEwmrkE9f/4cs2bNot/zPvTbt2+xbNkypKSkwGAwICYmhoI/b8fRo0dpYVitVixatEiUI2KGHhoaSoYeEhKCyZMn92p009c3zc/Pp/hGqVQiNDTUYwH7BLWfPn0aSUlJFMAGBQWhsbFRNLg6c+YMZQQmkwkBAQE+7YWsVpZF3s3NzaLbxIULFzBkyBAq7s7JyeFC4d988w2Rjiyd5Z1z9uxZjBs3jrYvXzKvyZMnU1yTnp7O9U579uyh+4qIiPBJ6LN06VK4XC5IJBJIpVLo9XpMnz6de97169eRlZUFm81GXZ3q6up6vWuucdy8eZMCMZvNBqfT6VNwxfZCf39/ZGVliRYzuafMrMzC6XRyDerGjRuorq6GWq2G0WhEYWEh1+WfOHGC3Lder0diYiL27t3LdcPuVMCoUaO4QNP06dNJ8O1yubjGsXLlSopR+vXrxzXA169fo6amhuJAtrX6ohu5dOmSR5GWxWLBmDFj+sS6BJ64tri4GAqFghC/MWPGcFfnsGHDoNFoYDKZkJOT41P9xY4dO0htFh4ezuUWvvrqKzidTlgsFkilUqSlpXFxkYsXL1LhkNPpRGxsLBe5/eabb6hKTq/Xi3bncQenGM7j7+/PVauPGTMGRqMRWq0WdrudG8Cy4FqlUhEXFRAQwC3WZrtBfn4+VCoVNBoNIiIiRCEA7l7IkDulUomGhgbRIHb//v20f2q1WjQ0NHCN49GjR2hubia1mVar5Qpqpk6dSj1A/P390djY2Kt3WF/ehqngVCoVsrOzuYji2bNnKRYyGAwYPny46Lb64cMHsAJvVuPDu0ZbWxsBhiaTifvsb968wbRp0+BwOEhzGxoaypVVskCWBaSMfOUJsbyCUtHR0VAoFFAoFDCZTGhqahIVrrBmJ+xBKyoquMbh3ndLKpVCq9Vi+PDhXgEdprEICwsjLGXYsGHcYOz06dPIzs6GRqOhRnG8l7lt2zbq6WE2m1FRUSG6rXR1dSEvLw9qtRpBQUGQy+XYunWrV4Xas2fPMHjwYKpF9qX0oaenB+3t7R49VgYPHixa0uou3GL6D6vVCoPBgK1bt4q2lOiTi9m4caMHaGSz2biuq6OjA3a7ndKk5ORkPHjwgBtB5+TkUOZhMpm89vX6uN6XNaRbtWoVty3CL7/8QlSAw+FAa2srF7ncvn07HA4H3VtJSYno89y6dQvl5eXEsAYGBorC+i9evEB7e7tHWskD5gAI8+fPp3SZpdk85JZJMWUyGTQaDcLDw1FXV+eThNPDQI4dO+bh6jUaDWJjY712zXHXJbDIXq1Wo7W1VRQGd9dyMDFRZGSkqIv88OEDWltbPUoheSkmy6QYfB4QEICZM2eKeps7d+5gwoQJJF0MDAzE1KlTRc+5ceMGhgwZQo1biouLuVLEefPmEXej0+m4geXr16/xySefkAcwm81IS0vj6ocZEsu2k5iYGCxfvlxUd8sqHlk8R//n4MGDPRrIZGdni0b3r1698ihJMBgMXOke43z69+9PkoCAgADRB33//j1KSkqoPFMQBDQ0NHAf8uTJk0hLSyOKf9GiRaKM9Js3b8Aq15RKJWw2W599VD/2HKzBnFarRWFhIRftXL58OXmOyMhIzJs3j0s3tLe3UxrLtCm8beX58+eYP3++h56Fp9ADIHz22WcIDAwkeQcFiu5FQw0NDaLlhl1dXaipqaHU12w2Iz8/n+vuz5w5Q7Uher0ecXFxohH0y5cvUVFRAYlEAoVCAaVSieHDh4sWUTOdBevso1aruSWdr169wuzZs4ldTU5O5gq4nz59in79+sFisUAul6O+vl60udz79++xZs0aEhPl5ORwWW8G0TPPodVqMWTIEK6gav/+/SgsLIRer4dcLkdqaiqXrAQgTJgwgWIip9OJFy9e/O2FshWalJQkiiWcOXMG6enpVDYYEBCAOXPmcHEBFkGzgvDg4GDRVkw9PT2orq6Gv78/dDodrFarT3T1+fPnKVtxuVyora3l3tvo0aM9OhDzXub+/fupZ6tMJkNra6so3fD27VvMnDmTcI6amhqf9KMzZswgrxkdHe1T7HDlyhXKVNRqNaKiorjaFBbfuHdsDA4ORnd3998MhNHiYrjAkiVLqLDbaDQiKCiI2wGIEU+pqamQSCSQyWQICwsTZX67u7tRVVUFlUoFpVIJpVLpk3tcvHgxIiIiYDQaYbFYfCIEJ0yYQI3oIiMjRbsbsvpVVlfMWinwiEp36WZOTg63XQPDXxiloVKpMHz4cJ/QUSb8ZrwPT5sCQNiwYQPFnsyICwoK/rbF7Ny5E1VVVV5dV09PD7744gtywUqlEpGRkT65rfPnzyMzM5OMKjY2VlR5fuPGDerwx4qoq6uruenY7Nmz6cX4+/tzdZoPHjzAwIEDPXqG8OqKr127RkEvK0vg9SVhJRkMPueBeeyDMXExg8B5XvDNmzeEwSgUCoSHh3OxIdZunX1Xlj5HRERQdaVPXExHRwe9SEEQkJ2dzW13xLKVsrIyOJ1OOJ1OJCYm4vTp06IdegYNGkRuLiAgANOnTxeVH3R3d2PhwoUwmUzQ6XRISkrqswDo4y6KmZmZHlMPeFD4xYsXydCTk5Mxf/580aCXteV077TEq/x3b3TDWqDn5ORwxdI3b95ERUUFNBoNZDIZoqOjRbdvd8E082xarRZarRaVlZV9V/d7Sy9Xr15NuIhWq0V5eTlOnTrFvfjx48cRGRlJXEFWVpZoEPvkyROKHfR6PaxWKzfH7+7uRk1NDSnNXC4XN/U7ceIEEhMTPdpS8gTJa9asQVJSErWznDRpEldp5t5WKisrixsosyJyhtxqtVqMHj2aq2e5du0aBg4cSMaenJzM9bZMvMRgBgaGjho1qpc8QBDLVGbOnEnAjNVqxezZs7kYB2sOk5SUBLlcDolEgszMTNHY5tGjR8SRMPKIV0D++vVr1NfXk7dJTEzkGtTJkyeRm5sLiUQCrVaL0tJSLgq7cuVKyvBMJhM35mLzb5iut7S0VNRrMsHWxo0bSeFvMBh80sycOXMGGRkZpPCPjY3lbmGPHz/GmDFjaGQJm7XjDbvxmt+PHj2aLEwqlZLCiHccPHiQaH7W1lkMG3j79i3t64xA45FVP/30E1pbWyn9S0lJ4bLFe/bsIUZWrVYjISGBi1l8/fXXxGQ7HA5uXPP+/XsqFzGZTBg8eDDXA/z0008eAKXL5cKoUaO47/rbb79F//79iXKoqKjwybOPGzeOYAOtVovo6GhRo+oTTWRjMdjLrKqq4lrmq1evsGnTJspWjEYjiouLRffC69evk0TOaDQiJyeHqyI/d+4c6urqiCfy9/fnVrJ//fXXpLNQqVQoKiriSgS3bt0KnU5H7cDnzp3LrddhPUO0Wi3y8/O5rv7p06ceWYcvfWFZms36zwYHB/vELbGAlO0IUqkUERERHu+hL8DO4wPv2LED1dXVFLjY7XbU1NRwyyDfvHmDUaNGUbRut9u5geLr16+Rk5NDozcSExO5Rvjdd9+hf//+5L7T09O55yxatIi6+qhUKtHJEu6FU4xwi42N5ba32Llzp4cAKTs7mysjYAgpexaXy4UhQ4ZwA9+Ojg6KN+x2O/Lz87nX+eWXXzBjxgyiKkwmE2JjY71iKu4KNg+2z71xPsP7fYk5PvnkEyprDAsL45JuJ06cwMCBA6lZvdPp9GlFs1jA5XKhubmZq7xfvXo1tW9iKjBeK4UNGzYQFD5kyBDu4hg/fjwcDgfMZjO0Wi0GDBjAjTk+fPiAYcOGQaVSEYudnZ3NrcedP38+XC4XSThra2u5BvX48WOqeDQajbBarSgsLBTFR65evUqVAOQeJRIJBS1sWhTvA3ysH7VYLFxA6+zZsx5DCUNDQ7np3/r16+FyuQg6b2pq4t7XypUrPZT3paWlXM6DqbqYXoQXwB44cAA2m4221Pr6ep/EUYMHDyYOSyKR+CTFXLx4MXloq9WKzMxMbq/Td+/eYfDgwZSxabVazJkzx6shvnv3DtOmTUNgYCB9R3pQtVpNNz1kyBBuAMdgXfcOh6NHjxbddy9fvozy8nJSuOfn54vCwG/evMGaNWtQWFhI+3RJSQnXq23fvh3h4eEeBeE80GjGjBmQSqUwGo0+kYGnT59GRkYG3RevvYX7tsICX5PJhIULF3K9QFVVFaxWK+ltysvLuec8efKEPjYrZxDT6Lx69QrNzc3Q6/XQaDSeZN2GDRtIb5mYmOgTAvf9998TW2q1WjFixAhRt7Vv3z4KSE0mE2pra7kNcJcsWULUOxMh8dz3Z599RlulyWRCdXU1V9X1ySefeFTt8Yzj+++/x8CBA8kLlpSUiLYaZ7DB6NGjyQuwbo1ixOPDhw9RUlJCHkChUHAxGEbX5+XlUazCkGVv36enpwcjRowgb2swGMirk9u3WCwIDQ3lws1MSc4IodjYWKxfv97r3t7T04OFCxfSiwkJCcHixYtFpfwvX77Etm3baMVoNBrMmzePW+Mxe/ZsOJ1OgoynTZvGZX4nTZpEo0/Hjh3LXZlXr15FYWEhZVHNzc1cpJM1wWWoqt1u55Y/sEa4DC6IjIzkxnashzubxcvYdm8jY90DX/f26RaLhURVHrSyL2zp0qVLERMTA4lEgvLycu6KXrBgAfEKbAXw6jy++uorop01Gg33AXt6ejBnzhwCmgICAnoNJujrmDt3LnE+48eP55JoZ8+eRXFxMYFz+fn53GdhCncGn4eEhPgkP5g5cyZNvlCpVNzuzQw6j4qKImllcHAwF1NasWIFYmJiYLFYyICHDBnyv6uLYfgDG+QnlUpRVlbGrXn9+uuvkZGRQfjD0KFDuavtm2++IaAtMDCQW2j17NkzjBo1itBEg8HANY7nz59j2rRptK2mpqZyA/KrV696tIgqKSkR1cy4r06WAmu1Wm5B19u3bzFmzBiPvqU8yIBloQwb0Wg0cDgc3Gvt27cPsbGxHpPFs7OzPZ7LJ+P44osviKgSBAEtLS1cMqijo4P0o4GBgT4pz909h5+fH7cxb1dXF5KSkggwY7NZxM7p7OwEwx9Yu21fOgeVlJQgKCgIGo0GgwYN8olGZ/OE/f39ERAQwEVIX79+jcmTJ5OrZ3ICMSHS27dvsXDhQsTHx1NT49jYWK/DqRmHxUTMzBAlEgkGDx7cC7/hGsfnn3+OoKAgkrvFx8dzya2VK1cSnCuRSLjo4MuXL6m5HBvlzmsM88MPPyAqKor6f7AJ3GJppntZgtFoRGlpKTcj2rFjh0eP1+zsbG77hffv3+PAgQME7RsMBp/6lg4aNIgyQiYn4NXgrF+/nlpLSSQStLS0cJ9p06ZNHuPgAwMDMWPGjD7jNW4ZJKt0Y6JXMUDrw4cPaGtrI36ANWblUdWMv2Bjy3gv89y5c4iKiiJFV3BwMDd+YmkcywgSExO56iw2Q455m8LCQu622tnZCff5f06nk6se6+rqQltbG4mLQ0JCUFhYyMVtPvvsM2KM5XI5Bg0axAUCt2/fjoCAANpS1Go1VqxY4dVLiQYvNpuNmsOkpaWJeg429JDFKHq9HlVVVaIPuXv3bhQVFVHzmUGDBnH1locOHUJKSgrMZjMsFgtMJhO3FvXRo0eYNGkSZTc1NTVciP7zzz8nAk2pVKK2tpa7rXR1dZGH0mg0iI6O5nYRfPbsGVjHQqVSiYCAAIwbN45rHDt37qRu1waDAXPnzuWWc7B2GsygYmNjuWlzn7j96NGjIZVKiS3NyckRzfOvX79Olf8sfqioqBBdoZs2baI0lhWE8xRqP/zwA3ExMpkMarWaWwqK/5kK6d5/lIdALl68mPAXhUKBcePGcT3HpUuXKE5j1fK8zOPevXse8wBVKpVPqez+/fsRHh5O08CGDBnC7R60f/9+8qBSqRQDBw7Etm3buNtRL3kgg8GtViv0ej0KCgpEWzkeOnQImZmZVFuqUChQX18viiesXLmSioxYMQ8Poj958iSKi4up/0V8fDy3XYN75yS73Y7p06dzvQCbfCCRSGA2m9Hc3MxNfy9dukSSBblcjqKiIm6D//Pnz6OoqIjkfnFxcT6lsrt27UJKSgrkcjm0Wi0CAgJEaf5Xr15h/Pjx1I9dpVIhLy+PG0f2WTgVHx8PqVRKZN348eNFx1cdP37co0qcVb6LgVMHDx6En58fBb0BAQHcQu2TJ09iwIABhAyaTCafXuaVK1dI9OxLR8D58+dTNuRwOHwaaLx//35ClA0GA8rLy7kdBo4ePUrib4lEwhWLM55k1apVlJaq1WpkZ2dzi7QmT55M702hUKCwsJArF3WnS4jzYD3CWbuCtLQ0rrv39/eHVCqlJv1Tp04Vham///57ArNUKhXCwsK47Z527NjhQe4xroT3sc+ePYu0tDTI5XLuNRiOwLIof39/tLe3+9S4hVHorAcIr5K/q6uLtknWFdKXxsGffvopcTgMUxLbHq5fv47x48fTVqnRaNDa2iq6vT579gwTJ05ETk4OcWSUfTBPwAQoYgHP06dPe6V+vAZuly9fpg9tt9uRkpLCrdc4d+6cRysml8uFefPmib6Yly9fYuHChVAqlVCpVD7VvM6aNYtWmZ+fH6ZNm8YV+xw7dgxBQUF0XlpaGlfV9uTJE7S2tkKlUsFqtSIwMJBrHB8+fCDchpVdTpw4UdRL//jjj+TVWDfJ/Px8LifV0dFB2Q0D5zxcUW5uLtc9HjhwgBhcnU6HnJwc0Rjll19+gTvKFxERgaamJi7z+d133yE2NpZuWKlUcnWajx49Ql1dHTV+86VF9fLly8lzmEwmtLa2cj0Ha43B4qgBAwZwSyGZUk8mk1Ex2L59+0Sv9eLFC2KyjUYjdDodRo8eLeqlb9y4geTkZMjlcnrnQ4cOBa/F2OrVq+F0OinArqys9DSQ7u5ubprE2jiyPTAyMpIbwGVnZ5PGQhAEn1pHs1kuLOg1Go3cnqW3bt3yGLk+bNgw7nUaGxuJwYyLi8Py5ct9wh6Cg4NJSlBcXMztx3758mWkpqZSsVVKSgpXIIX/mTjlHsy3tLSIeo6dO3diwIAB0Gq10Gg0UCgUooiq+/ZqNpspLrRarb09CA9kmj59Orl7NoxPrJiHDVlmKB8TIfHabX/11VcICgoiACgyMlKU3Hr79i0uXLhAKaa/vz/y8/O5UXpJSQnhIoGBgfjss8+4xrF69WpERkbSeUVFRdwtYvPmzUhLS6PpkxMmTPCJw3HnfYxGI9cbrlu3DrGxsaT9UKvVPnVH3LVrF4KCgiCRSCieCggIoG2caxw9PT1YsWIFcSS+SAIYG8k0FlKpFEVFRVzmd+XKlR4ze+Pi4rgfYPfu3RS8mc1mtLe3ixrho0ePUFBQQLFDYWEht4EdC5bdNSDJycncbGDdunUUJMpkMowcOZI75xeA0NzcDJvNBrlcjpiYGCxatEiUQtiwYQMCAgLIS4eEhPgk21i9erXHMAXG5LrHeAIPNp48eTIpoXU6HRevuHTpEqqqqqDX6z0UamLioK6uLkyZMoUMijVy4+3rN27cIHFxdHQ0l9pmrSRYyhcSEuJTEfXq1avh5+dH8VBcXBz3A2zevJnkiEqlEgMHDuQGiW/evPHodqzVatHe3s4VO0VERJBxREZG+tS7dcaMGdSCQ6FQwGazob293ffCqSNHjiA9PZ08h0qlwrJly0QDpOfPn1NbCGaRZWVloh/60aNHaGpqokBUJpMhKSmJW09y69YtlJaWwm63w8/Pj4vCPnr0CCNHjqT+5UqlEh0dHdwVffToUQ8lfU1NDTdjO3ToEMxmM72DtLQ0Ll7x5MkTagSs1Wqh0+kwc+ZM0Wxq48aNFBM6nU5kZ2dzSc4ff/wRra2ttHjd1W0+czFbt24lt80GA/EItOfPn2PUqFE0xlOtVmPIkCGiyOWzZ89QU1NDxJZSqcTQoUO5PMmJEyc8FG08vuP169ceVEBISIhPHQHPnDlDBu9wOLBq1Squqm3nzp20qNi1fPFSjA5QKBTIzc3lKs7Onj0LPz8/qsf1pafqyZMnkZmZSUy72WxGXl6eqMfp9SLXrl1LNLVGo4G/vz93JEhPTw/Gjx9PMjeHw4GMjAxRFJaVDLhzMUVFRdwyg4MHDyI2NhZmsxmJiYlcd/rs2TMUFxfDbDbDaDTC4XD4VCd77949JCUlEcPqC+dz9OhRKs0ICgpCfHw8d8AB/mcaVkBAAAwGA/r168fV2pw+fRppaWn0vmtqanyKbVgHJRaI1tfXczPXXsIgFm8YDAYEBwdze5Q9efIEEydOpLRPrVYjNzeXSzu3t7cTryKRSHxqq7Rjxw7069cPNpsNUVFRPmlB6+vrqc9GWVmZTxzErl27PMQ0TU1N3JqV7777jrwuQ6J9qbCfMmUKBYqJiYncaoKVK1ciKCgIMpkMOp0O+fn5XCHWxo0bqcuj0WhEeHi4TwCih4EsWbIEOp2Oonun08mtVzl+/DjS09Npr7Xb7Vi8eLFoxP38+XOaLc9WQHl5OVcYs2LFCo9ZeLzibmaENpsNFouFq05zF+CweS4sK+IBZ+vWraMmNEajESUlJVxlfFdXF8aOHUseatCgQT4p2xITE2myVWpqKreN1b59+yjeYCNqfWGMWSbo8TJZRRl7MTx3ypq5slXDc6ddXV1obW2lc1icwovuN23ahMDAQGJKea2zr169ilGjRkGv1yMsLIw7acq95NJgMBB45kuHomnTpiEzM5OkEfX19VyYft++fRgwYAD1XfMF8V2yZAlCQkJgNBqhVCpRUlLCbSozd+5c0n+w+Tw8r7Z582bk5eXRoIZevdUNBgPa2tpEV83Bgwep9oSpu3kNWD58+AA2P44FSSNGjOBCwHv37iVVV3p6Ore4u6uryyMg9UXw+3EbJlamyaMDOjo6SKHGUnNerc+CBQvo3RkMBsyePZuLRs+cOZO8LdPn8ETWHR0d8PPzQ2hoKLVE5xF1c+fOpSFRwcHB6Onp+Vtwyto6T5w40etH6+7uRnt7Oz2gXC5HZmYml8F8+PAhpk+fTugoq/znBbGbN2+mltupqancVPHVq1eYNGkSZUUVFRU+VbsxD8Waxa1du5brBRYtWkSexmw2o6CggJt9sekPDHtobm72yXOwQUxMTiAGtz969Ajt7e0E0QuCgPHjx4t66YcPH2Ls2LGE8xiNRvj7+/+tid2NGzcgl8sxePBgUeXUxIkT6aJarRYOh8OnVlQTJkwghTsj+Hj77datWynHT0hI4DK/79+/B5ukaTKZUF9f75PyfNmyZVT3Gx4e7tN2dOPGDY9p3wsWLODqRtj0B3Z/DQ0N3LjrxIkTtBgtFgs3lf3pp588vKdCoUBlZaVogP3gwQPqRM06XUqlUsTExOD169eebsxb+6Z79+6hpaWFMhyNRuOTGPfly5dYsmSJxxTu6dOnc7eV7du3k9KqpKSEK6a5fPky1ewIgoAFCxb4VET9xRdf0DkZGRlckIkZbllZGU285vVTZQE287j+/v7o378/t4Lv8uXLCAsLg91uh1QqJXZVDLPJy8ujbgFGo9Enw2XvjSG+DClm9Ujcvfn27du9RlZFRUVxC5pOnjyJqqoqcvdBQUGoq6vj7p3r1q2jtK+6uppb87phwwaUlpZCo9FAIpH4xBaz1M9ut8NqtcLhcPgEZq1fv568mslk8mmLWLt2LfEkfn5+qK2t5epbv/32W5qaERISwvUchw8fRnBwMHQ6HaRSqU9Jxv379zFhwgTqW8sWsdVq9aARuMgb6x3G0tKoqCguNnL48GFERkYSn6BUKn0KFjdt2kQpWV5eHjfgu3fvHj0YmxThi3F8/vnnHi23fWk0e/jwYSrliIqKQnBwMJeZ/vbbb6lMk7Wz5F3n66+/pq3YbDajra2NuxBZ8z+WTX7yySfcmLCyspL60LKmgbm5ub36vInqOfPy8oiJZPPdeMZx/fp1pKSkQKVSUYRfUlLC7bUxb948epkFBQU+IaTp6el0TnV1NRcVZByTyWSiXqK87Iu9C9YDxel0orq6msvHrF27FuHh4bRCfanKP3nypMdIMh7Wc/HiRURHR0Mul0Mul8PlcnE5qefPn2Ps2LEeM2Oys7Nx8eLFPjNXr/sZ68zD0MS0tDQu9f78+XPK71lEnJ+fz9U/tLe3Q6fTwWAwIDAwkLsC2CgRFqnzOJ+PU2Y/Pz+f6n6ZmIat0KCgIJ+KoMaPH08VfyaTyacu0WvWrEF8fDz8/PyQmprKbed5/fp1xMXFUfVicHAwV0nPuhmwrYQtXjEuqxensmXLFhLfsL5emZmZXPzh2bNn5HEMBgP0ej3mzZsnqtPs7OzE6NGjyQu4XC4uenvu3DkaXabT6VBdXc3NBpgSzL0Oh0fXv3z5Ek1NTXRvGRkZXFLw4waAVquVOzGCJQhsq4yOjuYy2efOnaMWXky4tHfvXlHs6vXr12hra4PBYKDJEVVVVVx6o1eXX71eT7yKQqFAYGAgN7p//Pgx2PhwmUwGi8XCXZ2dnZ3IycmhoC8yMpIr3Dl06BCVgprNZkyYMMGnbGXJkiUUP/j7+3M7FjKdBfOCWVlZXA5nz549NMJNr9f7DO/PmzePUtkBAwZwvfSmTZsQGxsLq9UKlUqF1NRUruEytpglDMnJyWhra+Nmkx4G8sMPP5CynUHhwcHB3Oa0b968QVlZGfR6PSmoecXaL1688Bi3npSUxI0Ftm3bRlxMeHi4T+wqq3VxOp2QSCRISkrieo579+5h3rx58Pf3h0QigcPh4NbUsPbZ7Hni4+O5DDjzaixOq66u5mpbly5dSpC+QqFAQkICF0969+4dli5dSkaYlJTEjW2OHj1KdUceWlBG1Ol0OpSWlnKt+eXLl9TLw2azITAwkFuD0tnZiba2NpoWUVhYyG0Au3DhQjJai8WCsWPHcunt+/fvY9asWfTRfNkmHzx4gMrKShLvOhwOrrFv2bKFvKBOp0NcXJzosAL20ebMmQOZTAY/Pz8UFRVxg/iNGzdSUZfL5UJ6ejp3e3DvpqjRaNCvXz/ugt+9ezf69++PwMDAvyGpDJxi1lxYWMjVZTx79gxDhw6FXC6nfp2+9FZvamqiboU8zgf/MzKUscwRERGYPXs2V1x8+vRplJWVkUFFRERw7+3Vq1eorKykbWXAgAFcz8HKJxkIlpWVxTVCd+DM5XL5JPSZM2cOeTSZTIbBgwdzPcdPP/2EUaNGkdDcFznF2rVrCfNSKBR49uyZp85ApVL5hJDeu3ePAlKtVovq6mpu8TCLBYxGI3XR433oJUuWkMYiMTHRJzDr22+/pZRUo9EgMjLSpxEcc+bMgclkgslkgr+/P/dD37lzB0VFRYTbZGZm+jQ8evHixbDZbFAqlRg7dqxPelgmfLbb7Zg2bRo3dvjyyy8RFxdHwGZ5eTmX97p06RIF/3K5HAkJCZ5bzPHjx2EymbjFSQcPHkRaWprH4GSemObhw4cYOXIkXC4XNBoNd6r0kydPUFVVRUXUdrudO0+WyfBSUlKgUChIDcfrktzV1YXGxkaqeueNSQMg3L17l4YtK5VKn41j5syZBLf7AtGfPn2aKhhdLpdP72DNmjXQaDQwGAxQqVTIzc3lQgDnz59HcHAwLV7WBaFXFsNTJp08eRKJiYnkORISErhajoMHD6KsrAxmsxkKhQLt7e2inoPNmJFKpRQLtLS0cLmLY8eOkdBHrVbDbDZzA9+NGzeioqICBoMBWq0W/fv353qOR48eITs7mzK9iooK7ge4cuUKampqIJfLERYW5pPYiWlG2PbAAygZzhMSEkIYR11dnU+tvUtKSoh81Gg0yM3NJQ2yz03s1q5dSzUrOp0Oubm53GlL58+fp4c0GAyYMWOGqOj3woULtHUxV1dZWcn9ADt37kRsbCxF+FFRUdyU+dq1a0hISCCGtampiZsyP336lMa5WiwWTJ06ldtfo7OzkxrEaLVanzpJrlq1ijK2pKQkn4zjyy+/pLYQTEMrFqe8e/cOy5Ytg8Fg8BgmMGLECA/+S/A1VXTvBVZZWcnVSxw8eBDR0dEwm82IioriVnlduXLFo4tgQEAAamtruQOav/rqK1itVigUCshkMoSEhHBf6JUrV5CYmAi5XA6pVIrQ0FCudG/v3r2UsQUHB3NV58yrMSrdZDJxkc7Xr19j0qRJVDaZlpbm02RM91EnKpUKM2bMEM3ybt68iZaWFgLa2P21tbX1yqa4xjFx4kRKMZ1OJ0aOHMld0XPnziWhT0FBAZeuv3fvHoqLi2Gz2WjyYl5enk+NW0JDQ4nFNBqNXJzj7t27KC8vJ1VbYWEhDh8+DB5/w1Z0cnIyt58JywoZqOcLcPj8+XNMnjyZtq6srCyfOl5/8803yMjIIJ3q+PHjueew+huGeQUFBaG9vb1PoxJ9kUOGDKGMQBAELoX86NEjtLa2UuaRmZnJJbVu3LiBxsZGCo4kEgkaGxu56u5t27YhJiaG4HO73c4NFH/66ScMHz6cKPHx48dzYe3jx4/DYrFAKpWiurrap26FX3zxBZFucXFxXO/58uVLEnIz8oxntGxbcR/VzgMP3717hxEjRnjMjMnMzMTatWu9ZqF9FkNv3ryZomeGWdTX13PT0lmzZkEulxN9zBMXs3RZIpFQNX9xcbFPbaLcZ6YEBARwMYszZ85gyJAhkMvlUKlUqK2t5abmO3bsgMvlglwuR15enk9F16xMk320sWPHiqalHz58IHaV6U19MY4lS5ZAq9WSUU2cOJELHk6ZMsVj7NuAAQO4sVovTmX48OEekxBZHs3TPkycOJHybpvNxi1Ounv3LpKSkih6NplMmDVrFvejLVy4kFhcu92OjIwMrlL7xIkTRIbZbDbU1NT4tK+zjM1ut3PZVSYocq8rKikpEfWg9+/fp3EdzNX7kuHs3LmT+o3p9XrurF8mefT394der4fRaMTgwYN92sJ6yem0Wq0HYdfQ0CBqHNevX8eYMWPImPr168fdozs7OzFo0CA6JyIiguttenp6sGDBAo8hi3V1dVx11pEjR5CYmAipVMptJeG+RTCZQ2Jiok/V/zt37iTPERYWhtLSUtGyhEuXLsHhcFDm5XA4uJgNg/ZZ/3ZBELjUxs8//4wpU6ZAoVBAKpWipKTEp7YQfRpIa2sruW65XM4Fc27evImamhqEhoZCoVD45OqfP39OvUSVSiVcLpdPQZ/7QB2Xy4UJEyaIFid1d3djxYoVlGabTCafWM8ZM2aQ8tzpdHKV9K9fv8a0adNoBKzVasXo0aO5njA9PZ26GcTFxflkhPv27YPdbofRaKR2EmJURWdnJ2pqamA2myGXy1FSUsJtAXrz5k20t7eTnNLjPzLcnhXm8AK+gQMHEoXscDi4SN+TJ09QXl5OKjU/Pz/uB3j48CHmz59PQV9MTAyWLl0qGg+xqZ3M20RFRXFTzBcvXmDKlCnkunNycrjZ15UrV1BRUQG73U5lpLwiqJcvX2LDhg20jSckJHDLRpjnYEVQgiBg3rx5oiDY8ePHUVBQQDiPL2rA27dvo7KyksbEnTx50vMHLGPh7U/79u1DXFwcpFIpVCoVkpKSuL05Lly4QE3spFIpwsPDffIc8+bNIzecl5fH9QK3b99GVlYWZDIZJBIJbDYbl3q/cOGCx+iu/v37c/fnU6dOISIigryawWDAtGnTuNKIlpYWaLVaGAwGhIWF+QTRz5o1C3a7HXK5HIGBgejo6OAKiph0w2g0oqioiIsqHz161KOlqUajwfr163sXAw0ePJjbIdl9aE9kZCRX9Ltt2zaPqZDJycnc+pPOzk40NDR4DBvmSfdu3brl0X1RoVBwy0GPHTtGK02hUPjESt++fRv5+flkHHq9HlOmTBEtaGJF7mwcW2BgoE/F3XPnziUIwM/Pj4vEHjt2jBTxKpUKBQUFXDnFsWPHiMXVaDSwWq2wWq24efNm7zxZDBc4ePAgfTCr1YqMjAzuh163bh3pGNRqNVJTU7lxyi+//AJ3BZRer8fEiRNF0Vv20dgWabFYuEXKBw8eJAbT6XSisrKSW4n37NkzjBgxggYR2Ww2LF26lLtNDh8+nJ4nMTHRpxZRy5Ytoy0iMjKSq1A7ceKEx9iW0tJSrnFcvnzZo36XvW+muvOZi/n8888pgA0PD0dQUBB3j25ra/MwjuTkZG628vjxY4waNQomk4msedKkSaLG4d66Sa/Xo1+/ftwpVZ988glsNhsRW2lpaVxYH27DD5nskbfl/fjjj5gwYQK9/PDwcK5O9eXLl1i8eDH0ej2Cg4MRFBTElX0ePnyY0vLg4GBUV1dzjWPjxo0eBsXKIIYNG0ZBNtcwrly5gqqqKvj5+dG2UlBQwCXqDhw44MHf+CKQZZmU+6gKX0aGNjc3w2AwQKPRQC6XixZPdXd3o6amBhqNhmKOyMhIn8Ap1gVIIpEgJCSEaxwnT56kd6BUKhEREeETt8JKXBUKBYKDg7kYzMWLF8kTKpVKjBgxgks8Hjx4kOgDjUaDoKAgKBSKXhUFAo/rYHu6TqeDQqFAXV0d9+IbNmzwUJDHxcX5tN+OGjWKmpwIgsCtJXn//j1qamrgdDqpEdvixYtF9SlsgB8rzejXrx9XSf/DDz94qO8TEhK4eMqRI0eoN4lEIvFJff/w4UMaZGi1WhEVFcUNYh8+fEhba0BAgE+C7C1btnh0RVSpVIiMjOwzyxFVTKWmppKaSafTYeHChaJ0/fPnzzFjxgyEh4eT/qN///5cFJZJC9k5rCBaTKf5448/eoz+9IUQmzt3LqXkTCLIC0gvXryI7OxsKBQKaLVa+Pn5ca/z9u1b5Ofn070lJydzvSebpmkymaDX62G327ltQ2/cuEFlFgEBAVwtLOssHRMTA7lcDolEApVKhSlTpnjdEbzebEFBATGEjCMQ8xxv3rzByJEjPVo3+dIBB4AwYsQIJCcnQ6VSQafT+bRqcnNz6QNYrVYsXbpUFDhbsmSJRzHTtGnTuKnsd999R6k5623G42OuXr1K3QolEgmSk5O53ubixYse5ZOhoaHcbeXOnTuoq6sjTOmTTz7hKvvmzJmDiIgIyopMJhOmTJniOxfDkDSGPrIALj8/X3SLePHiBcaPH08ui/UQ4xnHgwcP0NLSQjfMVFA8yL22tpZiFIvFwg1I2QwYtVoNPz8/DBgwgGu0169fJyJRo9Fwq/3evHmDuXPnol+/flQC4e/vzwXBtm3bhtzcXCoZqays5C6QXbt2IT4+Hmq1GrGxsVi7dq0oUdfd3Y3x48fT92Rj3Hbt2sWt/u+F27MJSEyMGxUVxS1/GDduHBFOLCPgCYVZ/1GGdprNZqSnp4umck+fPiXmkw2C5q20devWwWw2Q6fTQS6XIzw8nNvTZMuWLUhOTiYoPCgoiNtlwH0ig8FgQEZGBnf4IRsOxJ5n6tSpXEZ2yZIlhClZrVafBNmTJ0+GUqmE0WikMk0x2cLt27fJcLw2iLHZbEhJSeFiFlOmTCHwR6FQICcnh1uFtnv3bmorJZFIEBYWhnPnzuHRo0deK/o7OztRWVlJuEBsbCw3zWYtqlkMxXqdipU+zJ8/36MIKiYmhptJLViwgIJeg8GAtLQ0rhEeO3aMWmayiQxixvHhwwfMmzeP2G9fVHruHZXZdXJzc0W9Gpu7N3To0N4GwiLo0NBQ1NXViWIP79+/x6hRozyKjNLT07lBn3ulPNNa8PiYu3fv0rbCGGNeG8cvv/ySXKqfnx/i4+NFIeonT55g2rRp9DIdDgciIiK4W8SIESM89B/Dhg3j4ilHjx5FUFAQfezhw4dzC6cYT8SEWDyKv6enBxMmTPBohjxgwABRyP3WrVsYNmwY5HI5kpKSehsIK+3j1aycOnWKInv2EVJTU7nqrGvXriE5OZm8jc1m43qbFy9eUKCo1+sRGhrKVbaxEg5GcVutVq7OYvbs2RT0BgcHIzs7W/R5rl69ivT0dOodplQqkZGRwcWHPv30U0RGRhKqWlVVxTWoTz/9lIRB0dHR3LT8zp07NNPHZDIhLS2NO8Lt1q1biIqKgkqlgslkQlxcHD58+NBbR7l48WLRwOXcuXPUu9y9xydPxMyG47C9U6vVcrUM9+/fR3p6OqVjaWlp3DkrbPtiqzMiIoKLQq5du9ajfXZTU5NoRnT//n1UVFRAqVRCIpFALpf71D1p3LhxFMizANMXw2WSx6ysLG7flFOnTiExMREGgwEWiwVOp5NrHNevX6cBDEwolpub+7+D2lnE/fGs97a2Nu6quXnzJoE5rEfXxo0bRdOye/fuoaysjFYnb2IES+PYvFrmcXhB7OzZsyn9ZROdxHCbW7duobi4GCaTid6BL8KllStXktGGhYWhf//+3CB25cqVFMRGRUVxU+yDBw96zMMzGAzcGPLmzZtUPupwOKDRaKBSqSib9Nk43HEE9mLq6+u57vHbb79FRkYGvZysrCyut9m+fTuqq6spvsnJyeHC2mylsftLSUnBnj17vG6VL168QFNTEwXLDDASY2R/+OEHlJaW0vPL5XJUV1dzG9qysfOsE9DAgQNFjbCrqwuffPIJIbcDBgzg8ioXL14kLoY1+eex3+5zBM1mM0lGa2pqiLTkGsbbt2/h/vJ1Oh0iIiJQXl7OHQ2yYMEC0nIwiJonWlm+fDkRfAyF5BF869atI7o+KCgIMTExohjMo0ePMHjwYMqiIiIi8Omnn4rGXffv36fVzF5kSUkJl/1tamqCTqcjnogXc7DxKAyij4yM5NYkz507FwEBAXA6nVQbxPMc7gal0WgoOP84vuMayMiRIyGTyTzmztXW1opG3ZcvX0Z5eTkMBoPHDHue5nLWrFkICgqi62RnZ3PTxR07dlC5oVwuR1BQkKjrvnHjBkpLS+mZBEHgzsO7cOEC+vfvT4ZhMBiQl5cnCp+/ffsWHR0d5DmDg4PR3NwsKvl7+vQpoaOsn4mYFPHVq1eYMWOGR9Ncs9nMra/esWMHVUkqFAooFApERkb2qQjkllsy8ItlBaWlpaKr5syZM8jKyvJoGuvL2PXVq1dTpC6RSJCamso1jt27d1OBFhs1KtbP4+effyZImxnu0KFDuTNtmExSq9VCJpNhwIABotXyL168wKhRoyCRSGA0GqFQKLizfs+ePUuMrMViQUxMjKjn7OrqQltbm0e7K6fTyd1WvvzyS4SGhkIikVCBd3Fxsdf4hluUw8oTWVWdmOe4du0aZSqsZkOn03E9x9atW2mSpFQqRVBQEFcJtmvXLirQYm3ExXQW58+fJy/gTqKJxQLnz5+nEWbumhYxl//+/XusXLmS4ielUon29nZREfORI0cQGRlJHY0aGhq45RKstz7bjv39/blxytGjR2lBscXY0NAgmn15FZ+wQIztTbwVcOXKFcpU2OTF0NBQLs6xePFijxQzJSWFq7ncvn07BcwMRhfTg27cuBEJCQn00QwGA1JTU0XT+YcPH6K4uJhSeRb48ioFFy1aRCJmrVaLlpYWUZJz8+bNFAtIpVLk5eWJes4bN24QaMiIVLvdzpUi3r9/H/n5+ZDL5bTtDRw4sNc7OH36NJYvX07bdJ8yN7vdDrVaTXtufHy8aBp37Ngxj2mVBoMBISEhXLqaDQZwb7XJ+wBr1qyh+2J77+jRoyG2DbGiKYvFApvNhrKyMlHy8cCBA5QuMkY7OjpaVHt77do1lJeXQ6PR0NTv/v37czkf1ttNq9XCbDaL4jyrV69GcnIyNTWWSqUICwvjGsedO3cwevRoAjVtNhsqKys94qFTp05h6NChcDqd0Ov1feMgU6dOpQG7LFDMz88X1U8ePnwYaWlp0Ol08PPzg1arRV5eniiV/uzZMyxcuBAOh4NiFZlMJgofP378GOPGjaOPzYxq2LBhXmOiN2/eUIEWg6kHDhwoWgq5c+dOpKWlkfSAyQTFwLaVK1d6zNNlxij2DtzHuTIk2lvM8e7dOyxcuNBDoSeTyZCYmChKU3R3d2P58uWIj4+HUqmE0+lEREQEZs2a5aHr6ezsRFVVFX0LNjXMw0D27Nnjkd+zzntiK3rhwoUehcBsErUYoNXZ2YmxY8dSWsoUZ2JFWu/fv/do1q9SqaBQKDBlypQ+C4dev36Njo4OJCYmekx3TExMFN3yzp8/T6ks+9ihoaFeeZ+uri50dHR4kG5SqRQ5OTmixr5nzx5kZ2fTNcQQ1QsXLmDgwIHUNYiRjnl5eaJe8Msvv/RQ+Gu1WqxcubIXfcB0JXK5HBqNhsRUDofD00CY3pJBtLm5uR4UN8MI3r59i9OnT2P69OnkshwOBywWCwICArg4x6xZs+ByuTyyHDEo+MGDBxgzZgz0ej3UajXVlpaWllLgt23bNixevBiXLl3C2bNnMWvWLAKZQkNDoVarYbfbRT3hnj17UFxcTIZuNBphs9m89gF5/PgxRowYQZ2O2btgg6efPHmCO3fuoLu7G+/evcORI0fQ0dGBYcOGwWKx0CI0GAxe64O+++47j6mgCoUCJpMJra2tfW75V65cwdKlS1FdXY2EhASo1WrIZDLYbDYEBQX16p60fv16FBcXU3NdtmsolUq0tLR4Gkh9fb2HosndOO7fv4/GxkY0NDSgqKiI3Lw7H+NyubjgzNdff01Uul6vR//+/blpWWNjY69rBQYGekTspaWlJCRmZYnuMv7ExERRUfLKlSuprTUj3xwOh6g2pb6+3sPlS6VSBAYGemQ448aNg8ViQWxsrIeEgEkDtFotGhsb++wxX19fT81yWarMWl71lWKfOHGCgl33Q6vVYsyYMb3wlJMnT3rohiUSCbVDr6yspGvIhf/5l52dLfz666+CWq0WysrKhKqqKgn7b//6r/8q/PGPfxTevXsn/NM//ZMgCIJgtVoFrVYrWCwWQa/XCwUFBcLs2bPpnI//vXnzBv/xH/8hZGRkCKmpqYLL5RJGjhwpDBo0yOs5giAIGo1GyMrKEpRKpfAP//APgtFoFEaOHCk0NjbSeRUVFcKf//xn4Q9/+IPwl7/8RQgICBCCg4MFjUYj/PGPfxTGjBkjjBkzps/rHD16FF1dXYJSqRTi4uKEv/71r4LFYhESEhKEpUuX9nnOq1ev4HQ6hfT0dCE1NVX49ddfBZlMJgwfPlyYMGECndPe3i7813/9F923wWAQpFKp8Oc//1n4P//n/wiTJ08WGhoahJSUFI/rdHZ2QiqVCmlpaYJUKhVCQ0MFnU4naLVaoaGhQcjMzOx1X3K5XMjLyxPCw8MFQRCEv/71r0JUVJSgUqmEkpISobKy0uOcpqYmyX/+53+ip6dH+Lu/+zvht99+E9LT04Xk5GTB6XQKWVlZEkEQBAkAOunq1asICAgQ+vXr1+sGuru78f79e+HXX38VPnz4IISHhwuhoaGCSqUSYmNjhYSEBNEP/X/779WrV/iv//ov4Y9//KPw93//90JycrKQl5fX61q3bt3Cv/zLvwi//fabYDAYBIvFIthsNiExMZF7X8+ePYNUKhUkEonwpz/9STCbzUJ6errPz/PixQvodDohJibG6znv3r3DX/7yF+F3v/ud8Kc//UlISUkRsrOz/5+8s/+bf93d3fjYUAVBEP6/AQDVX5moJef2CwAAAABJRU5ErkJggg==#0#0#4294967295##KGlDb2RlLlFULlRhYlRpcG9zCkZsZWNoYQpwMQooZHAyClMnb3BhY2lkYWQnCnAzCkYxCnNTJ2Zv|cm1hJwpwNApTJzEnCnNTJ2NvbG9yaW50ZXJpb3IyJwpwNQpJLTEKc1MnYW5jaG9DYXNpbGxhJwpw|NgpJMzYKc1MnYTFoOCcKcDcKUydkMmQ2JwpwOApzUydhbmNobycKcDkKSTIKc1MnY29sb3InCnAx|MApMNDI3ODE5MDA4MEwKc1MndnVlbG8nCnAxMQpJNQpzUydwb3NpY2lvbicKcDEyCihpQ29kZS5R|VC5UYWJUaXBvcwpQb3NpY2lvbgpwMTMKKGRwMTQKUydhbHRvJwpwMTUKSTE2CnNTJ29yZGVuJwpw|MTYKSTgKc2c5CkkxMjgKc1MnYW5ndWxvJwpwMTcKSTAKc1MneScKSTE2CnNTJ3gnCkkwCnNic1Mn|ZGVzdGlubycKcDE4ClMnbScKc1MncmVkb25kZW9zJwpwMTkKSTAwCnNTJ2FsdG9jYWJlemEnCnAy|MApJMTUKc1MnbGlWYXJzJwpwMjEKKGxwMjIKKFMncG9zaWNpb24nClMnbycKdHAyMwphKFMnYTFo|OCcKUydjJwp0cDI0CmEoUydncm9zb3InClMnbicKdHAyNQphKFMnYWx0b2NhYmV6YScKUyduJwp0|cDI2CmEoUyd0aXBvJwpTJ24nCnRwMjcKYShTJ2Rlc3Rpbm8nClMndCcKdHAyOAphKFMnYW5jaG9D|YXNpbGxhJwpTJ24nCnRwMjkKYShTJ2NvbG9yJwpTJ24nCnRwMzAKYShTJ2NvbG9yaW50ZXJpb3In|ClMnbicKdHAzMQphKFMnY29sb3JpbnRlcmlvcjInClMnbicKdHAzMgphKFMnb3BhY2lkYWQnClMn|bicKdHAzMwphKFMncmVkb25kZW9zJwpTJ2wnCnRwMzQKYShTJ2Zvcm1hJwpTJ3QnCnRwMzUKYShT|J2FuY2hvJwpTJ24nCnRwMzYKYShTJ3Z1ZWxvJwpTJ24nCnRwMzcKYShTJ2Rlc2N1ZWxndWUnClMn|bicKdHAzOAphKFMncG5nJwpTJ2MnCnRwMzkKYXNTJ2NvbG9yaW50ZXJpb3InCnA0MApMNDI3OTg5|Mzk4NEwKc1MnZGVzY3VlbGd1ZScKcDQxCkk1CnNTJ3NpTW92aWJsZScKcDQyCkkwMQpzUydncm9z|b3InCnA0MwpJMQpzUydwbmcnCnA0NApTJ1x4ODlQTkdcclxuXHgxYVxuXHgwMFx4MDBceDAwXHJJ|SERSXHgwMFx4MDBceDAwIFx4MDBceDAwXHgwMCBceDA4XHgwNlx4MDBceDAwXHgwMHN6elx4ZjRc|eDAwXHgwMFx4MDBceDA0c0JJVFx4MDhceDA4XHgwOFx4MDh8XHgwOGRceDg4XHgwMFx4MDBceDAw|XHRwSFlzXHgwMFx4MDBceDBlXHhjNFx4MDBceDAwXHgwZVx4YzRceDAxXHg5NStceDBlXHgxYlx4|MDBceDAwXHgwMFx4YjFJREFUWFx4ODVceGVkXHhjZUFceDBlXHg4MjBceDE0XHg4NFx4ZTF5XHgw|ZlxuRGNceGEyXHhjNFx4ZDBceDk0XHg5ZVx4YzRceGIwXHhmMSxceDgwXHgxY1x4YzFceDgzeVx4|MTM4RldceGNhXHhjMkRJXHhkNFx4OTVceDg5Xlx4YTBceGVkXHhlMlx4ZmRceGJiWVx4Y2RceDA3|SFFceDk1XHhhNlx4ODdceGM0XHhlYVx4YTNceGNmS1x4ZmVceDFkSVVceGFlXHhkZVx4OGZceGU3|XHg4NVx4YWRceDE5fCJceGZlYmtceDA2XHhkZVx4ZWZmQVx4MDgiTlx4ODRceGE5XHhmYVx4OTBc|eDg4XHg5MyBceDA0XHgxMVx4MWZceGMyVD1ceDk3XHhkYlx4OTlceDhkXHhlZVx4MDIidFwnXHgw|OEFceGM0XHg4Ylx4YTh1XHgxYlx4MGVRXHhlYjYuXHgwNFx4OTFceDAzXHg5MFx4MDVDXHgwMFx4|OThceGE4XHhjOEdceGVmXHgwMFx4MTA5XHgxME1ceGI0WVx4ZGZceGMxXHhiY1x4MDBofFx4MTMy|Klx4ZjJceDExTFx4MGJceDgwXHgxN2VceGVhXHhlYVx4MWJceGYwXHhhZCFceGE1blx4YTRSXHgw|N1x4ZTBceDFjXG5ceDgxXHhkMFx4ZTdceGYxXHhmNVx4MDFceDgxSEJcdCFyXHg5YT1ceDAwXHgw|MFx4MDBceDAwSUVORFx4YWVCYFx4ODInCnA0NQpzUyd0aXBvJwpwNDYKSTEKc2Iu|#KGlDb2RlLlFULlRhYlRpcG9zCkZsZWNoYQpwMQooZHAyClMnb3BhY2lkYWQnCnAzCkYxCnNTJ2Zv|cm1hJwpwNApTJzEnCnNTJ2NvbG9yaW50ZXJpb3IyJwpwNQpJLTEKc1MnYW5jaG9DYXNpbGxhJwpw|NgpJMzYKc1MnYTFoOCcKcDcKUydkMmQ2JwpwOApzUydhbmNobycKcDkKSTIKc1MnY29sb3InCnAx|MApMNDI3ODE5MDA4MEwKc1MndnVlbG8nCnAxMQpJNQpzUydwb3NpY2lvbicKcDEyCihpQ29kZS5R|VC5UYWJUaXBvcwpQb3NpY2lvbgpwMTMKKGRwMTQKUydhbHRvJwpwMTUKSTE2CnNTJ29yZGVuJwpw|MTYKSTgKc2c5CkkxMjgKc1MnYW5ndWxvJwpwMTcKSTAKc1MneScKSTE2CnNTJ3gnCkkwCnNic1Mn|ZGVzdGlubycKcDE4ClMnbScKc1MncmVkb25kZW9zJwpwMTkKSTAwCnNTJ2FsdG9jYWJlemEnCnAy|MApJMTUKc1MnbGlWYXJzJwpwMjEKKGxwMjIKKFMncG9zaWNpb24nClMnbycKdHAyMwphKFMnYTFo|OCcKUydjJwp0cDI0CmEoUydncm9zb3InClMnbicKdHAyNQphKFMnYWx0b2NhYmV6YScKUyduJwp0|cDI2CmEoUyd0aXBvJwpTJ24nCnRwMjcKYShTJ2Rlc3Rpbm8nClMndCcKdHAyOAphKFMnYW5jaG9D|YXNpbGxhJwpTJ24nCnRwMjkKYShTJ2NvbG9yJwpTJ24nCnRwMzAKYShTJ2NvbG9yaW50ZXJpb3In|ClMnbicKdHAzMQphKFMnY29sb3JpbnRlcmlvcjInClMnbicKdHAzMgphKFMnb3BhY2lkYWQnClMn|bicKdHAzMwphKFMncmVkb25kZW9zJwpTJ2wnCnRwMzQKYShTJ2Zvcm1hJwpTJ3QnCnRwMzUKYShT|J2FuY2hvJwpTJ24nCnRwMzYKYShTJ3Z1ZWxvJwpTJ24nCnRwMzcKYShTJ2Rlc2N1ZWxndWUnClMn|bicKdHAzOAphKFMncG5nJwpTJ2MnCnRwMzkKYXNTJ2NvbG9yaW50ZXJpb3InCnA0MApMNDI5Mjg3|Njc5OUwKc1MnZGVzY3VlbGd1ZScKcDQxCkk1CnNTJ3NpTW92aWJsZScKcDQyCkkwMQpzUydncm9z|b3InCnA0MwpJMQpzUydwbmcnCnA0NApTJ1x4ODlQTkdcclxuXHgxYVxuXHgwMFx4MDBceDAwXHJJ|SERSXHgwMFx4MDBceDAwIFx4MDBceDAwXHgwMCBceDA4XHgwNlx4MDBceDAwXHgwMHN6elx4ZjRc|eDAwXHgwMFx4MDBceDA0c0JJVFx4MDhceDA4XHgwOFx4MDh8XHgwOGRceDg4XHgwMFx4MDBceDAw|XHRwSFlzXHgwMFx4MDBceDBlXHhjNFx4MDBceDAwXHgwZVx4YzRceDAxXHg5NStceDBlXHgxYlx4|MDBceDAwXHgwMFx4YjJJREFUWFx4ODVceGVkXHhjZUFceDBlXHg4MjBceDE0XHg4NFx4ZTF5XHgw|ZlpceDg4XHhjNkRceDg5XHhhMSk9XHg4OWFceGUzWVx4MDA5XHg4Mlx4MDdceGYzJnBceDBjVlx4|Y2FceGMyRE1ceGQ0XHg4NTFceGQxXHgwYlx4YjRdXHhiY1x4N2Y3XHhhYlx4ZjlceDAwKVx4YTZS|XHhhNDtceDkzXHhiOFx4YmRceGNmT1x4ZmVceDFkRVIuXHhlZVx4YWZceGRiXHhjOVx4YjJceGVi|fSJceGZlXHhiMlx4ZWNceGZhXHJvZ0FceDA4IkpEXHhjOVx4YjZceDBiXHg4OThceDA4Qlx4MTBc|eGQxIUpceGI2XHhkZFx4OWFceDhiXHhkOVx4YjBtXHg4MyFceDBjXHhkYlZceDEwXHg4Mlx4ODhc|eDE4UTVceDAxXHgxMVVceDEzXHgxNVx4ODJAXHgxM1x4MDBceDFkXHgwY1x4MDFgXHhjYyhceDFm|XHhiY1x4MDNceDA4NFx4MTFoXFxceGQyXHhlYVx4Y2FceGUwXHgwN1x4ODBceGRhXHhiN0FnXHg5|NFx4MGZceGY0OVx4N2YqXHhkMmdceGRmXHg4MG9ceGI1InVJSU1ceDAwXHg4ZVx4YTFceDEwXHgw|OH1ceDFlX29ceDg1XHhhYkJcdFx4MWFceDkxXHhhYShceDAwXHgwMFx4MDBceDAwSUVORFx4YWVC|YFx4ODInCnA0NQpzUyd0aXBvJwpwNDYKSTEKc2Iu|#iVBORw0KGgoAAAANSUhEUgAAAEAAAABACAIAAAAlC+aJAAAAA3NCSVQICAjb4U/gAAAACXBIWXMAAA7EAAAOxAGVKw4bAAAQm0lEQVRogdVaW48c1Xbee9eu+6UvM+PxhWG4CDIWt9gnEc5JAJ0o4SIkK1ZAipTnPEX5EfkZ8AJBiIhEAhHFR1bshGBAOXHwBTh4APkoBs8wMz3TPV3d1XXbVbXz8Nmd6ardxkd5iNgP4+nx6r33qrXWt761VtG/+Ndrt0qN/DTXilbyW6X2bfFTVYAQwv6/L/B/XT95BfjBD0e++PjprluTGI+j3s5OlmemYU4mEz/wNU07cviIbug1ye3t7f39fdu2wzB0bIfr3DTNo0eP1sSklDdu3OBcn0wi0zRFLlqtlu3Y3W63JpnEycbGRlEWhmGMx+NOp1NV1abd2fu9P1Yr8HTXff2v/rK2y+eff37p0qVOpxOGoWmahmEwxp555pnl5eWa5Pvvvz+ZTCilUsqiKFqtFiHkzJkzNbE0Td9++23GWBAEw+HQ931d148dO/b000/XJNfX1z/99NNWqzUajSzLYozZtv3ala/3Dshw8mOLc97pdMqy7HQ6jLGyLBljUsqmpOd5eZ7rul6Wpeu6UkrGFC7KGDMMIwgCIcTCwoKUEns2JTVNa7fbRVEsLCyUZalpWlEUlM5I3v6Q/erfZKW4ExSglDLGOOdVVXHOkySpqqopqes6dNN1Xdf1oiiyLFPu6bpulmWMMU3T8MU4jpUbYjcpJedcSllVVSGEQgFqW6RU3IkQUlVVmqZQg3OeZZmu62J2F6w8z/GcTNOMosgwjKIommJSyjRNq6pyXbcoCs75ZDKBJrVVFEVRFFJKwzBgKEJIWZUKBYynfk51dTYoy9L3/SzLNE3L8xw2tSyrKck5Z4xRSrMsC4IAjtQU0zRNSmnbdhzHlmWVZYloUapqWVZVVbh9EARVVZmmqVDgLsvzvP39fcuydnd3CSFhGOq6HkVRU5JSqmnaeDwuy3IwGBiGMRwOm2LwxjiOIUYpTZIkz3Pl0aPRSNf1fr9PCBkOh4CjmUP/8F++nGbiP1m/+Dd/8CQ8fjKZtNttHEYpzfOcMQaLE0LKskzT1DCM0Whk2zbn3HEcPCp4KqWUUgqjZ1lWVRVjLM/zxcVFxlgYhktLS71eLwiCNE11XSeE4K5SyjiO2+02pdQwDEJInucwvmEYVVX97S///ZPffR4XfpSXMygUjsKvv/46CIIkSTjne3t7nPOTJ0+urq7Wns3Fixe3trYIITAubn/69Glc5eB699130zTtdDqDwcBxnMFg0O12n332WULIQw89NBXr9XqXL1/2fT+OY8MwdnZ2HMc5fvz4I488Uttw8dKvD368rYCsSkIZIdTzPCGE53m4HCGkZjIsxAAeGH6HTZoKMMba7XaWZa1Wi1JaFEWaps0NpZSe52VZ1m638zznnAshlNBU3x//iC8vkbICODLGgPeapmVZpoxXKSUSFuccYmVZwuK1pet6mqZwxbIsgcXKqxRFAeACFgOy71UB/uBxyjXTMODZhBDTNIGYSgvg9owxy7LiOLZtO01TZSAiEoCYwHsltkI9Sqmu69PfJ5PJvSrAgjYhJMszRBWlNE3TVqsF/1ZeC7lzPB77vn8XKCyKwnGc0WhkmiZQeB7k27YN1M+yzPO8qqqUR6sVwAr8oNfrmaa5u7srpRwMBoyxuzhiFEVlWU4xTkkHgFSU0l6vRykdj8fKJOj7fr/fNwyj1+sRQvr9vq7r92KBGSdjGnvppZeKogBsAUD7/f7Zs2cNwxBCFEXh+75lWUtLS0tLS1N0g1dcuXJlMpmAazDGWq0W53xtba3b7fZ6vW63OxwOPc9L0/Ts2bO6rldVJYQALzJN88UXX5yiLf53PB5DsixLIYTv+6ZpDgYDct8cBXzfv++++8jsCsMwjmPQzLIs4Z2PPvrowsJCTfLGjRu7u7vtdns4HDqOg8udOnWKEAJhENg8zz/55BPf94UQjLEkSdI0XV1dXVlZqW34zTffwAjQCpBdC6HbRpfpRM4BB9M0wRY1TbMsi3Oe53mSJEphALnneQjEee5n2zbwTdM0wzDKslSmdtM04Q6EkCmyR+MZydsK5JcvylwBDoQQbCGl1DQNFIAQQiltSmqalqappmmgopRSpbtXVVVVFZwECTvPc+WGeZ6bpimEME1TSimEEELUsPUOjD5wnHI1mcN5KCbwdMGElaoCMauq0jStedhUT/jDlHXjp/J06AD+a5om2IpCAe3YA/MUsG0bLG0wGADOwTWakrqu+76/v78P/wmCQFkPUEpBPcqyzLLMtm0yx6TwWCllGIaWZSFbp9lMIv/xVJemaVEUcRxzzre2toIgmEwmSgsIIQaDgWmaW1tbMJfyuQLZut3uzs6O7/tRFEG4KZllGYgg8DcIgjiO2WxFNsNGf37l3J/fvwg6BE5vmuba2lqn04FLTC1+5cqVnZ0dxhiIDSRPnDjhui5yOWK0KIoPP/xwMpm4rjsejznni4uLruuura1ZloUaAwR2MplcuHABRkPuc133wQcfPHToECpJsCPDMP76zX/45UOncOE6GxW5sCwL6AaHA1NvZlnLspCqERVCiDRNHcexbRsuMS1lhBC4K3wgiiJKaafTIYRAcmpnQBOCmzE2Ho+nnYGDq8a4bpuj7G3KSk4ZPABH0zR8bK48zz3Pw+0JIRCbB01IdgBiPO+mGGNMCDEt1kAW552uUKDa2yFEalyjdxZYJCFEGYiO44BjIk1qmhZF0V0qffgx5zxN03mRDf9E+kfCUqKwWgHt8AqhLIkTsDS4MnxDSZLjOJZSuq47ZcjoozQlEfGGYQDRgWlNsTzPcRYiB6Xwb0GnWXeJUhK0WkhbvV4POvi+r0RMy7Icx9nf3yd3+CY4bFPS9308yyRJEFfKe/i+T+4AFMi57/vK0ketAFaaJkVRgGNubW1lWba/v688Ms/z4XBIKd3d3U2SpN/vCyGULjvlmEKI7e3teawBiJkkSVEUW1tbQOR52h5cMzD6ZxtXmq3Fa9euXb58GVQiiqLFxUXTNH/xi18ASQ6uDz744Icffuh0Oru7u47j+L7vuu7LL7/cVP7111+fpjkp5fLy8srKysmTJ2uS6+vrH3/8saZpmqaNRiNA6t/f+GFuUa9cQRAYhtFut0ej0crKChhOHMdNBTzPO3z4cJ7naOgyxuZ15g4fPlxVFdpNqGPmtVUcx2m1WmEYrq6uggjXKsQ7MLp9SxWBhBAShmEQBFEUATEBdkpJUANd1zVNQzwofQBiKLvvjpg4ejQaoTaEWO30O2z0ykWpegaEEMQxqnKk4SiKlFQCqQpXB4OfB6zYCiBTVRUqyaYkHhz6ioQQEFI1mbP+9FWqgktCCIwLxAStBUA1JeM4Nk2TUoqGoeu6SsdAVcQ5B1ZCbaWq6MkahoEwwO95NrPnneaubqgwkBBC0CEbjUZlWSZJAp5zkAVMF8r2oihAe/I8V4pNqwXw1iiKgKHNpWkaSrYkSeC6RVFY9kybZyaIZSWjKAKDAKfHtSiloNC4PVqW6PKSO/0vZNyaWBiGWZbhbKRV9MJs2/Z9fzgclmVpWRYMhR61EAI9mymdAe8CJXFdt5aXZhS4efPmW2+9hZIqiqJOpwOO2ZyynD9//vz5861WazAY2LbtOA7n/PTp081H/tprryG7w9eXl5c9z3v11VdrYpubm2+88YZhGLquj0ajhYUFzvlTTz3VPPqftsLr8xQIWoHv+3iKnU4HnUBlfm2320eOHBFCHDt2DALzpixHjx5FbCRJAsSs9cexPM9rtVooNqaI2RRrrttHFje+kpJEUYTGFsptsBFlqYEpGBATMwEhhDJkUUUIIVzXBU1UZuIoilqt1mQy8TwPHUtCyG9BJapwn0iJXhImImhqx3GsHFLgZuguAt3ATJtiaP8DvoqiqKpKyQ5N0wzDECMSgFKe58q2rFoB42d/RBlFAnIcZ/pl13XDMGx+DWA6HV0hpyrZL6goiL5lWZjfKPVEAJRliURhWdZoNLpXBbCAPJPJpCxL0OB5iInBFkYVmIbM62OC3oZhSCkNw9BxnHnOjacOngKrKo+u3+TgB9uy2+224zgo4aWUoFzff/89uhrj8Rg1nmEYKysrGNugyRPHcRiGe3t7pmmORiNc1LbthYUFzIUMw3BdF+B469YtuBZ8FQOEbrfreR5Sb1VVoA83b96E143HYwB3jXTMKNDutJ9//vmailevXj137ty0YYgG0alTp5544oma5HvvvTcej4FFWZYtLi4WRfHKK6/UxNI0ffPNN6HPcDjEIOv+++9/4YUXapJfffXVhQsXoBVcOgiCjVsbZPX31Qool2maCwsLeZ4fOnQIWAki0JRstVoInjRNgyCYF4WapoFjpmm6vLyMNKckiKZpttttIcTS0hI6XMCDgzJ3yNznv7rLoBvDTYQsKKES4BCveZ7Df9BZaIpVVYUOz3SSgm7FvKPRKMFPznk0UfVGKdfJHD6NrjocHbEFOFdKJkmCHIIKU5naCCHwtOn4Gm2LpliWZVJKMAicO+WwdQX0x35GNfVhiEX0ajCJae6ChRk9eoYAWeW1kPuQ3cCgPM9T9vAQ8eDewHdCSO2h/Pig27ZtTHD39vYAhZZlKS2OrSeTSVEUmI0rgRxDxDzP8zwfjUZ480BZ0GAAh0Mx7zAMoza2mXmQSZx89tlnOCCKom63i8zw5JNPItei84HG/9WrVznn4/EYnRLf97vdbqvVQjcbmWtpaen69etpmqLQwaCbELKysrK4uLi7uzsddHPOL126hFkEen5oXz/++OPgRdOjFxe++2aeAv1+/4svvphG2MbGhuM4jz322PHjx2vP5qOPPtrc3JzyCGDOmTNnmmzinXfeEUKAt/q+v7m5ubi4+NxzzxFC1tbWpmLb29vnzp1zHAdFKXz14YcfPnHiRG3DpWvfzrUAoQSv8QC80E9VUjS8foQJCnruaPQ2FeCc4+Ua2JPMafVRenvG3m630zR1XRcvUzQla+vOoPv6FULINK2idp6ONpTfnA4dwL2yLFOGLFrnuq4Du+ZVj6i2MJxGDw9U4F4VoLYrJZkWAOjF4iRlZw6cDPQL88x5rRHAH7IPXFnJ+XBX2BONVLT471UB/uDvUErKorRtG/Uk3piQUipZmpQSiImuOiHE87x5LM0wDLw9UlWV53lK1o0acjqNtG1b07R7IXMz7uEH/mAwwHsqUspp0d382nQImec53vlRsm7cHt7c7/cxyFAaChMQVPplWQ6HQ0DcjyowE8SXBvGgPyjLDcro9P2c9tffL11er31ta2s7iiKNsVzkmIFTSi/+3T82w2D9+nq7097d3cV7j8hZ/7xTv1kURdvb24xtVlVViMIwjKIs2q32oS9/U5P8z0F8cNA90xudLnhkzSWKjZvasdXaH2VVEcpqvlP+8Bu2/DCd3VVWFZ3FAyll+d0N/sAjtT8SImuvJtaOrsZDKQQhcm2hpUaY8rtvxa+v1f5YDXrFjbopxNVPZC3UpMz/6yMpZqiBTEf5f1xsnCOr4X796P9eF19ercuF+8W3X/7vRyG07hLrLMnR/hwLiJxISY0Z4iqzhOgWZbMWyFJiWrXgreKI2m7dVllKzRl2LaWUScycmZq73NsiRaUdPlbfkDJq34aTctBjnSWSp4+QjK9oqmRxe2Y8+1/cIKQB4VyvixFCAvteJXWr/sfDhxRHB/bBP8qFlhztEMNaDZz/AQfooibWMdUVAAAAAElFTkSuQmCC#0#'
p16
sa(dp17
g3
VBook Leipzig
p18
sg5
VBook Leipzig#Mongolian Baiti#N#125#100#2#100#100
p19
sg7
S'4286360780#4294967295#4294967295#KGlDb2RlLlFULlRhYlRpcG9zCkZsZWNoYQpwMQooZHAyClMnb3BhY2lkYWQnCnAzCkYxCnNTJ2Zv|cm1hJwpwNApTJzEnCnNTJ2NvbG9yaW50ZXJpb3IyJwpwNQpJLTEKc1MnYW5jaG9DYXNpbGxhJwpw|NgpJMzYKc1MndGlwbycKcDcKSTEKc1MnYW5jaG8nCnA4CkkyCnNTJ2NvbG9yJwpwOQpMNDI3ODE5|MDA4MEwKc1MnYTFoOCcKcDEwClMnZDJkNicKcDExCnNTJ3Z1ZWxvJwpwMTIKSTUKc1MncG9zaWNp|b24nCnAxMwooaUNvZGUuUVQuVGFiVGlwb3MKUG9zaWNpb24KcDE0CihkcDE1ClMnYWx0bycKcDE2|CkkxNgpzUydvcmRlbicKcDE3Ckk5CnNnOApJMTI4CnNTJ2FuZ3VsbycKcDE4CkkwCnNTJ3knCkkx|NgpzUyd4JwpJMApzYnNTJ2Rlc3Rpbm8nCnAxOQpTJ20nCnNTJ3JlZG9uZGVvcycKcDIwCkkwMQpz|UydhbHRvY2FiZXphJwpwMjEKSTE1CnNTJ2xpVmFycycKcDIyCihscDIzCihTJ3Bvc2ljaW9uJwpT|J28nCnRwMjQKYShTJ2ExaDgnClMnYycKdHAyNQphKFMnZ3Jvc29yJwpTJ24nCnRwMjYKYShTJ2Fs|dG9jYWJlemEnClMnbicKdHAyNwphKFMndGlwbycKUyduJwp0cDI4CmEoUydkZXN0aW5vJwpTJ3Qn|CnRwMjkKYShTJ2FuY2hvQ2FzaWxsYScKUyduJwp0cDMwCmEoUydjb2xvcicKUyduJwp0cDMxCmEo|Uydjb2xvcmludGVyaW9yJwpTJ24nCnRwMzIKYShTJ2NvbG9yaW50ZXJpb3IyJwpTJ24nCnRwMzMK|YShTJ29wYWNpZGFkJwpTJ24nCnRwMzQKYShTJ3JlZG9uZGVvcycKUydsJwp0cDM1CmEoUydmb3Jt|YScKUyd0Jwp0cDM2CmEoUydhbmNobycKUyduJwp0cDM3CmEoUyd2dWVsbycKUyduJwp0cDM4CmEo|UydkZXNjdWVsZ3VlJwpTJ24nCnRwMzkKYXNTJ2NvbG9yaW50ZXJpb3InCnA0MApMNDI5NDk1OTEy|OUwKc1MnZGVzY3VlbGd1ZScKcDQxCkk1CnNTJ3NpTW92aWJsZScKcDQyCkkwMQpzUydncm9zb3In|CnA0MwpJMQpzUydwbmcnCnA0NApTJ1x4ODlQTkdcclxuXHgxYVxuXHgwMFx4MDBceDAwXHJJSERS|XHgwMFx4MDBceDAwIFx4MDBceDAwXHgwMCBceDA4XHgwNlx4MDBceDAwXHgwMHN6elx4ZjRceDAw|XHgwMFx4MDBceDA0c0JJVFx4MDhceDA4XHgwOFx4MDh8XHgwOGRceDg4XHgwMFx4MDBceDAwXHRw|SFlzXHgwMFx4MDBceDBlXHhjNFx4MDBceDAwXHgwZVx4YzRceDAxXHg5NStceDBlXHgxYlx4MDBc|eDAwXHgwMFx4YjNJREFUWFx4ODVceGVkXHhjZTFceDBlXHg4MkBceDE0XHg4NFx4ZTF5XHgwM1x4|MGJEY1x4YTJceGM0XHhiMFk4XHg4OVx4YTFceGYxLFx4ODBceDFjXHhjMVx4ODN5XHgxMzhceDA2|XHg5NVJceDk4KFx4ODlaXHg5OVx4ZThceDA1dlx4YjdceGQ4XHhiZlx4OWJqPiBceGU0U3FceDhj|Q1x4YTVceGEzXHhhM1x4Y2RPXHhmZVx4OGUiXHg4ZlZceDhmXHhlN1x4ZmJSXHgxOVx4ZjY2XHgx|MVx4N2ZVXHg4Nlx4ZmR+XHhjNzkgXHgwMlx4YzJLXHg4NClceGQ4XHhiOURceDljXHgwMiIgXHhi|Y0NceDk4XHg4Ml1ceGJlXHhlNWw0W3dceDA4XHhjZDYgXHgwMlx4YzJbRFx4YTlceGQ5OENceDk0|XHg5YVx4OGRXXHgwOFx4MTFMXHgwMFx4MTJnXHgwOFx4MDBjXHg5Nlx4Y2FgXHgxZCBceDgySVx4|MDRceGUzZi13XHgxMlx4MGJceDgwXHhkYVx4YjYhXHhjOVJceDE5KFhceDAwXHhiY1x4MTIlV1x4|ZGJceDgwb1x4YjVSclNceGIxTFx4MDBceGNlXHhhZVx4MTBwfVx4ZWVfXHgxZlx4OGJceGZhQlx0|a1x4MDdceDE5XHhjMlx4MDBceDAwXHgwMFx4MDBJRU5EXHhhZUJgXHg4MicKcDQ1CnNiLg==|#4278190080#4278190080#False#KGlDb2RlLlFULlRhYlRpcG9zCkZsZWNoYQpwMQooZHAyClMnb3BhY2lkYWQnCnAzCkYxCnNTJ2Zv|cm1hJwpwNApTJ2EnCnNTJ2NvbG9yaW50ZXJpb3IyJwpwNQpJLTEKc1MnYW5jaG9DYXNpbGxhJwpw|NgpJMzYKc1MnYTFoOCcKcDcKUydkMmQ2JwpwOApzUydhbmNobycKcDkKSTIKc1MnY29sb3InCnAx|MApMNDI5NDk1OTEyOUwKc1MndnVlbG8nCnAxMQpJNQpzUydwb3NpY2lvbicKcDEyCihpQ29kZS5R|VC5UYWJUaXBvcwpQb3NpY2lvbgpwMTMKKGRwMTQKUydhbHRvJwpwMTUKSTE2CnNTJ29yZGVuJwpw|MTYKSTkKc2c5CkkxMjgKc1MnYW5ndWxvJwpwMTcKSTAKc1MneScKSTE2CnNTJ3gnCkkwCnNic1Mn|ZGVzdGlubycKcDE4ClMnbScKc1MncmVkb25kZW9zJwpwMTkKSTAxCnNTJ2FsdG9jYWJlemEnCnAy|MApJMTUKc1MnbGlWYXJzJwpwMjEKKGxwMjIKKFMncG9zaWNpb24nClMnbycKdHAyMwphKFMnYTFo|OCcKUydjJwp0cDI0CmEoUydncm9zb3InClMnbicKdHAyNQphKFMnYWx0b2NhYmV6YScKUyduJwp0|cDI2CmEoUyd0aXBvJwpTJ24nCnRwMjcKYShTJ2Rlc3Rpbm8nClMndCcKdHAyOAphKFMnYW5jaG9D|YXNpbGxhJwpTJ24nCnRwMjkKYShTJ2NvbG9yJwpTJ24nCnRwMzAKYShTJ2NvbG9yaW50ZXJpb3In|ClMnbicKdHAzMQphKFMnY29sb3JpbnRlcmlvcjInClMnbicKdHAzMgphKFMnb3BhY2lkYWQnClMn|bicKdHAzMwphKFMncmVkb25kZW9zJwpTJ2wnCnRwMzQKYShTJ2Zvcm1hJwpTJ3QnCnRwMzUKYShT|J2FuY2hvJwpTJ24nCnRwMzYKYShTJ3Z1ZWxvJwpTJ24nCnRwMzcKYShTJ2Rlc2N1ZWxndWUnClMn|bicKdHAzOAphc1MnY29sb3JpbnRlcmlvcicKcDM5CkktMQpzUydkZXNjdWVsZ3VlJwpwNDAKSTUK|c1Mnc2lNb3ZpYmxlJwpwNDEKSTAxCnNTJ2dyb3NvcicKcDQyCkk1CnNTJ3BuZycKcDQzClMnXHg4|OVBOR1xyXG5ceDFhXG5ceDAwXHgwMFx4MDBccklIRFJceDAwXHgwMFx4MDAgXHgwMFx4MDBceDAw|IFx4MDhceDA2XHgwMFx4MDBceDAwc3p6XHhmNFx4MDBceDAwXHgwMFx4MDRzQklUXHgwOFx4MDhc|eDA4XHgwOHxceDA4ZFx4ODhceDAwXHgwMFx4MDBcdHBIWXNceDAwXHgwMFx4MGVceGM0XHgwMFx4|MDBceDBlXHhjNFx4MDFceDk1K1x4MGVceDFiXHgwMFx4MDBceDAxXHhiOElEQVRYXHg4NVx4YzVc|eGQ3XHhjZE5ceGQ0UFx4MThceGM2XHhmMVx4ZmZ7XHg5OFx4YjhkXHhjMWJ0akVceDg0XHgwNC5c|eGMwIHFDXHgwMlx4ODkuXHhiY1x4MDQuQDZsXHhiOVx0d1x4YWVceDhjW1x4MTZceGRjXHgwNCZs|XHg4ZEZceGQ5XHhiMCExXHhhNFx4OGNjXHg4YnBceDAxXHg4NFx4YTRceGVkXHhjM2JceDE0Jlx4|OTRceDBlLVx4ZTFceDFjXHhkZVVceGNmR1x4ZGVceGU3XHhkN1x4ZDNceGE2SVx4ZTFceDgxXHhj|Ylx4ZmVfXHhlOFx4ZDdceGUzLlx4MTNuXHJceDg3OFx4ZDdceGI2XHhjZFx4MWZceDlmXHgwNlx4|MDNceDBjXHhjM21ceDBmXHhiM2hceGE4UVx4OGFceGRjXHhhYVx4Y2RceGE2XHgwN1x4YmVceDAx|XHgwZVx4ODBcdFx4Yjd2XHgxOVx4MGVgXHgxNmFceGRhXHhkNWFceGI0XHgxMFx4MDZceGUwUGVc|eGM1XHhlOFx4ODVAXHgwY1x4MDFceGU3XHhkYUZKXHgxZlx4MDJceGUxXHgwMGxceGZlXHhmOFx4|MTRceGI5VURceDE2XHgxYWFceGEzXHgwM1x4MWRGXHgwYlx4OTh2MXpceDk1XHg5ZCJDXHhiNnJc|eGRmL1x4YTZdXHg5Zlx4MDhceDhkXHhhOFx4MDBCI25ceDA0XHg4NERceGQ0XHgwMkIhXHhjNlx4|MDJCIG5ceDA1XHhmOEY0XHgwMlx4ZjhENFx4MDZceGY4Qlx4YjRceDAyNEJ0XHhkYyt7XHhmNmdc|eGQwXHhiNFx4OWZrXHgwYlx4YjBceGQ5XHhmNFx4MDBceGQ5Slx4ZWRnOy82XHhkYVx4ZjRrXHJc|eGI4XHgxZGFceDkzXHhkZVx4MDFceGI1XHgwOFFceGEwYlx4YWJVXHg5Zlx4YmJceDAyLjNceDdm|P1x4OGRceGM5XHg4YlxyXHhjYyZRXHhiMWUvTlx4YmVceDA2XHgwNTQpXHhmNVx4ZTMpXHhjOFx4|ZTdceGEwXHhiM29ceGQzXHg4M1x4YjNceGQxXHhiNTs/XHg4Mlx4YzZceGUxSVx4YjRJXHg5OWdc|eDk0XHhmNlx4OGRceGIySHRceGQ0e1x4MTlceDBjXHhhMFx4YTNceGY4M1x4ZThceDAzXHhkOFx4|YTNceDdmU11KPklXXCdceGVmXHJceGEwJFx4ZGFEXHhjNVx4ZmJceGNhXHg4Mlx4YjFIXHhkMl1c|eGJhXHgxYVx4ZmFceDA4XHhlZlx4YzdTXHg5NHk2clx4ZTdceGQ3XHhhYVx4ZGNceGIxXHg5OVx4|YmZvXHhjMVx4ZGJcdFx4ZTRzXHhmNVx4ZTFceDAwXHhlZVx4OGRceGZhXHhmMVx4YjJHQGdceDFm|OFx4MTlceGJiXHhhNSw+elx4MDNceGQ4XHhmNFx4ZTBceDBjXHhlM1x4MWRceGUye1x4ZmQuXHhj|OVx4MWJceDAwXHhjMFx4OWVnP1x4OThceGM5XHg5NlBceGYxXHgxYVx4ZTlLXHhlNVx4ZDdceGM3|dVx4ZDZ9ZVx4ZGZYXHhlYVx4YzdceGNiSnp7Slx4OWVceGZjVFx4MWEvXHgwNlxyXHgxZldceDE3|USFceGVlXHhmZFx4ZjlceGVhXHhjOEFceDAwXHgwMFx4MDBceDAwSUVORFx4YWVCYFx4ODInCnA0|NApzUyd0aXBvJwpwNDUKSTIKc2Iu|##iVBORw0KGgoAAAANSUhEUgAAAIgAAACGCAYAAAAGsMIiAAAACXBIWXMAAAsTAAALEwEAmpwYAAAABGdBTUEAALGOfPtRkwAAACBjSFJNAAB6JQAAgIMAAPn/AACA6QAAdTAAAOpgAAA6mAAAF2+SX8VGAABSz0lEQVR42uS9Z3CUZ5Y2/HTOuVsttXLOEkqgLISEhAJKSCAEAoTIYDKYIDDBZAPGgEkmGTCYDCaabCyywIgotmq2tsozVTsbZna3dn54dt/r+7P3mW6kfu7et+r99VH11FSN+9GTzn3uc67rOudIAAj/f/33/v17xMXFScR+093djZSUFMn/9m8fOHAAer1eiI6OFtLS0nw6v6urC//93/8t9O/fX/L/8rk/fPiAmJgYn64hcTeQ+/fvo6CgoM8TOzs7cejQIeGf//mfhZSUFCErK0uorq7u87fHjx/Hq1evhJ6eHsHpdApRUVHCoEGDhH79+vX5+7dv36Kzs1P43e9+J/z222+CWq0WTCaTsHDhwj5/f/PmTVy4cEH405/+JISEhAhGo1EICQkRWlpavD70Tz/9hGvXrgk3btwQfv/73wsGg0GIiooScnNzhaVLl/Y678qVK7hw4YLQ2dkphIaGClFRUcLvfvc7ISIiQmhra+vzWdauXYt3794J//iP/yj88ssvgslkEgRBEGpra4Uvvviiz3vbsmULLly4IPz7v/+78Ic//EH4t3/7N6GlpUU4cOCAxJsRnTx5Uvj111+F3377Tfj9738v1NbWCp9++qnoB+/s7MTly5eF27dvCxKJRIiPjxfy8vKE9vZ2cUMBIAAQJk6ciLS0NPz8889g/x879uzZg/j4eEilUkgkEkgkEsTGxvb6HQBh06ZNiIuLg0KhgCAIUCgUCAkJwbZt2/r8/aVLl1BRUQGr1QqdTgeVSgWdTofw8HB0dnb2OufOnTvIzc2FIAgQBAF2ux0ymQx5eXl49epVr98/ePAAixcvRnx8PNRqNQRBgEQiQUBAAPz9/bFnz55e5yxZsgQxMTFQqVR0HblcDkEQUFFRga6uLnx8jUmTJsFsNtPfZ+cJgoCxY8f2+ezjx49HcHAwJBIJ/Pz8oNPpIAgChg8fjp6enj7PWb9+PYKCgiAIAmQyGQRBQGNjY5+/ZcebN28wbtw4qFQqyOVymEwmCIKArKws0fMA/M1ARowYgZkzZ/Y6Yfny5XRDer0egiBApVJhxIgRvX67YsUK2O12CIIAi8UCo9EIQRCQnp6O69ev9/r98ePHUVRURB+A3bjNZsO0adP6vPlRo0ZBEATodDqEhobSR5gzZ06fvz9w4ACio6Ppd1qtFnK5HEajEbNmzep1zt69e6FQKOjlOxwOGAwGCIKA3NxcXLx4ER+//PHjx9PfdzgcsFgsMBgMMBgMmDBhAh49etTrOosXL4Zer6d3yt7r6NGj+1ykAIRjx44hOTmZriOXy5Gbm4sDBw54/dDPnz9HY2MjZDIZtFotXSspKQkbN27s87w7d+6gl4H0dXz66af0R9nHs1gsmDdvXq8/3NHRAYvFQh+BveDc3FxcuHCh1++3b9+OgIAAGI1GyGQyyGQyqFQqhIeH47PPPuvzxlevXg2bzQZBEGA2m+nDjR49utfv7927h6lTpyI3NxcWiwV6vZ48iMvlQmNjI96/f+9x3pMnT5CTkwOpVErXYUd0dDSOHDnS6zrr1q2j3zocDvq91WpFc3Nznwvjzp07cLlc0Gg0UCqVUCgUiI+Px+rVq71+6JcvX6K2tpb+vlKphL+/P7766iuv57x79w7Tp08nT2g2m+Hv74/m5mbcvXu3z/Pevn2LhoYGbNiwAaIGMnPmTPj5+UGpVEKj0UAQBAQFBWH//v29/vA333wDl8sFQRBgNBrJmAoLC3H+/Plevz948CB9XGaASqUSFRUVfX4Edo3o6GhIpVJyxYIgoLi4GPfv3/c459WrVygvL4dCoYBKpYLFYqHruFwufP75531eo7q6GoIg0L0ZDAbIZDIkJydj165dvc7ZvXs3IiIi6OUzbxAaGor58+f3eY3vv/8eY8aMgVQq9dgmV65cKeruly5dirCwMEgkElitViQkJOC7777zes6tW7dQUFAAPz8/aLVaSCQSOBwOr16DHZs3b0ZQUBA+/fTTvg2kp6cHY8eOJbevUqmg1+uRmZmJ48eP9/rjFy5cQHp6OiQSCZxOJz10U1MT3F2V+0sNCgqCQqGgl+Tn54dp06bh+fPnfd78lStXUFRU5BHXGAwGjB07tk/3vWrVKpjNZoqZ2D0FBQVh/fr1fV5j3rx5sNlsMJvNUKlU5G1KS0tx9epVr9sdMzy2ShMTE/t8TwCEr7/+GlFRUVCr1XA4HFAqlUhPT8eWLVu8frQbN26grKyMPLJMJkNRURHOnTsn6m3Ky8vpGRQKBSoqKnDy5Emv59y/fx/t7e0IDAyETCajmLGXSxo6dCisVivkcjk0Gg10Oh3a2trw8uXLXn98//79SEtLg0ajgUajgVarhdFoxNChQ/u8kZ9++gkVFRVQKpWQyWS0UseMGYMXL170ec758+cxaNAgyOVySKVSSKVSpKSkYO3atX3+/ujRo4iPj/dwxYIgICwszGugvH37dvj5+ZFHMxgMUKvVmDlzJh4+fNjrnO7ubowbN44Mg8Va0dHROHz4cJ/X+Oqrr+Dv7w+lUkmeaerUqbh586bXj7Z//35ERERAqVSSVy4qKsKzZ89EvcCYMWPoOZRKJcaOHes16GWxYEZGBhm5XC5HR0dHbwOpqamBw+Ega1WpVFi6dCn62qc2bdqEwMBA+gAKhQJarRZTp06FN6tuaWkhq2bHiBEj+sxWWFCWnp4OQRCg0Whgs9mQn5+Pb7/9ts/ff/jwAY2NjfR7s9kMpVKJkpISr1vX3r17kZiYCJVKRbFEaGgo1qxZ4/WFNjU1wel0khdgnsPbfX3zzTcICwujGE0QBEycOBHv3r3zeo2zZ88iPDyctlOtVotRo0bh8ePHojFHaWkpTCYTZV3Lly8XNaZly5YhKSmJjEkulyMnJweXL1/2NJAjR47QhxYEAYGBgdi5c2efq2fUqFEUkLH/jY+Px969e3sFfgCE27dvo3///uTy5XI5nE4n5s2b53U1nDlzhlwxu6+pU6fiw4cPXh943LhxcDqdtNrUajWmT5/u9RpXr15FQkICBd8sGF+3bl2fv3/y5AlGjx7tsZUajUaYzWYsWbLEa8xRWFgIlUpFwXhZWZnoR9u2bRsKCgroHLPZzDWODx8+oLa2lmK0wMBALFy4UPQ6y5cvR1hYmMeCzcrK8vCCAgDhl19+wcSJEz0eevbs2b3++MOHD9HU1AS5XA6lUkl5f3V1tdd9+saNGygsLIREIqFgNzY2tk/8wf3DMSyFufuhQ4fi9evXEFsJLEgMCgpCVFQUVq1aJfqCamtryVuytLSvDM0dCnAPYlUqFaZPn97nQmLvKysrC0qlkmKV0tJSWp19HUeOHEFERATUajWUSiWkUimam5u9bsHsKCsrg8FggEajgcvlEk19GZ7CFoVcLofZbEZ2djYOHjyIPnGQkSNHkveYMmVKn4BTVVUVxRtsf6+srBR1lZWVlVCr1TCbzVAoFMjKysL3338PMasODw+HwWCAxWKBRqPByJEj8csvv3g95/Tp00hISIDFYoFEIkFKSgquXLni9fePHz9GRUWFB7YTGhoqmjIuXboUGo2Ggl61Wo0FCxZ4ffanT5+ioKAAVquVFl59fb1XjIPFKeHh4QgPD6fgvbW11esW7B4sM+9kMpm4GdHBgwc9vKC/vz9mzpyJ7u5ueAXKhg0bBkEQkJqa2mub+O6771BYWOixh9psNixatMjrjTx8+BBDhw6l4I/97b7SXnfElrk89uEWL14s+rC3b99GYWEhreyqqirR9O/nn3/G8OHDPRDSpKQkbN++3es5u3btQlRUFPR6Pbn8iRMn9vlCAQidnZ3Izs6m+EQul2PgwIGiAen169eRnZ1N92UymURxEXa0tLRAKpXCYrEgNjaWm8Z+++23SEpKoutUVVVh7dq1ePPmDUSR1Pz8fDidzl6R/t27d2m1sSMuLs6rW2XH0KFDoVAoaMUNHDjQ6zbEXGv//v1hNpthNpths9m4ARYAob6+nj5CcXExfvzxR9FzlixZQtG6RqNBRkaG18wDgPDjjz8iJCSEAkWj0UgRfl/HgwcP0NTURGgvg87F7qunpwe1tbVwOBxwOp0IDAz0itV87HGCg4NhtVoxaNAgnD17VvScU6dOYcCAAeQ1ysrKcOvWLfgEtVdWVqKlpQUfp6WpqakeKzovL090Jbx58waNjY20XYWEhGDs2LG4dOmS13P27t2LmJgYMkA/Pz9u/HD37l3U1dURUJWfn98LMPv4WLRoET2H3W6H3W7vE/hzN9qEhAQYDAbodDrEx8f32qPdj2fPnpF30ul0MBgMfVISH58zZswYyqCCg4O9Zlzux5dffomQkBDo9XoMHjy4Txji46CfBeQ2mw1JSUlecac+DeTj49y5c0hJSYFWq6UVV1RUhKdPn3r9o2/fvgXjSlggJwYCsYg9ICAAgiDA6XTCarWivLycSz4VFBSQQQ0aNAg3btwQPWfLli0IDAwkY+/Xrx8OHTrk9ZyTJ08SByUIAlpbW/skA92ziOHDh1OcYjKZuMZx7do1DBo0iHChoKAgfPHFF6LnvHz5EqtWraI0dsSIEaLfhAWkiYmJUKvVUCgUqK6uFo2FuAayY8cOpKWlEXOr0WhQUVGBe/fuef2jr169wtSpUwnnkMlkohkBAOHw4cMICwuD0WiEwWCA2Wzm7qFv3rzBrl27YLFYYLFYMHbsWNy+fVv0nJ07d8LlcsFoNEKpVCI+Pr5PBNadYY6Pj4fBYIBWq+Uil3fv3kVNTQ3Cw8MhkUigUqnwySefiGZd586dQ3JyMmWCSUlJogYLQHj9+jXmzp0LuVxOnBXPc0yePJm+CUOfnzx54pNx9Gkg27dvJ1fEjiFDhojeyM8//4zy8nL6fXh4OMrKyvD27Vuv5+zbtw/x8fEUyFmtVq5xnDt3Djk5OXA4HHA4HFi4cKFoBsVkDKmpqRQP1NXViRrH2bNnUVhYSGlpTU0NfvjhB6+/v3nzJiZMmEDZSlpaGhFd3o7u7m7U1tZ6EI++xFstLS20BTc1NfWJObl7tObmZspWrFYrlixZIoqocg1k8uTJCAkJoTTWbrdj/vz5ojn4nTt3MGTIEEr94uPjMXfuXNGbP3DgAJxOJ2EQ/fr1w8aNG0Vv/tChQ0R1BwQEoLm5mfugkyZNoq3O4XCgvb1ddN89ceIEAgMDIZfLIZPJkJWVJZp1ARAGDhwInU4HqVQKlUrF3SJu3ryJsrIySKVSwnhGjx7tNYtgWdHw4cMJ6UxKShJdsN3d3RgzZgzUajWkUin8/PwwdepUrrf57rvvsGLFCo9gl/7jxo0bKbC02Wyw2+2i0TojeJjnkEgk6Nevn1e+gx1bt25FREQEkXXV1dXczGPbtm2Ii4uDIAiIjIzE+vXrRY3p9evXqK2thVqtpsxj3LhxoigsI9KYF6ytrRUNet+9e4fm5mbiYXQ6XZ/40cepbFxcHHQ6HeRyORwOB9ra2kSN9vHjx6SZMZlMyMjIEM1W3r9/j/b2dthsNvJqra2t3MW0Zs0aREZGQi6XIzs7mwJlih8qKyspdsjMzMSXX34p+kd//vlnZGRkwGq1QiaTISoqipuabdu2zSMHLygoELXq169fo7293QMh/eyzz0S3levXr6O0tJSCOD8/P66hr1+/nl6mv78/GhoaRO/r+++/R3NzMy2oqKgor1C7e0bI8Bqr1YqQkBDuO7527RrCw8NJN9LU1NSnvsT9mDNnDm0rgYGBmD59uuhWz5yDu4TCHSwlUKugoAByuRyFhYU+3XhWVhYZVHp6Ovbt28c1DpZFsJRRLAfv6elBc3MzHA4HdDodwsLCMGPGDJ9xEavVivDwcKxfv17UoJYuXQqn0wmtVgulUomamhrR4PL69euoqqqCIAiQSqVwOp3clPzp06eoq6sjL5CUlMT1NgybstvtkEgkXhV27kd7ezt0Oh10Oh2cTqdPcU1jY6NHHGg0GhEZGUloN/1w0KBBUCgUorgAo4bj4uIgl8uhVqsRGBgoClGzvZ3FDwxoE4PbWTzEiLqcnBzRLIIdCxcuRHBwMBwOB7RaLTeLmjp1KgIDA8kT1NfXi8ZOr169QmNjI8UbTqeTi3Zeu3YNKSkp9AGCg4OxbNky7rO0tbURcs1Ll1+8eIG2tjYKrDMzM0WRYXZMmTKFQgp2blNTE3766SfPGIStVt4LXbduHYKDg4mHiY+P55JCq1atglqthkQigVqtRkxMjCgQ9ObNG7S2tlLgZ7VasWLFCu7Dbtq0CZGRkQTONTQ0iHqOGTNmeNDiI0aMEI1RHjx4gIaGBiLp5HI5vvnmG9H7+vDhA/Ly8ijFHDJkiCjIyK7T0tJCGU5FRYUoDwVAqKiogNlshk6nQ1RUFK5du8Z9X3v37iUDZGLxcePGeediLl++7JUWf//+PebOnUtkmMvlQkhICM6cOQMeFBwaGgqXywWtVouoqCjRc54/f45x48aRyzMajdyti3kCg8EAqVQKjUaD+vp6rzzJkydPMGnSJPj7+5PnqKmp4QaKgwcPhlqthlqthtVqRUdHh2jm8fbtWzQ1NZGIOzMzs09t7sdxCtsijUYj6urqRD/2L7/8ggkTJtCHDgsLE6UN3DOp2NhYureIiAiv+hefcuFJkyaRlQmCgJSUFC6Gv27dOlgsFgp+cnJyRLOCS5cuoaSkBHK5HFarFXFxcaJkIAuUm5qaCGyyWCyi3ubdu3eYPHky9Ho9yR0LCgpw9OhRiEHUWVlZpDHR6XSiUgWGwo4dO5YynJSUFBw7doyL8ZSWltI2XFpaKmq0THfL0vjY2FifFtPnn3+OsLAwghjCwsJEkwuucdTW1kKhUBA2kpKSwo0ftm3bRjC10WhEbm6uKAp76tQp2qeZoIbnJm/fvo309HTyAtHR0aKxUHd3N8n/mTtubW0VNfT9+/cTR6TVapGbm4uvv/5a9L4OHTpEuJBCoUBmZibXOK5fv07STa1Wi+LiYq8e8GP2XaPR+CR6Zgi5v78/fZchQ4aILg5RA3n69CnGjh1LgaLZbMaQIUNEX+jdu3cxevRoqleJioriRut79uxBUVERWXReXh4XnGLiHeZaIyMjuexya2srlEolscu8CH/Tpk2Ijo6m4C0jI0NUY8IC+MzMTPK04eHh3LR03bp1KC4uplSeh7/cvXsX7gGszWbzKbtbs2YNfReLxYK6ujqfUFWvAhyWytntdhgMBtTV1XFJJOYidTod9Ho9N8LfsmULUelqtRoZGRk4ceIEd1uZPn06Bb4ul0s0Yn/9+jVmzZpFrtvlcqG+vl70GmvXriUswWAwIDIyUlQRztT97gRiTk6OKPPLEGVmGDabDZmZmaJB7K1bt1BUVETVBiEhIV41wB+LsNgC1Ol0KC0t5YqQ+jSQV69eYdWqVcjPzyf3pdVq0draKooNnDp1CoMGDYLD4YBEIkF6ejrXOKZPn06wuVKpRP/+/T3SK29ZQVNTExUbabVarueYNGkSTCYTIiIiYDabuSnj7t27qcYnMDAQ/v7+3C3i0qVLaGhoIFVXRUWFT1uRw+GgAD4zM5MrV5g4cSJpbEJCQrB161afAvjw8HAolUpYrVZMmDCBm0m5k3m93CqTuzHo3FsdiXvNSnFxMa2chIQE7gtdtmwZtFotpXIjR470yZqXLl1KKyEpKYmbRU2aNIk+tt1u50oPTp06hZycHHoWs9nstcbFPfNKTU2loDc4OFg03mK4kNVqJfS2rq6uz/IK9/hp+PDhUKvVkMvlSEhI8Fr28XFGxKQUWq3WJ+Ds8ePHmDx5Mnbs2OEJlB0/fhwxMTEeBUO8TOXQoUOIj48nnarRaOTexI4dO2A0GqFSqaBSqdDW1ubTXrh582Zy+wUFBX0WZblzRC0tLRThFxUV9VkZ535cvHiRPCcLlidPnix6zvv371FYWAi1Wo2AgAAMGDCAiwvt378fdrsdKpUKJpMJEydO5JJoRUVFUCqVVI/MSxKePn2K8vJyEpebTCaMGTOGC7k/ePAAJSUlHouW/uPs2bMpFqipqRGlxNmDBgYGUtAXExODTZs2iZ6zcuVKUmsbDAbU1tZyjePly5eYOXMmfbjq6mrRyPv69evIzc2lWt+GhgbR1cm2FVbgLZVKkZiY2Keq/+PtuLa2lrKckJAQLs6xYsUK+Pn5ISAgAH5+fj7B7dOmTSNcKDw8nBvX3L17Fw0NDZRiWywWKqMUOx49eoShQ4eSfLO2tvZvBvLu3TuCwr1Vo7v/oenTp0Ov1xP+UFZWxt0/29raIJVKoVQqodfr++wk0BeekJGRAbvdDr1eD5fLJbp6nj59itbWVvIc4eHhXC/Y0dEBf39/IsScTieXeLtx4wZKSkqgUqkQFBSEpKQk7odbsGABYSlyudxr7Q07fvjhBwwcOJAEyTxdK5NesEBZoVDAarVi4sSJ3Pd87949FBQU0KJyOBwYPHiwpwdpamrCpEmTRPPv58+fY/DgwZDL5VAoFDCbzZg8ebIopP3+/XvMmjWLKvZcLhcWLFjAvektW7ZQVR3TjIjhHD09PQSFq9VqhIaGYvPmzVylWX5+PnnBlJQU7N69m+vRmKwyNDTUJ/3ojh07KBYICwvrs1rx4w/t3rKCF2+wKsSsrCzIZDIqUZ0wYYIo2suY6X79+nmUqRqNRrqmh3iWZ2XMBalUKpjNZlRVVXEBoLq6OqhUKkgkEkRERPgk5T9x4gTpP3Q6HZKTk0WFOAyzYW41PDyc+1IPHjwIu92OiIgISKVSmEwmrkE9f/4cs2bNot/zPvTbt2+xbNkypKSkwGAwICYmhoI/b8fRo0dpYVitVixatEiUI2KGHhoaSoYeEhKCyZMn92p009c3zc/Pp/hGqVQiNDTUYwH7BLWfPn0aSUlJFMAGBQWhsbFRNLg6c+YMZQQmkwkBAQE+7YWsVpZF3s3NzaLbxIULFzBkyBAq7s7JyeFC4d988w2Rjiyd5Z1z9uxZjBs3jrYvXzKvyZMnU1yTnp7O9U579uyh+4qIiPBJ6LN06VK4XC5IJBJIpVLo9XpMnz6de97169eRlZUFm81GXZ3q6up6vWuucdy8eZMCMZvNBqfT6VNwxfZCf39/ZGVliRYzuafMrMzC6XRyDerGjRuorq6GWq2G0WhEYWEh1+WfOHGC3Lder0diYiL27t3LdcPuVMCoUaO4QNP06dNJ8O1yubjGsXLlSopR+vXrxzXA169fo6amhuJAtrX6ohu5dOmSR5GWxWLBmDFj+sS6BJ64tri4GAqFghC/MWPGcFfnsGHDoNFoYDKZkJOT41P9xY4dO0htFh4ezuUWvvrqKzidTlgsFkilUqSlpXFxkYsXL1LhkNPpRGxsLBe5/eabb6hKTq/Xi3bncQenGM7j7+/PVauPGTMGRqMRWq0WdrudG8Cy4FqlUhEXFRAQwC3WZrtBfn4+VCoVNBoNIiIiRCEA7l7IkDulUomGhgbRIHb//v20f2q1WjQ0NHCN49GjR2hubia1mVar5Qpqpk6dSj1A/P390djY2Kt3WF/ehqngVCoVsrOzuYji2bNnKRYyGAwYPny46Lb64cMHsAJvVuPDu0ZbWxsBhiaTifvsb968wbRp0+BwOEhzGxoaypVVskCWBaSMfOUJsbyCUtHR0VAoFFAoFDCZTGhqahIVrrBmJ+xBKyoquMbh3ndLKpVCq9Vi+PDhXgEdprEICwsjLGXYsGHcYOz06dPIzs6GRqOhRnG8l7lt2zbq6WE2m1FRUSG6rXR1dSEvLw9qtRpBQUGQy+XYunWrV4Xas2fPMHjwYKpF9qX0oaenB+3t7R49VgYPHixa0uou3GL6D6vVCoPBgK1bt4q2lOiTi9m4caMHaGSz2biuq6OjA3a7ndKk5ORkPHjwgBtB5+TkUOZhMpm89vX6uN6XNaRbtWoVty3CL7/8QlSAw+FAa2srF7ncvn07HA4H3VtJSYno89y6dQvl5eXEsAYGBorC+i9evEB7e7tHWskD5gAI8+fPp3SZpdk85JZJMWUyGTQaDcLDw1FXV+eThNPDQI4dO+bh6jUaDWJjY712zXHXJbDIXq1Wo7W1VRQGd9dyMDFRZGSkqIv88OEDWltbPUoheSkmy6QYfB4QEICZM2eKeps7d+5gwoQJJF0MDAzE1KlTRc+5ceMGhgwZQo1biouLuVLEefPmEXej0+m4geXr16/xySefkAcwm81IS0vj6ocZEsu2k5iYGCxfvlxUd8sqHlk8R//n4MGDPRrIZGdni0b3r1698ihJMBgMXOke43z69+9PkoCAgADRB33//j1KSkqoPFMQBDQ0NHAf8uTJk0hLSyOKf9GiRaKM9Js3b8Aq15RKJWw2W599VD/2HKzBnFarRWFhIRftXL58OXmOyMhIzJs3j0s3tLe3UxrLtCm8beX58+eYP3++h56Fp9ADIHz22WcIDAwkeQcFiu5FQw0NDaLlhl1dXaipqaHU12w2Iz8/n+vuz5w5Q7Uher0ecXFxohH0y5cvUVFRAYlEAoVCAaVSieHDh4sWUTOdBevso1aruSWdr169wuzZs4ldTU5O5gq4nz59in79+sFisUAul6O+vl60udz79++xZs0aEhPl5ORwWW8G0TPPodVqMWTIEK6gav/+/SgsLIRer4dcLkdqaiqXrAQgTJgwgWIip9OJFy9e/O2FshWalJQkiiWcOXMG6enpVDYYEBCAOXPmcHEBFkGzgvDg4GDRVkw9PT2orq6Gv78/dDodrFarT3T1+fPnKVtxuVyora3l3tvo0aM9OhDzXub+/fupZ6tMJkNra6so3fD27VvMnDmTcI6amhqf9KMzZswgrxkdHe1T7HDlyhXKVNRqNaKiorjaFBbfuHdsDA4ORnd3998MhNHiYrjAkiVLqLDbaDQiKCiI2wGIEU+pqamQSCSQyWQICwsTZX67u7tRVVUFlUoFpVIJpVLpk3tcvHgxIiIiYDQaYbFYfCIEJ0yYQI3oIiMjRbsbsvpVVlfMWinwiEp36WZOTg63XQPDXxiloVKpMHz4cJ/QUSb8ZrwPT5sCQNiwYQPFnsyICwoK/rbF7Ny5E1VVVV5dV09PD7744gtywUqlEpGRkT65rfPnzyMzM5OMKjY2VlR5fuPGDerwx4qoq6uruenY7Nmz6cX4+/tzdZoPHjzAwIEDPXqG8OqKr127RkEvK0vg9SVhJRkMPueBeeyDMXExg8B5XvDNmzeEwSgUCoSHh3OxIdZunX1Xlj5HRERQdaVPXExHRwe9SEEQkJ2dzW13xLKVsrIyOJ1OOJ1OJCYm4vTp06IdegYNGkRuLiAgANOnTxeVH3R3d2PhwoUwmUzQ6XRISkrqswDo4y6KmZmZHlMPeFD4xYsXydCTk5Mxf/580aCXteV077TEq/x3b3TDWqDn5ORwxdI3b95ERUUFNBoNZDIZoqOjRbdvd8E082xarRZarRaVlZV9V/d7Sy9Xr15NuIhWq0V5eTlOnTrFvfjx48cRGRlJXEFWVpZoEPvkyROKHfR6PaxWKzfH7+7uRk1NDSnNXC4XN/U7ceIEEhMTPdpS8gTJa9asQVJSErWznDRpEldp5t5WKisrixsosyJyhtxqtVqMHj2aq2e5du0aBg4cSMaenJzM9bZMvMRgBgaGjho1qpc8QBDLVGbOnEnAjNVqxezZs7kYB2sOk5SUBLlcDolEgszMTNHY5tGjR8SRMPKIV0D++vVr1NfXk7dJTEzkGtTJkyeRm5sLiUQCrVaL0tJSLgq7cuVKyvBMJhM35mLzb5iut7S0VNRrMsHWxo0bSeFvMBh80sycOXMGGRkZpPCPjY3lbmGPHz/GmDFjaGQJm7XjDbvxmt+PHj2aLEwqlZLCiHccPHiQaH7W1lkMG3j79i3t64xA45FVP/30E1pbWyn9S0lJ4bLFe/bsIUZWrVYjISGBi1l8/fXXxGQ7HA5uXPP+/XsqFzGZTBg8eDDXA/z0008eAKXL5cKoUaO47/rbb79F//79iXKoqKjwybOPGzeOYAOtVovo6GhRo+oTTWRjMdjLrKqq4lrmq1evsGnTJspWjEYjiouLRffC69evk0TOaDQiJyeHqyI/d+4c6urqiCfy9/fnVrJ//fXXpLNQqVQoKiriSgS3bt0KnU5H7cDnzp3LrddhPUO0Wi3y8/O5rv7p06ceWYcvfWFZms36zwYHB/vELbGAlO0IUqkUERERHu+hL8DO4wPv2LED1dXVFLjY7XbU1NRwyyDfvHmDUaNGUbRut9u5geLr16+Rk5NDozcSExO5Rvjdd9+hf//+5L7T09O55yxatIi6+qhUKtHJEu6FU4xwi42N5ba32Llzp4cAKTs7mysjYAgpexaXy4UhQ4ZwA9+Ojg6KN+x2O/Lz87nX+eWXXzBjxgyiKkwmE2JjY71iKu4KNg+2z71xPsP7fYk5PvnkEyprDAsL45JuJ06cwMCBA6lZvdPp9GlFs1jA5XKhubmZq7xfvXo1tW9iKjBeK4UNGzYQFD5kyBDu4hg/fjwcDgfMZjO0Wi0GDBjAjTk+fPiAYcOGQaVSEYudnZ3NrcedP38+XC4XSThra2u5BvX48WOqeDQajbBarSgsLBTFR65evUqVAOQeJRIJBS1sWhTvA3ysH7VYLFxA6+zZsx5DCUNDQ7np3/r16+FyuQg6b2pq4t7XypUrPZT3paWlXM6DqbqYXoQXwB44cAA2m4221Pr6ep/EUYMHDyYOSyKR+CTFXLx4MXloq9WKzMxMbq/Td+/eYfDgwZSxabVazJkzx6shvnv3DtOmTUNgYCB9R3pQtVpNNz1kyBBuAMdgXfcOh6NHjxbddy9fvozy8nJSuOfn54vCwG/evMGaNWtQWFhI+3RJSQnXq23fvh3h4eEeBeE80GjGjBmQSqUwGo0+kYGnT59GRkYG3RevvYX7tsICX5PJhIULF3K9QFVVFaxWK+ltysvLuec8efKEPjYrZxDT6Lx69QrNzc3Q6/XQaDSeZN2GDRtIb5mYmOgTAvf9998TW2q1WjFixAhRt7Vv3z4KSE0mE2pra7kNcJcsWULUOxMh8dz3Z599RlulyWRCdXU1V9X1ySefeFTt8Yzj+++/x8CBA8kLlpSUiLYaZ7DB6NGjyQuwbo1ixOPDhw9RUlJCHkChUHAxGEbX5+XlUazCkGVv36enpwcjRowgb2swGMirk9u3WCwIDQ3lws1MSc4IodjYWKxfv97r3t7T04OFCxfSiwkJCcHixYtFpfwvX77Etm3baMVoNBrMmzePW+Mxe/ZsOJ1OgoynTZvGZX4nTZpEo0/Hjh3LXZlXr15FYWEhZVHNzc1cpJM1wWWoqt1u55Y/sEa4DC6IjIzkxnashzubxcvYdm8jY90DX/f26RaLhURVHrSyL2zp0qVLERMTA4lEgvLycu6KXrBgAfEKbAXw6jy++uorop01Gg33AXt6ejBnzhwCmgICAnoNJujrmDt3LnE+48eP55JoZ8+eRXFxMYFz+fn53GdhCncGn4eEhPgkP5g5cyZNvlCpVNzuzQw6j4qKImllcHAwF1NasWIFYmJiYLFYyICHDBnyv6uLYfgDG+QnlUpRVlbGrXn9+uuvkZGRQfjD0KFDuavtm2++IaAtMDCQW2j17NkzjBo1itBEg8HANY7nz59j2rRptK2mpqZyA/KrV696tIgqKSkR1cy4r06WAmu1Wm5B19u3bzFmzBiPvqU8yIBloQwb0Wg0cDgc3Gvt27cPsbGxHpPFs7OzPZ7LJ+P44osviKgSBAEtLS1cMqijo4P0o4GBgT4pz909h5+fH7cxb1dXF5KSkggwY7NZxM7p7OwEwx9Yu21fOgeVlJQgKCgIGo0GgwYN8olGZ/OE/f39ERAQwEVIX79+jcmTJ5OrZ3ICMSHS27dvsXDhQsTHx1NT49jYWK/DqRmHxUTMzBAlEgkGDx7cC7/hGsfnn3+OoKAgkrvFx8dzya2VK1cSnCuRSLjo4MuXL6m5HBvlzmsM88MPPyAqKor6f7AJ3GJppntZgtFoRGlpKTcj2rFjh0eP1+zsbG77hffv3+PAgQME7RsMBp/6lg4aNIgyQiYn4NXgrF+/nlpLSSQStLS0cJ9p06ZNHuPgAwMDMWPGjD7jNW4ZJKt0Y6JXMUDrw4cPaGtrI36ANWblUdWMv2Bjy3gv89y5c4iKiiJFV3BwMDd+YmkcywgSExO56iw2Q455m8LCQu622tnZCff5f06nk6se6+rqQltbG4mLQ0JCUFhYyMVtPvvsM2KM5XI5Bg0axAUCt2/fjoCAANpS1Go1VqxY4dVLiQYvNpuNmsOkpaWJeg429JDFKHq9HlVVVaIPuXv3bhQVFVHzmUGDBnH1locOHUJKSgrMZjMsFgtMJhO3FvXRo0eYNGkSZTc1NTVciP7zzz8nAk2pVKK2tpa7rXR1dZGH0mg0iI6O5nYRfPbsGVjHQqVSiYCAAIwbN45rHDt37qRu1waDAXPnzuWWc7B2GsygYmNjuWlzn7j96NGjIZVKiS3NyckRzfOvX79Olf8sfqioqBBdoZs2baI0lhWE8xRqP/zwA3ExMpkMarWaWwqK/5kK6d5/lIdALl68mPAXhUKBcePGcT3HpUuXKE5j1fK8zOPevXse8wBVKpVPqez+/fsRHh5O08CGDBnC7R60f/9+8qBSqRQDBw7Etm3buNtRL3kgg8GtViv0ej0KCgpEWzkeOnQImZmZVFuqUChQX18viiesXLmSioxYMQ8Poj958iSKi4up/0V8fDy3XYN75yS73Y7p06dzvQCbfCCRSGA2m9Hc3MxNfy9dukSSBblcjqKiIm6D//Pnz6OoqIjkfnFxcT6lsrt27UJKSgrkcjm0Wi0CAgJEaf5Xr15h/Pjx1I9dpVIhLy+PG0f2WTgVHx8PqVRKZN348eNFx1cdP37co0qcVb6LgVMHDx6En58fBb0BAQHcQu2TJ09iwIABhAyaTCafXuaVK1dI9OxLR8D58+dTNuRwOHwaaLx//35ClA0GA8rLy7kdBo4ePUrib4lEwhWLM55k1apVlJaq1WpkZ2dzi7QmT55M702hUKCwsJArF3WnS4jzYD3CWbuCtLQ0rrv39/eHVCqlJv1Tp04Vham///57ArNUKhXCwsK47Z527NjhQe4xroT3sc+ePYu0tDTI5XLuNRiOwLIof39/tLe3+9S4hVHorAcIr5K/q6uLtknWFdKXxsGffvopcTgMUxLbHq5fv47x48fTVqnRaNDa2iq6vT579gwTJ05ETk4OcWSUfTBPwAQoYgHP06dPe6V+vAZuly9fpg9tt9uRkpLCrdc4d+6cRysml8uFefPmib6Yly9fYuHChVAqlVCpVD7VvM6aNYtWmZ+fH6ZNm8YV+xw7dgxBQUF0XlpaGlfV9uTJE7S2tkKlUsFqtSIwMJBrHB8+fCDchpVdTpw4UdRL//jjj+TVWDfJ/Px8LifV0dFB2Q0D5zxcUW5uLtc9HjhwgBhcnU6HnJwc0Rjll19+gTvKFxERgaamJi7z+d133yE2NpZuWKlUcnWajx49Ql1dHTV+86VF9fLly8lzmEwmtLa2cj0Ha43B4qgBAwZwSyGZUk8mk1Ex2L59+0Sv9eLFC2KyjUYjdDodRo8eLeqlb9y4geTkZMjlcnrnQ4cOBa/F2OrVq+F0OinArqys9DSQ7u5ubprE2jiyPTAyMpIbwGVnZ5PGQhAEn1pHs1kuLOg1Go3cnqW3bt3yGLk+bNgw7nUaGxuJwYyLi8Py5ct9wh6Cg4NJSlBcXMztx3758mWkpqZSsVVKSgpXIIX/mTjlHsy3tLSIeo6dO3diwIAB0Gq10Gg0UCgUooiq+/ZqNpspLrRarb09CA9kmj59Orl7NoxPrJiHDVlmKB8TIfHabX/11VcICgoiACgyMlKU3Hr79i0uXLhAKaa/vz/y8/O5UXpJSQnhIoGBgfjss8+4xrF69WpERkbSeUVFRdwtYvPmzUhLS6PpkxMmTPCJw3HnfYxGI9cbrlu3DrGxsaT9UKvVPnVH3LVrF4KCgiCRSCieCggIoG2caxw9PT1YsWIFcSS+SAIYG8k0FlKpFEVFRVzmd+XKlR4ze+Pi4rgfYPfu3RS8mc1mtLe3ixrho0ePUFBQQLFDYWEht4EdC5bdNSDJycncbGDdunUUJMpkMowcOZI75xeA0NzcDJvNBrlcjpiYGCxatEiUQtiwYQMCAgLIS4eEhPgk21i9erXHMAXG5LrHeAIPNp48eTIpoXU6HRevuHTpEqqqqqDX6z0UamLioK6uLkyZMoUMijVy4+3rN27cIHFxdHQ0l9pmrSRYyhcSEuJTEfXq1avh5+dH8VBcXBz3A2zevJnkiEqlEgMHDuQGiW/evPHodqzVatHe3s4VO0VERJBxREZG+tS7dcaMGdSCQ6FQwGazob293ffCqSNHjiA9PZ08h0qlwrJly0QDpOfPn1NbCGaRZWVloh/60aNHaGpqokBUJpMhKSmJW09y69YtlJaWwm63w8/Pj4vCPnr0CCNHjqT+5UqlEh0dHdwVffToUQ8lfU1NDTdjO3ToEMxmM72DtLQ0Ll7x5MkTagSs1Wqh0+kwc+ZM0Wxq48aNFBM6nU5kZ2dzSc4ff/wRra2ttHjd1W0+czFbt24lt80GA/EItOfPn2PUqFE0xlOtVmPIkCGiyOWzZ89QU1NDxJZSqcTQoUO5PMmJEyc8FG08vuP169ceVEBISIhPHQHPnDlDBu9wOLBq1Squqm3nzp20qNi1fPFSjA5QKBTIzc3lKs7Onj0LPz8/qsf1pafqyZMnkZmZSUy72WxGXl6eqMfp9SLXrl1LNLVGo4G/vz93JEhPTw/Gjx9PMjeHw4GMjAxRFJaVDLhzMUVFRdwyg4MHDyI2NhZmsxmJiYlcd/rs2TMUFxfDbDbDaDTC4XD4VCd77949JCUlEcPqC+dz9OhRKs0ICgpCfHw8d8AB/mcaVkBAAAwGA/r168fV2pw+fRppaWn0vmtqanyKbVgHJRaI1tfXczPXXsIgFm8YDAYEBwdze5Q9efIEEydOpLRPrVYjNzeXSzu3t7cTryKRSHxqq7Rjxw7069cPNpsNUVFRPmlB6+vrqc9GWVmZTxzErl27PMQ0TU1N3JqV7777jrwuQ6J9qbCfMmUKBYqJiYncaoKVK1ciKCgIMpkMOp0O+fn5XCHWxo0bqcuj0WhEeHi4TwCih4EsWbIEOp2Oonun08mtVzl+/DjS09Npr7Xb7Vi8eLFoxP38+XOaLc9WQHl5OVcYs2LFCo9ZeLzibmaENpsNFouFq05zF+CweS4sK+IBZ+vWraMmNEajESUlJVxlfFdXF8aOHUseatCgQT4p2xITE2myVWpqKreN1b59+yjeYCNqfWGMWSbo8TJZRRl7MTx3ypq5slXDc6ddXV1obW2lc1icwovuN23ahMDAQGJKea2zr169ilGjRkGv1yMsLIw7acq95NJgMBB45kuHomnTpiEzM5OkEfX19VyYft++fRgwYAD1XfMF8V2yZAlCQkJgNBqhVCpRUlLCbSozd+5c0n+w+Tw8r7Z582bk5eXRoIZevdUNBgPa2tpEV83Bgwep9oSpu3kNWD58+AA2P44FSSNGjOBCwHv37iVVV3p6Ore4u6uryyMg9UXw+3EbJlamyaMDOjo6SKHGUnNerc+CBQvo3RkMBsyePZuLRs+cOZO8LdPn8ETWHR0d8PPzQ2hoKLVE5xF1c+fOpSFRwcHB6Onp+Vtwyto6T5w40etH6+7uRnt7Oz2gXC5HZmYml8F8+PAhpk+fTugoq/znBbGbN2+mltupqancVPHVq1eYNGkSZUUVFRU+VbsxD8Waxa1du5brBRYtWkSexmw2o6CggJt9sekPDHtobm72yXOwQUxMTiAGtz969Ajt7e0E0QuCgPHjx4t66YcPH2Ls2LGE8xiNRvj7+/+tid2NGzcgl8sxePBgUeXUxIkT6aJarRYOh8OnVlQTJkwghTsj+Hj77datWynHT0hI4DK/79+/B5ukaTKZUF9f75PyfNmyZVT3Gx4e7tN2dOPGDY9p3wsWLODqRtj0B3Z/DQ0N3LjrxIkTtBgtFgs3lf3pp588vKdCoUBlZaVogP3gwQPqRM06XUqlUsTExOD169eebsxb+6Z79+6hpaWFMhyNRuOTGPfly5dYsmSJxxTu6dOnc7eV7du3k9KqpKSEK6a5fPky1ewIgoAFCxb4VET9xRdf0DkZGRlckIkZbllZGU285vVTZQE287j+/v7o378/t4Lv8uXLCAsLg91uh1QqJXZVDLPJy8ujbgFGo9Enw2XvjSG+DClm9Ujcvfn27du9RlZFRUVxC5pOnjyJqqoqcvdBQUGoq6vj7p3r1q2jtK+6uppb87phwwaUlpZCo9FAIpH4xBaz1M9ut8NqtcLhcPgEZq1fv568mslk8mmLWLt2LfEkfn5+qK2t5epbv/32W5qaERISwvUchw8fRnBwMHQ6HaRSqU9Jxv379zFhwgTqW8sWsdVq9aARuMgb6x3G0tKoqCguNnL48GFERkYSn6BUKn0KFjdt2kQpWV5eHjfgu3fvHj0YmxThi3F8/vnnHi23fWk0e/jwYSrliIqKQnBwMJeZ/vbbb6lMk7Wz5F3n66+/pq3YbDajra2NuxBZ8z+WTX7yySfcmLCyspL60LKmgbm5ub36vInqOfPy8oiJZPPdeMZx/fp1pKSkQKVSUYRfUlLC7bUxb948epkFBQU+IaTp6el0TnV1NRcVZByTyWSiXqK87Iu9C9YDxel0orq6msvHrF27FuHh4bRCfanKP3nypMdIMh7Wc/HiRURHR0Mul0Mul8PlcnE5qefPn2Ps2LEeM2Oys7Nx8eLFPjNXr/sZ68zD0MS0tDQu9f78+XPK71lEnJ+fz9U/tLe3Q6fTwWAwIDAwkLsC2CgRFqnzOJ+PU2Y/Pz+f6n6ZmIat0KCgIJ+KoMaPH08VfyaTyacu0WvWrEF8fDz8/PyQmprKbed5/fp1xMXFUfVicHAwV0nPuhmwrYQtXjEuqxensmXLFhLfsL5emZmZXPzh2bNn5HEMBgP0ej3mzZsnqtPs7OzE6NGjyQu4XC4uenvu3DkaXabT6VBdXc3NBpgSzL0Oh0fXv3z5Ek1NTXRvGRkZXFLw4waAVquVOzGCJQhsq4yOjuYy2efOnaMWXky4tHfvXlHs6vXr12hra4PBYKDJEVVVVVx6o1eXX71eT7yKQqFAYGAgN7p//Pgx2PhwmUwGi8XCXZ2dnZ3IycmhoC8yMpIr3Dl06BCVgprNZkyYMMGnbGXJkiUUP/j7+3M7FjKdBfOCWVlZXA5nz549NMJNr9f7DO/PmzePUtkBAwZwvfSmTZsQGxsLq9UKlUqF1NRUruEytpglDMnJyWhra+Nmkx4G8sMPP5CynUHhwcHB3Oa0b968QVlZGfR6PSmoecXaL1688Bi3npSUxI0Ftm3bRlxMeHi4T+wqq3VxOp2QSCRISkrieo579+5h3rx58Pf3h0QigcPh4NbUsPbZ7Hni4+O5DDjzaixOq66u5mpbly5dSpC+QqFAQkICF0969+4dli5dSkaYlJTEjW2OHj1KdUceWlBG1Ol0OpSWlnKt+eXLl9TLw2azITAwkFuD0tnZiba2NpoWUVhYyG0Au3DhQjJai8WCsWPHcunt+/fvY9asWfTRfNkmHzx4gMrKShLvOhwOrrFv2bKFvKBOp0NcXJzosAL20ebMmQOZTAY/Pz8UFRVxg/iNGzdSUZfL5UJ6ejp3e3DvpqjRaNCvXz/ugt+9ezf69++PwMDAvyGpDJxi1lxYWMjVZTx79gxDhw6FXC6nfp2+9FZvamqiboU8zgf/MzKUscwRERGYPXs2V1x8+vRplJWVkUFFRERw7+3Vq1eorKykbWXAgAFcz8HKJxkIlpWVxTVCd+DM5XL5JPSZM2cOeTSZTIbBgwdzPcdPP/2EUaNGkdDcFznF2rVrCfNSKBR49uyZp85ApVL5hJDeu3ePAlKtVovq6mpu8TCLBYxGI3XR433oJUuWkMYiMTHRJzDr22+/pZRUo9EgMjLSpxEcc+bMgclkgslkgr+/P/dD37lzB0VFRYTbZGZm+jQ8evHixbDZbFAqlRg7dqxPelgmfLbb7Zg2bRo3dvjyyy8RFxdHwGZ5eTmX97p06RIF/3K5HAkJCZ5bzPHjx2EymbjFSQcPHkRaWprH4GSemObhw4cYOXIkXC4XNBoNd6r0kydPUFVVRUXUdrudO0+WyfBSUlKgUChIDcfrktzV1YXGxkaqeueNSQMg3L17l4YtK5VKn41j5syZBLf7AtGfPn2aKhhdLpdP72DNmjXQaDQwGAxQqVTIzc3lQgDnz59HcHAwLV7WBaFXFsNTJp08eRKJiYnkORISErhajoMHD6KsrAxmsxkKhQLt7e2inoPNmJFKpRQLtLS0cLmLY8eOkdBHrVbDbDZzA9+NGzeioqICBoMBWq0W/fv353qOR48eITs7mzK9iooK7ge4cuUKampqIJfLERYW5pPYiWlG2PbAAygZzhMSEkIYR11dnU+tvUtKSoh81Gg0yM3NJQ2yz03s1q5dSzUrOp0Oubm53GlL58+fp4c0GAyYMWOGqOj3woULtHUxV1dZWcn9ADt37kRsbCxF+FFRUdyU+dq1a0hISCCGtampiZsyP336lMa5WiwWTJ06ldtfo7OzkxrEaLVanzpJrlq1ijK2pKQkn4zjyy+/pLYQTEMrFqe8e/cOy5Ytg8Fg8BgmMGLECA/+S/A1VXTvBVZZWcnVSxw8eBDR0dEwm82IioriVnlduXLFo4tgQEAAamtruQOav/rqK1itVigUCshkMoSEhHBf6JUrV5CYmAi5XA6pVIrQ0FCudG/v3r2UsQUHB3NV58yrMSrdZDJxkc7Xr19j0qRJVDaZlpbm02RM91EnKpUKM2bMEM3ybt68iZaWFgLa2P21tbX1yqa4xjFx4kRKMZ1OJ0aOHMld0XPnziWhT0FBAZeuv3fvHoqLi2Gz2WjyYl5enk+NW0JDQ4nFNBqNXJzj7t27KC8vJ1VbYWEhDh8+DB5/w1Z0cnIyt58JywoZqOcLcPj8+XNMnjyZtq6srCyfOl5/8803yMjIIJ3q+PHjueew+huGeQUFBaG9vb1PoxJ9kUOGDKGMQBAELoX86NEjtLa2UuaRmZnJJbVu3LiBxsZGCo4kEgkaGxu56u5t27YhJiaG4HO73c4NFH/66ScMHz6cKPHx48dzYe3jx4/DYrFAKpWiurrap26FX3zxBZFucXFxXO/58uVLEnIz8oxntGxbcR/VzgMP3717hxEjRnjMjMnMzMTatWu9ZqF9FkNv3ryZomeGWdTX13PT0lmzZkEulxN9zBMXs3RZIpFQNX9xcbFPbaLcZ6YEBARwMYszZ85gyJAhkMvlUKlUqK2t5abmO3bsgMvlglwuR15enk9F16xMk320sWPHiqalHz58IHaV6U19MY4lS5ZAq9WSUU2cOJELHk6ZMsVj7NuAAQO4sVovTmX48OEekxBZHs3TPkycOJHybpvNxi1Ounv3LpKSkih6NplMmDVrFvejLVy4kFhcu92OjIwMrlL7xIkTRIbZbDbU1NT4tK+zjM1ut3PZVSYocq8rKikpEfWg9+/fp3EdzNX7kuHs3LmT+o3p9XrurF8mefT394der4fRaMTgwYN92sJ6yem0Wq0HYdfQ0CBqHNevX8eYMWPImPr168fdozs7OzFo0CA6JyIiguttenp6sGDBAo8hi3V1dVx11pEjR5CYmAipVMptJeG+RTCZQ2Jiok/V/zt37iTPERYWhtLSUtGyhEuXLsHhcFDm5XA4uJgNg/ZZ/3ZBELjUxs8//4wpU6ZAoVBAKpWipKTEp7YQfRpIa2sruW65XM4Fc27evImamhqEhoZCoVD45OqfP39OvUSVSiVcLpdPQZ/7QB2Xy4UJEyaIFid1d3djxYoVlGabTCafWM8ZM2aQ8tzpdHKV9K9fv8a0adNoBKzVasXo0aO5njA9PZ26GcTFxflkhPv27YPdbofRaKR2EmJURWdnJ2pqamA2myGXy1FSUsJtAXrz5k20t7eTnNLjPzLcnhXm8AK+gQMHEoXscDi4SN+TJ09QXl5OKjU/Pz/uB3j48CHmz59PQV9MTAyWLl0qGg+xqZ3M20RFRXFTzBcvXmDKlCnkunNycrjZ15UrV1BRUQG73U5lpLwiqJcvX2LDhg20jSckJHDLRpjnYEVQgiBg3rx5oiDY8ePHUVBQQDiPL2rA27dvo7KyksbEnTx50vMHLGPh7U/79u1DXFwcpFIpVCoVkpKSuL05Lly4QE3spFIpwsPDffIc8+bNIzecl5fH9QK3b99GVlYWZDIZJBIJbDYbl3q/cOGCx+iu/v37c/fnU6dOISIigryawWDAtGnTuNKIlpYWaLVaGAwGhIWF+QTRz5o1C3a7HXK5HIGBgejo6OAKiph0w2g0oqioiIsqHz161KOlqUajwfr163sXAw0ePJjbIdl9aE9kZCRX9Ltt2zaPqZDJycnc+pPOzk40NDR4DBvmSfdu3brl0X1RoVBwy0GPHTtGK02hUPjESt++fRv5+flkHHq9HlOmTBEtaGJF7mwcW2BgoE/F3XPnziUIwM/Pj4vEHjt2jBTxKpUKBQUFXDnFsWPHiMXVaDSwWq2wWq24efNm7zxZDBc4ePAgfTCr1YqMjAzuh163bh3pGNRqNVJTU7lxyi+//AJ3BZRer8fEiRNF0Vv20dgWabFYuEXKBw8eJAbT6XSisrKSW4n37NkzjBgxggYR2Ww2LF26lLtNDh8+nJ4nMTHRpxZRy5Ytoy0iMjKSq1A7ceKEx9iW0tJSrnFcvnzZo36XvW+muvOZi/n8888pgA0PD0dQUBB3j25ra/MwjuTkZG628vjxY4waNQomk4msedKkSaLG4d66Sa/Xo1+/ftwpVZ988glsNhsRW2lpaVxYH27DD5nskbfl/fjjj5gwYQK9/PDwcK5O9eXLl1i8eDH0ej2Cg4MRFBTElX0ePnyY0vLg4GBUV1dzjWPjxo0eBsXKIIYNG0ZBNtcwrly5gqqqKvj5+dG2UlBQwCXqDhw44MHf+CKQZZmU+6gKX0aGNjc3w2AwQKPRQC6XixZPdXd3o6amBhqNhmKOyMhIn8Ap1gVIIpEgJCSEaxwnT56kd6BUKhEREeETt8JKXBUKBYKDg7kYzMWLF8kTKpVKjBgxgks8Hjx4kOgDjUaDoKAgKBSKXhUFAo/rYHu6TqeDQqFAXV0d9+IbNmzwUJDHxcX5tN+OGjWKmpwIgsCtJXn//j1qamrgdDqpEdvixYtF9SlsgB8rzejXrx9XSf/DDz94qO8TEhK4eMqRI0eoN4lEIvFJff/w4UMaZGi1WhEVFcUNYh8+fEhba0BAgE+C7C1btnh0RVSpVIiMjOwzyxFVTKWmppKaSafTYeHChaJ0/fPnzzFjxgyEh4eT/qN///5cFJZJC9k5rCBaTKf5448/eoz+9IUQmzt3LqXkTCLIC0gvXryI7OxsKBQKaLVa+Pn5ca/z9u1b5Ofn070lJydzvSebpmkymaDX62G327ltQ2/cuEFlFgEBAVwtLOssHRMTA7lcDolEApVKhSlTpnjdEbzebEFBATGEjCMQ8xxv3rzByJEjPVo3+dIBB4AwYsQIJCcnQ6VSQafT+bRqcnNz6QNYrVYsXbpUFDhbsmSJRzHTtGnTuKnsd999R6k5623G42OuXr1K3QolEgmSk5O53ubixYse5ZOhoaHcbeXOnTuoq6sjTOmTTz7hKvvmzJmDiIgIyopMJhOmTJniOxfDkDSGPrIALj8/X3SLePHiBcaPH08ui/UQ4xnHgwcP0NLSQjfMVFA8yL22tpZiFIvFwg1I2QwYtVoNPz8/DBgwgGu0169fJyJRo9Fwq/3evHmDuXPnol+/flQC4e/vzwXBtm3bhtzcXCoZqays5C6QXbt2IT4+Hmq1GrGxsVi7dq0oUdfd3Y3x48fT92Rj3Hbt2sWt/u+F27MJSEyMGxUVxS1/GDduHBFOLCPgCYVZ/1GGdprNZqSnp4umck+fPiXmkw2C5q20devWwWw2Q6fTQS6XIzw8nNvTZMuWLUhOTiYoPCgoiNtlwH0ig8FgQEZGBnf4IRsOxJ5n6tSpXEZ2yZIlhClZrVafBNmTJ0+GUqmE0WikMk0x2cLt27fJcLw2iLHZbEhJSeFiFlOmTCHwR6FQICcnh1uFtnv3bmorJZFIEBYWhnPnzuHRo0deK/o7OztRWVlJuEBsbCw3zWYtqlkMxXqdipU+zJ8/36MIKiYmhptJLViwgIJeg8GAtLQ0rhEeO3aMWmayiQxixvHhwwfMmzeP2G9fVHruHZXZdXJzc0W9Gpu7N3To0N4GwiLo0NBQ1NXViWIP79+/x6hRozyKjNLT07lBn3ulPNNa8PiYu3fv0rbCGGNeG8cvv/ySXKqfnx/i4+NFIeonT55g2rRp9DIdDgciIiK4W8SIESM89B/Dhg3j4ilHjx5FUFAQfezhw4dzC6cYT8SEWDyKv6enBxMmTPBohjxgwABRyP3WrVsYNmwY5HI5kpKSehsIK+3j1aycOnWKInv2EVJTU7nqrGvXriE5OZm8jc1m43qbFy9eUKCo1+sRGhrKVbaxEg5GcVutVq7OYvbs2RT0BgcHIzs7W/R5rl69ivT0dOodplQqkZGRwcWHPv30U0RGRhKqWlVVxTWoTz/9lIRB0dHR3LT8zp07NNPHZDIhLS2NO8Lt1q1biIqKgkqlgslkQlxcHD58+NBbR7l48WLRwOXcuXPUu9y9xydPxMyG47C9U6vVcrUM9+/fR3p6OqVjaWlp3DkrbPtiqzMiIoKLQq5du9ajfXZTU5NoRnT//n1UVFRAqVRCIpFALpf71D1p3LhxFMizANMXw2WSx6ysLG7flFOnTiExMREGgwEWiwVOp5NrHNevX6cBDEwolpub+7+D2lnE/fGs97a2Nu6quXnzJoE5rEfXxo0bRdOye/fuoaysjFYnb2IES+PYvFrmcXhB7OzZsyn9ZROdxHCbW7duobi4GCaTid6BL8KllStXktGGhYWhf//+3CB25cqVFMRGRUVxU+yDBw96zMMzGAzcGPLmzZtUPupwOKDRaKBSqSib9Nk43HEE9mLq6+u57vHbb79FRkYGvZysrCyut9m+fTuqq6spvsnJyeHC2mylsftLSUnBnj17vG6VL168QFNTEwXLDDASY2R/+OEHlJaW0vPL5XJUV1dzG9qysfOsE9DAgQNFjbCrqwuffPIJIbcDBgzg8ioXL14kLoY1+eex3+5zBM1mM0lGa2pqiLTkGsbbt2/h/vJ1Oh0iIiJQXl7OHQ2yYMEC0nIwiJonWlm+fDkRfAyF5BF869atI7o+KCgIMTExohjMo0ePMHjwYMqiIiIi8Omnn4rGXffv36fVzF5kSUkJl/1tamqCTqcjnogXc7DxKAyij4yM5NYkz507FwEBAXA6nVQbxPMc7gal0WgoOP84vuMayMiRIyGTyTzmztXW1opG3ZcvX0Z5eTkMBoPHDHue5nLWrFkICgqi62RnZ3PTxR07dlC5oVwuR1BQkKjrvnHjBkpLS+mZBEHgzsO7cOEC+vfvT4ZhMBiQl5cnCp+/ffsWHR0d5DmDg4PR3NwsKvl7+vQpoaOsn4mYFPHVq1eYMWOGR9Ncs9nMra/esWMHVUkqFAooFApERkb2qQjkllsy8ItlBaWlpaKr5syZM8jKyvJoGuvL2PXVq1dTpC6RSJCamso1jt27d1OBFhs1KtbP4+effyZImxnu0KFDuTNtmExSq9VCJpNhwIABotXyL168wKhRoyCRSGA0GqFQKLizfs+ePUuMrMViQUxMjKjn7OrqQltbm0e7K6fTyd1WvvzyS4SGhkIikVCBd3Fxsdf4hluUw8oTWVWdmOe4du0aZSqsZkOn03E9x9atW2mSpFQqRVBQEFcJtmvXLirQYm3ExXQW58+fJy/gTqKJxQLnz5+nEWbumhYxl//+/XusXLmS4ielUon29nZREfORI0cQGRlJHY0aGhq45RKstz7bjv39/blxytGjR2lBscXY0NAgmn15FZ+wQIztTbwVcOXKFcpU2OTF0NBQLs6xePFijxQzJSWFq7ncvn07BcwMRhfTg27cuBEJCQn00QwGA1JTU0XT+YcPH6K4uJhSeRb48ioFFy1aRCJmrVaLlpYWUZJz8+bNFAtIpVLk5eWJes4bN24QaMiIVLvdzpUi3r9/H/n5+ZDL5bTtDRw4sNc7OH36NJYvX07bdJ8yN7vdDrVaTXtufHy8aBp37Ngxj2mVBoMBISEhXLqaDQZwb7XJ+wBr1qyh+2J77+jRoyG2DbGiKYvFApvNhrKyMlHy8cCBA5QuMkY7OjpaVHt77do1lJeXQ6PR0NTv/v37czkf1ttNq9XCbDaL4jyrV69GcnIyNTWWSqUICwvjGsedO3cwevRoAjVtNhsqKys94qFTp05h6NChcDqd0Ov1feMgU6dOpQG7LFDMz88X1U8ePnwYaWlp0Ol08PPzg1arRV5eniiV/uzZMyxcuBAOh4NiFZlMJgofP378GOPGjaOPzYxq2LBhXmOiN2/eUIEWg6kHDhwoWgq5c+dOpKWlkfSAyQTFwLaVK1d6zNNlxij2DtzHuTIk2lvM8e7dOyxcuNBDoSeTyZCYmChKU3R3d2P58uWIj4+HUqmE0+lEREQEZs2a5aHr6ezsRFVVFX0LNjXMw0D27Nnjkd+zzntiK3rhwoUehcBsErUYoNXZ2YmxY8dSWsoUZ2JFWu/fv/do1q9SqaBQKDBlypQ+C4dev36Njo4OJCYmekx3TExMFN3yzp8/T6ks+9ihoaFeeZ+uri50dHR4kG5SqRQ5OTmixr5nzx5kZ2fTNcQQ1QsXLmDgwIHUNYiRjnl5eaJe8Msvv/RQ+Gu1WqxcubIXfcB0JXK5HBqNhsRUDofD00CY3pJBtLm5uR4UN8MI3r59i9OnT2P69OnkshwOBywWCwICArg4x6xZs+ByuTyyHDEo+MGDBxgzZgz0ej3UajXVlpaWllLgt23bNixevBiXLl3C2bNnMWvWLAKZQkNDoVarYbfbRT3hnj17UFxcTIZuNBphs9m89gF5/PgxRowYQZ2O2btgg6efPHmCO3fuoLu7G+/evcORI0fQ0dGBYcOGwWKx0CI0GAxe64O+++47j6mgCoUCJpMJra2tfW75V65cwdKlS1FdXY2EhASo1WrIZDLYbDYEBQX16p60fv16FBcXU3NdtmsolUq0tLR4Gkh9fb2HosndOO7fv4/GxkY0NDSgqKiI3Lw7H+NyubjgzNdff01Uul6vR//+/blpWWNjY69rBQYGekTspaWlJCRmZYnuMv7ExERRUfLKlSuprTUj3xwOh6g2pb6+3sPlS6VSBAYGemQ448aNg8ViQWxsrIeEgEkDtFotGhsb++wxX19fT81yWarMWl71lWKfOHGCgl33Q6vVYsyYMb3wlJMnT3rohiUSCbVDr6yspGvIhf/5l52dLfz666+CWq0WysrKhKqqKgn7b//6r/8q/PGPfxTevXsn/NM//ZMgCIJgtVoFrVYrWCwWQa/XCwUFBcLs2bPpnI//vXnzBv/xH/8hZGRkCKmpqYLL5RJGjhwpDBo0yOs5giAIGo1GyMrKEpRKpfAP//APgtFoFEaOHCk0NjbSeRUVFcKf//xn4Q9/+IPwl7/8RQgICBCCg4MFjUYj/PGPfxTGjBkjjBkzps/rHD16FF1dXYJSqRTi4uKEv/71r4LFYhESEhKEpUuX9nnOq1ev4HQ6hfT0dCE1NVX49ddfBZlMJgwfPlyYMGECndPe3i7813/9F923wWAQpFKp8Oc//1n4P//n/wiTJ08WGhoahJSUFI/rdHZ2QiqVCmlpaYJUKhVCQ0MFnU4naLVaoaGhQcjMzOx1X3K5XMjLyxPCw8MFQRCEv/71r0JUVJSgUqmEkpISobKy0uOcpqYmyX/+53+ip6dH+Lu/+zvht99+E9LT04Xk5GTB6XQKWVlZEkEQBAkAOunq1asICAgQ+vXr1+sGuru78f79e+HXX38VPnz4IISHhwuhoaGCSqUSYmNjhYSEBNEP/X/779WrV/iv//ov4Y9//KPw93//90JycrKQl5fX61q3bt3Cv/zLvwi//fabYDAYBIvFIthsNiExMZF7X8+ePYNUKhUkEonwpz/9STCbzUJ6errPz/PixQvodDohJibG6znv3r3DX/7yF+F3v/ud8Kc//UlISUkRsrOz/5+8s/+bf93d3fjYUAVBEP6/AQDVX5moJef2CwAAAABJRU5ErkJggg==#0#0#4294967295##KGlDb2RlLlFULlRhYlRpcG9zCkZsZWNoYQpwMQooZHAyClMnb3BhY2lkYWQnCnAzCkYxCnNTJ2Zv|cm1hJwpwNApTJzEnCnNTJ2NvbG9yaW50ZXJpb3IyJwpwNQpJLTEKc1MnYW5jaG9DYXNpbGxhJwpw|NgpJMzYKc1MnYTFoOCcKcDcKUydkMmQ2JwpwOApzUydhbmNobycKcDkKSTIKc1MnY29sb3InCnAx|MApMNDI3ODE5MDA4MEwKc1MndnVlbG8nCnAxMQpJNQpzUydwb3NpY2lvbicKcDEyCihpQ29kZS5R|VC5UYWJUaXBvcwpQb3NpY2lvbgpwMTMKKGRwMTQKUydhbHRvJwpwMTUKSTE2CnNTJ29yZGVuJwpw|MTYKSTgKc2c5CkkxMjgKc1MnYW5ndWxvJwpwMTcKSTAKc1MneScKSTE2CnNTJ3gnCkkwCnNic1Mn|ZGVzdGlubycKcDE4ClMnbScKc1MncmVkb25kZW9zJwpwMTkKSTAwCnNTJ2FsdG9jYWJlemEnCnAy|MApJMTUKc1MnbGlWYXJzJwpwMjEKKGxwMjIKKFMncG9zaWNpb24nClMnbycKdHAyMwphKFMnYTFo|OCcKUydjJwp0cDI0CmEoUydncm9zb3InClMnbicKdHAyNQphKFMnYWx0b2NhYmV6YScKUyduJwp0|cDI2CmEoUyd0aXBvJwpTJ24nCnRwMjcKYShTJ2Rlc3Rpbm8nClMndCcKdHAyOAphKFMnYW5jaG9D|YXNpbGxhJwpTJ24nCnRwMjkKYShTJ2NvbG9yJwpTJ24nCnRwMzAKYShTJ2NvbG9yaW50ZXJpb3In|ClMnbicKdHAzMQphKFMnY29sb3JpbnRlcmlvcjInClMnbicKdHAzMgphKFMnb3BhY2lkYWQnClMn|bicKdHAzMwphKFMncmVkb25kZW9zJwpTJ2wnCnRwMzQKYShTJ2Zvcm1hJwpTJ3QnCnRwMzUKYShT|J2FuY2hvJwpTJ24nCnRwMzYKYShTJ3Z1ZWxvJwpTJ24nCnRwMzcKYShTJ2Rlc2N1ZWxndWUnClMn|bicKdHAzOAphKFMncG5nJwpTJ2MnCnRwMzkKYXNTJ2NvbG9yaW50ZXJpb3InCnA0MApMNDI3OTg5|Mzk4NEwKc1MnZGVzY3VlbGd1ZScKcDQxCkk1CnNTJ3NpTW92aWJsZScKcDQyCkkwMQpzUydncm9z|b3InCnA0MwpJMQpzUydwbmcnCnA0NApTJ1x4ODlQTkdcclxuXHgxYVxuXHgwMFx4MDBceDAwXHJJ|SERSXHgwMFx4MDBceDAwIFx4MDBceDAwXHgwMCBceDA4XHgwNlx4MDBceDAwXHgwMHN6elx4ZjRc|eDAwXHgwMFx4MDBceDA0c0JJVFx4MDhceDA4XHgwOFx4MDh8XHgwOGRceDg4XHgwMFx4MDBceDAw|XHRwSFlzXHgwMFx4MDBceDBlXHhjNFx4MDBceDAwXHgwZVx4YzRceDAxXHg5NStceDBlXHgxYlx4|MDBceDAwXHgwMFx4YjFJREFUWFx4ODVceGVkXHhjZUFceDBlXHg4MjBceDE0XHg4NFx4ZTF5XHgw|ZlxuRGNceGEyXHhjNFx4ZDBceDk0XHg5ZVx4YzRceGIwXHhmMSxceDgwXHgxY1x4YzFceDgzeVx4|MTM4RldceGNhXHhjMkRJXHhkNFx4OTVceDg5Xlx4YTBceGVkXHhlMlx4ZmRceGJiWVx4Y2RceDA3|SFFceDk1XHhhNlx4ODdceGM0XHhlYVx4YTNceGNmS1x4ZmVceDFkSVVceGFlXHhkZVx4OGZceGU3|XHg4NVx4YWRceDE5fCJceGZlYmtceDA2XHhkZVx4ZWZmQVx4MDgiTlx4ODRceGE5XHhmYVx4OTBc|eDg4XHg5MyBceDA0XHgxMVx4MWZceGMyVD1ceDk3XHhkYlx4OTlceDhkXHhlZVx4MDIidFwnXHgw|OEFceGM0XHg4Ylx4YTh1XHgxYlx4MGVRXHhlYjYuXHgwNFx4OTFceDAzXHg5MFx4MDVDXHgwMFx4|OThceGE4XHhjOEdceGVmXHgwMFx4MTA5XHgxME1ceGI0WVx4ZGZceGMxXHhiY1x4MDBofFx4MTMy|Klx4ZjJceDExTFx4MGJceDgwXHgxN2VceGVhXHhlYVx4MWJceGYwXHhhZCFceGE1blx4YTRSXHgw|N1x4ZTBceDFjXG5ceDgxXHhkMFx4ZTdceGYxXHhmNVx4MDFceDgxSEJcdCFyXHg5YT1ceDAwXHgw|MFx4MDBceDAwSUVORFx4YWVCYFx4ODInCnA0NQpzUyd0aXBvJwpwNDYKSTEKc2Iu|#KGlDb2RlLlFULlRhYlRpcG9zCkZsZWNoYQpwMQooZHAyClMnb3BhY2lkYWQnCnAzCkYxCnNTJ2Zv|cm1hJwpwNApTJzEnCnNTJ2NvbG9yaW50ZXJpb3IyJwpwNQpJLTEKc1MnYW5jaG9DYXNpbGxhJwpw|NgpJMzYKc1MnYTFoOCcKcDcKUydkMmQ2JwpwOApzUydhbmNobycKcDkKSTIKc1MnY29sb3InCnAx|MApMNDI3ODE5MDA4MEwKc1MndnVlbG8nCnAxMQpJNQpzUydwb3NpY2lvbicKcDEyCihpQ29kZS5R|VC5UYWJUaXBvcwpQb3NpY2lvbgpwMTMKKGRwMTQKUydhbHRvJwpwMTUKSTE2CnNTJ29yZGVuJwpw|MTYKSTgKc2c5CkkxMjgKc1MnYW5ndWxvJwpwMTcKSTAKc1MneScKSTE2CnNTJ3gnCkkwCnNic1Mn|ZGVzdGlubycKcDE4ClMnbScKc1MncmVkb25kZW9zJwpwMTkKSTAwCnNTJ2FsdG9jYWJlemEnCnAy|MApJMTUKc1MnbGlWYXJzJwpwMjEKKGxwMjIKKFMncG9zaWNpb24nClMnbycKdHAyMwphKFMnYTFo|OCcKUydjJwp0cDI0CmEoUydncm9zb3InClMnbicKdHAyNQphKFMnYWx0b2NhYmV6YScKUyduJwp0|cDI2CmEoUyd0aXBvJwpTJ24nCnRwMjcKYShTJ2Rlc3Rpbm8nClMndCcKdHAyOAphKFMnYW5jaG9D|YXNpbGxhJwpTJ24nCnRwMjkKYShTJ2NvbG9yJwpTJ24nCnRwMzAKYShTJ2NvbG9yaW50ZXJpb3In|ClMnbicKdHAzMQphKFMnY29sb3JpbnRlcmlvcjInClMnbicKdHAzMgphKFMnb3BhY2lkYWQnClMn|bicKdHAzMwphKFMncmVkb25kZW9zJwpTJ2wnCnRwMzQKYShTJ2Zvcm1hJwpTJ3QnCnRwMzUKYShT|J2FuY2hvJwpTJ24nCnRwMzYKYShTJ3Z1ZWxvJwpTJ24nCnRwMzcKYShTJ2Rlc2N1ZWxndWUnClMn|bicKdHAzOAphKFMncG5nJwpTJ2MnCnRwMzkKYXNTJ2NvbG9yaW50ZXJpb3InCnA0MApMNDI5Mjg3|Njc5OUwKc1MnZGVzY3VlbGd1ZScKcDQxCkk1CnNTJ3NpTW92aWJsZScKcDQyCkkwMQpzUydncm9z|b3InCnA0MwpJMQpzUydwbmcnCnA0NApTJ1x4ODlQTkdcclxuXHgxYVxuXHgwMFx4MDBceDAwXHJJ|SERSXHgwMFx4MDBceDAwIFx4MDBceDAwXHgwMCBceDA4XHgwNlx4MDBceDAwXHgwMHN6elx4ZjRc|eDAwXHgwMFx4MDBceDA0c0JJVFx4MDhceDA4XHgwOFx4MDh8XHgwOGRceDg4XHgwMFx4MDBceDAw|XHRwSFlzXHgwMFx4MDBceDBlXHhjNFx4MDBceDAwXHgwZVx4YzRceDAxXHg5NStceDBlXHgxYlx4|MDBceDAwXHgwMFx4YjJJREFUWFx4ODVceGVkXHhjZUFceDBlXHg4MjBceDE0XHg4NFx4ZTF5XHgw|ZlpceDg4XHhjNkRceDg5XHhhMSk9XHg4OWFceGUzWVx4MDA5XHg4Mlx4MDdceGYzJnBceDBjVlx4|Y2FceGMyRE1ceGQ0XHg4NTFceGQxXHgwYlx4YjRdXHhiY1x4N2Y3XHhhYlx4ZjlceDAwKVx4YTZS|XHhhNDtceDkzXHhiOFx4YmRceGNmT1x4ZmVceDFkRVIuXHhlZVx4YWZceGRiXHhjOVx4YjJceGVi|fSJceGZlXHhiMlx4ZWNceGZhXHJvZ0FceDA4IkpEXHhjOVx4YjZceDBiXHg4OThceDA4Qlx4MTBc|eGQxIUpceGI2XHhkZFx4OWFceDhiXHhkOVx4YjBtXHg4MyFceDBjXHhkYlZceDEwXHg4Mlx4ODhc|eDE4UTVceDAxXHgxMVVceDEzXHgxNVx4ODJAXHgxM1x4MDBceDFkXHgwY1x4MDFgXHhjYyhceDFm|XHhiY1x4MDNceDA4NFx4MTFoXFxceGQyXHhlYVx4Y2FceGUwXHgwN1x4ODBceGRhXHhiN0FnXHg5|NFx4MGZceGY0OVx4N2YqXHhkMmdceGRmXHg4MG9ceGI1InVJSU1ceDAwXHg4ZVx4YTFceDEwXHgw|OH1ceDFlX29ceDg1XHhhYkJcdFx4MWFceDkxXHhhYShceDAwXHgwMFx4MDBceDAwSUVORFx4YWVC|YFx4ODInCnA0NQpzUyd0aXBvJwpwNDYKSTEKc2Iu|#iVBORw0KGgoAAAANSUhEUgAAAEAAAABACAIAAAAlC+aJAAAAA3NCSVQICAjb4U/gAAAACXBIWXMAAA7EAAAOxAGVKw4bAAAQqUlEQVRogdVaS5NcRXbOvI+871vP7taDphEETMsYYykcgcJhINjAAoccioCNF97PP/CfmB8AEQ4ITDBmA2Y2KCxNYF72IEaACIQkjwYkdbe6u6qrum7d9zO9+Fo1XfdmCU144SAX3V3V52bmyTznO98559LXP7zk55T8PIejcsXP6X72c1WAECL9f2/g/zp+9goohz8Mv//dI32nJuEH/u7ubpZmTNPCMHRdR5blI0eOMlWtSe7s7uzv7xu64XmeYZqqomi6duzosZoY5/zmH28qihIGoaZpWZ63Wi3TMLrdbk0yiqPNzc2yLBljvu932p2qqgq9dezpZ8UKPNJ3/vmX/1Sb5cqVK5cuXep0Op7naZrGGJMk6dlnn11ZWalJvv/++2EYUko550VRtFotQsi5c+dqYkmSvP3225Ikua47mUwcx1FV9fjx488880xN8tq1a59//nmr1ZpOp7quS5JkGMaFS1cPyyjkp4aiKJ1OpyzLTqcjSVJZlpIkcc6bkrZtZ1mmqmpZlpZlcc4lSWCikiQxxlzXzfO81+txzjFnU1KW5Xa7XRRFr9cry1KW5aIoqDQHOQeP/eHLj8tKsCcoQCmVJElRlKqqFEWJ47iqqqakqqrQTVVVVVWLokjTVDinZVlpmkqSJMsyHoyiSDghZuOcK4rCOa+qKs9zgQLM0KpSsCdCSFVVSZJADUVR0jRVVbU2C0aWZTgnTdOCIGCMFUXRFOOcJ0lSVZVlWUVRKIoShiE0qY2iKIqi4JwzxnBRhJDaPg8UWPvLM6oqmIIQUpal4zhpmsqynGUZ7lTX9aakoiiSJFFK0zR1XReG1BSTZZlzbhhGFEW6rpdlCW8RqqrrelVV2L3rulVVabomUOA+w7bt/f19XdeHwyEhxPM8VVWDIGhKUkplWfZ9vyzL8XjMGJtMJk0xWGMURRCjlMZxnGWZcOnpdKqq6mg0IoRMJhPA0dyiv/rNl7NIXP3wxd//3SlYfBiG7XYbi1FKsyyTJAk3TggpyzJJEsbYdDo1DENRFNM0cVSwVEoppRSXnqZpVVWSJGVZ1u/3JUnyPG9paWkwGLiumySJqqqEEOyVcx5FUbvdppQyxgghWZbh8hljVVX9629+a/zF89hwh/E5FJp63vXr113XjeNYUZS9vT1FUU6fPr22tlY7m08++WR7e5sQgsvF7s+ePas2gsO7776bJEmn0xmPx6Zpjsfjbrf73HPPEUIeffTRmdhgMLh8+bLjOFEUMcZ2d3dN0zx58uTjjz9em/DD/7oSHvp4oEBVlZRKhBLbtvM8t20bmyOE1K4MAz6AA8PfuJOmApIktdvtNE1brRaltCiKJEmaE3LObdtO07TdbmdZpihKnudCaKrPj18bV39flBXAUZIk4L0sy2maCv2Vc46ApSgKxBAvm5KqqiZJAlMsyxJYLNxKURQALmAxIPtBFVh65BeqIjPGYNmEEE3TgJjCG8DuJUnSdT2KIsMwkiQROiI8AYgJvBdiK9SjlKqqOvs7DMOmpFgB02kTQrI0g1dRSpMkabVasG/hthA7fd93HOc+UFgUhWma0+lU0zSg8CLINwwDqJ+mqW3bVVUJlxYrgOG4zmAw0DRtOBxyzsfjsSRJ9zHEIAjKspxhnJAOAKkopYPBgFLq+74wCDqOMxqNGGODwYAQMhqNVFV9kBuYh9E//u6X//gPRVEAtgCgo9Ho7t27jLE8z4uicBxH1/WlpSVYP9ANVrG5uRmGIbiGJEmtVktRlF6v1+12B4NBt9udTCa2bSdJcv36dVVVwQvAizRNW1pamqEt/uv7/p07d0Cu8jx3HEfTtH//6JK2fsBG6zDqOM5DDz1UU9HzvCiKQDPLsoR1PvHEE71eryZ58+bN4XDYbrcnk4lpmtjcmTNnCCEQBoHNsuyzzz5zHCfPc0mS4jhOkmRtbW11dbU24Y0bN3AJ0AqQXZTF4VB8cOlZElULyJymaWCLsizruq4oSpZlcRwLhQHktm3DEReZn2EYwDdZlhljZVkKQ7umaTAHQsgM2X1/TvJAgR+/+SzPBKZJCMEUnHNZlkEBCCGUCtJoWZaTJJFlGVSUUio096qqqqqCkSBgZ1kmnDDLMk3T8jzXNI1znud5nueKMocBBwosr/1CVsWgi/WQTOB0wYSFqgIxq6qSZTnPcyGQw3MOs278FK4OHcB/NU0DWxEo0Dm6pshiYmcYBljaeDwGnINrNCVVVXUcZ39/H/bjuq4wH6CUgnqUZZmmqWEYZMGVwmI5557n6bp+EK2TuTl/OtQlSVIURRRFiqJsb2+7rhuGofAG8jwfj8eapm1vb+O6hOcKZOt2u7u7u47jBEEA4aZkmqYggsBf13WjKKplZHMwGl796NSJFdAhcHpN09bX1zudDkxiduNfffXV7u6uJEkgNpA8deqUZVmI5fDRoig++uijMAwty/J9X1GUfr9vWdb6+rqu68gxQGDDMLx48SIuDbHPsqwTJ04sLy8jkwQ7Yoz96l9+nR8/hQ3XYTTLMl3XgW4wODD1ZpTVdR2hGl6R53mSJKZpGoYBk5ilMnmeY6+wgSAIKKWdTocQAsnZPQOa4NySJPm+P6sMHB5MZYeR4cASvOHdquKUSmDwABxZlvGxObIss20buyeEQGwRNCHYAYhx3k0xSZLyPJ8layCLi1afexC//NGAE64oMr03wCIJIUJHNE0THBNhUpblIAjuk+nDjhVFSZJkkWfDPhH+y7IsikKIwmIF2isPSVSKoxgsDaYM2xCS5CiKOOeWZc0YMuooTUl4PGMMiA5Ma4plWYa14DlIhf8MOm13+pQSt+UibA0GA+jgOI4QMXVdN01zf3+f3OOb4LBNScdxcJZxHMOvhPtwHIfcAyiQc8dxhKmPWAGMJE6KogDH3N7eTtN0f39fuGSWZZPJhFI6HA7jOB6NRnmeC012xjHzPN/Z2VnEGoCYcRwXRbG9vQ1EXqTt4TEHo9bgarO0+M0331y+fBlUIgiCfr+vadoLL7wAJDk8Pvjgg7t373Y6neFwaJqm4ziWZb388stN5V9//fVZmOOcr6ysrK6unj59uiZ57dq1Tz/9VJZlWZan0ykg9YvrGwuTeuFwXZcx1m63p9Pp6uoqGE4URU0FbNs+cuRIlmXHjh0jhEiStKgyd+TIkaqqUG5CHrOorGKaZqvV8jxvbW0NRNj3feOQzIEJTXY3RR5ICCGe57muGwQBEBNgJ5QENVBVVZZl+IPQBiCGtPv+iImlp9MpckOI1Va/x0avfC48A0II/BhZOcJwEARCKoFQha2DwS8CVkwFkKmqCplkUxIHh7oiIQSElBMRmXvqhXNCuCSEQDEgJmgtAKopGUWRpmmUUhQMLcsSHgqyIkVRgJVQW6gqarKMMbgB/k7TuTkPFFBUJsJAQghBhWw6nZZlGccxeM5hFjAbSNuLogDtybJMKDbLFsBbgyAAhjaHLMtI2eI4hukWRWHMl3nmnLjiPAgCMAhwemyLUgoKjd2jZIkqL7lX/0LErYl5npemKdZGWEUtzDAMx3Emk0lZlrqu46JQo87zHDWbGZ0B7wIlsSyrFpfmFLh169Zbb72FlCoIgk6nA47Z7LJcuHDhwoULrVZrPB4bhmGapqIoZ8+ebR75a6+9hugOW19ZWbFt+9VXX62JbW1tvfHGG4wxVVWn02mv11MU5emnn24u/d3GWFBaxGi5ruM4OMVOp4NKoDC+ttvto0eP5nl+/PhxCCzqshw7dgy+EccxEFPTtKaYbdutVgvJxgwxm2LNcbDkzg/XOCdBGKCwhXQbbESYaqALBsRETyDPc6HLIovI89yyLNBEYSQOgqDVaoVhaNs2KpaEkD+DSsTT/Ypz1JLQEUFRO4oiYZMCO0N1EegGZtoUQ/kf8FUURVVVQrjTNM3zPLRIAEpITh5UgRN//beyRBGATNOcPWxZlud5zccAprPWFWKqkP2CioLo67qO/o1QTzhAWZYIFLquT6fTB1UAA8gThmFZlqDBixATjS20KtANWVTHBL31PI9S6nmeaZqLjBunDp6CWxUuXd/J4Q+6brTbbdM0kcJzzkG57ty5g6qG7/vI8Rhjq6uraNugyBNFked5e3t7mqZNp1Ns1DCMXq+HvhBjzLIsgOPGxgZMC7aKBkK327VtG6G3qirQh1u3bsHqfN8HcJdVuVCBTrv94osv1lT8+uuvz58/PysYokB05syZp556qib53nvv+b4PLErTtN/vF0Xxyiuv1MSSJHnzzTehz2QyQSPr4Ycffumll2qSV69evXjxIrSCSbuuu7GxsXTkr8QKCIemab1eL8uy5eVlYCWIQFOy1WrBeZIkcV13kRfKsgyOmSTJysoKwpyQIGqa1m638zxfWlpChSuOY02bm/PAB25/9+V9Gt1VVQFGZgmrEODgr1mWwX5QWWiKVVWFCs+sk4JqxaKlUSjBT0VRwlBUG5UUhSzg06iqw9DhW4BzoWQcx4ghyDCFoY0QAkubta9RtmiKpWnKOQeDwLozDltXYHX9lLygtAhfRK0GnZjmLBjo0aNmCJAVbguxD9ENDMq2bWENDx4P7g18J4TUDuWnG92GYaCDu7e3ByjUdV1445g6DMOiKNAbFwI5mohZlmVZNp1O8eaBMKFBAw6Lot/BGKu1beZyYnr7y7PP/Q0WCIKg2+0iMiBIofaEcj6aBoqi+L6PSgmqnKCxeAoBFS0ZJDpodBNCdnZ2+v3+cDicNbpRMsK0qPmhfI2GPqgKlv71hx9bT76ADddz4tFo/O233848bHNz0zTNJ5988uTJk7Wz+fjjj7e2tmY8Aphz7ty5Jpt455138jwHb3UcZ2trq9/vP//884SQ9fX1mdjOzs758+dN00RSClt97LHHTp06VZvwt7+/tpCNUkrwGg/AC/VUIUXD60fooKDmjkJvUwFFUfByDe6TLCj1UUpRR2u320mSWJaFs29K1saBD2ze+IYQMguryJ1nrQ3hk7OmA0wlTVOhy6J0rqoqsGtR9ohsC81p1PBABR5UAaZbnJNZAoBaLFYSVubAyUC/0M9cVBoB/CEHgCkLOR/2ivtEIRUl/gdVYHntcUpJUZSGYcAR8cYE51zI0jjnQExU1Qkhtm0vYmmMMbw9Ap8Wsm7kkLNupGEYsiw/CJmbMw/XccbjMd5T4ZzPku7mY7MmZJZleOdHyLqxe1jzaDRCI0N4UeiAINMvy3IymQDiflKBOSe+PfLH43FR3sJJMJVVvGp/9+N/fPFd7bHtne0gCCRJzrOMMZYXOaV00/+3pht8f+37TqczHAw73Y7neYhZ32/VX4QKwmBnZ0eiUsWrIi9UppZF2Wq3/vPr/6lJ3t7z+8t/+jgXB2YDFlkzib27t3tHH659yauKUKlmO5PtH+3lE/PtUNLEA875cOOH5Ycf+8mlR1t3usdWZ1/GvlcWOSf8oX5bjDB7G3+4c+3b2pfB/t72DzdqX9769r/rrsb5D199mudz1KBM/Gtfft5Yh0fefu2r4e0bt7+/Uvsy9vfv3vzT66Jlkdudvt3uR/5EfANlnlWcq2yufJCniaxq0nyTME8TRdNrz6dRwAyrdop5mqjzTJhznsWRZs7l3P5opyiqzsrc+75pFFBJZvqBT/v7Q7vdL7LUlTPFUUVYywAU8/860Kf5ZWMGZj2opGbWvuwcXRE9Ozdhq9+O/D2TaUst+38Bu//DEhdtqu0AAAAASUVORK5CYII=#0#'
p20
sa.