(lp1
(dp2
S'NOMBRE'
p3
VWine
p4
sS'BASE'
p5
VFantasy#Arial#N#60#60#2#100#120
p6
sS'TEXTO'
p7
S'4294967295#4293056974#4289235330#KGlDb2RlLlFULlRhYlRpcG9zCkZsZWNoYQpwMQooZHAyClMnb3BhY2lkYWQnCnAzCkYwLjgwMDAw|MDAwMDAwMDAwMDA0CnNTJ2Zvcm1hJwpwNApTJzMnCnNTJ2NvbG9yaW50ZXJpb3IyJwpwNQpJLTEK|c1MnYW5jaG9DYXNpbGxhJwpwNgpJMzYKc1MndGlwbycKcDcKSTEKc1MnYW5jaG8nCnA4Ckk0CnNT|J2NvbG9yJwpwOQpMNDI5MjMzMDY5OEwKc1MnZGVzY3VlbGd1ZScKcDEwCkk2CnNTJ2ExaDgnCnAx|MQpTJ2QyZDYnCnAxMgpzUyd2dWVsbycKcDEzCkk1CnNTJ3Bvc2ljaW9uJwpwMTQKKGlDb2RlLlFU|LlRhYlRpcG9zClBvc2ljaW9uCnAxNQooZHAxNgpTJ2FsdG8nCnAxNwpJMTYKc1Mnb3JkZW4nCnAx|OApJOQpzZzgKSTEyOApzUydhbmd1bG8nCnAxOQpJMApzUyd5JwpJMTYKc1MneCcKSTAKc2JzUydk|ZXN0aW5vJwpwMjAKUydtJwpzUydyZWRvbmRlb3MnCnAyMQpJMDEKc1MnYWx0b2NhYmV6YScKcDIy|CkkyMApzUydjb2xvcmludGVyaW9yJwpwMjMKTDQyOTIzMzA2OThMCnNTJ2xpVmFycycKcDI0Cihs|cDI1CihTJ3Bvc2ljaW9uJwpTJ28nCnRwMjYKYShTJ2ExaDgnClMnYycKdHAyNwphKFMnZ3Jvc29y|JwpTJ24nCnRwMjgKYShTJ2FsdG9jYWJlemEnClMnbicKdHAyOQphKFMndGlwbycKUyduJwp0cDMw|CmEoUydkZXN0aW5vJwpTJ3QnCnRwMzEKYShTJ2FuY2hvQ2FzaWxsYScKUyduJwp0cDMyCmEoUydj|b2xvcicKUyduJwp0cDMzCmEoUydjb2xvcmludGVyaW9yJwpTJ24nCnRwMzQKYShTJ2NvbG9yaW50|ZXJpb3IyJwpTJ24nCnRwMzUKYShTJ29wYWNpZGFkJwpTJ24nCnRwMzYKYShTJ3JlZG9uZGVvcycK|UydsJwp0cDM3CmEoUydmb3JtYScKUyd0Jwp0cDM4CmEoUydhbmNobycKUyduJwp0cDM5CmEoUyd2|dWVsbycKUyduJwp0cDQwCmEoUydkZXNjdWVsZ3VlJwpTJ24nCnRwNDEKYShTJ3BuZycKUydjJwp0|cDQyCmFzUydzaU1vdmlibGUnCnA0MwpJMDEKc1MnZ3Jvc29yJwpwNDQKSTEKc1MncG5nJwpwNDUK|UydceDg5UE5HXHJcblx4MWFcblx4MDBceDAwXHgwMFxySUhEUlx4MDBceDAwXHgwMCBceDAwXHgw|MFx4MDAgXHgwOFx4MDZceDAwXHgwMFx4MDBzenpceGY0XHgwMFx4MDBceDAwXHgwNHNCSVRceDA4|XHgwOFx4MDhceDA4fFx4MDhkXHg4OFx4MDBceDAwXHgwMFx0cEhZc1x4MDBceDAwXHgwZVx4YzRc|eDAwXHgwMFx4MGVceGM0XHgwMVx4OTUrXHgwZVx4MWJceDAwXHgwMFx4MDFceGYzSURBVFhceDg1|XHhlZFx4ZDc9a1x4MTRBXHgxOFx4MDdceGYwXHhmZlx4OGNceGI5XHhkNFx4ODJceGE1XHg5Zlx4|ZTAuXHgxY1x4MTJceDgyXHhlZVx4ODVkL1x4YjExXHgwMTFceGE0XG5aWFxcXHhiYVx4OTRpU1x4|YTZceDExXHgxNFx4MGJceGQzKSZceDgyZVx4OGFceDgwXHhjNkZceDFiXHhjM1x4Y2VceGVjXHhk|ZVx4ZGVceGVjXHg5MVx4MTBceGY1Zlx4OTZceGUwXHgwN1x4MTBceGFiM1x4YmVhXHhlZW5ceDFl|XHgwYkFceGU1Ilx4MThceGM0XHg5Ylx4YjFceGYwXHhkZlx4Y2RceGYwXHgwY1x4Y2ZceDhmKVx4|ZTZceDA1XHhmOFx4OWZceGJlXHgxMFx4MTFzXHhkOVx4OGZceGZmPHhceDlkXHhiZVx4MTgzMlx4|YmRceGUzXHJceGQwXHhlOX5ceGFjMXZqXHhkMVx4ODhceGM2XHg4ZStceGMwXHhiMVx4ZWRceGZl|XHhkNlx4OWNceDhkXHg4MVNSXHg5Y1x4MDhmXHgwNlxyXHhlMFx4ZmRceDEzXHhjNTBceDk4XHgw|Nlx4YTdceDg0XHhjMFx4YzZceGI1XHhjOFx4MWU5XHgwN1x4MDBAcSJceDk4QVx4OGZ2XHgwMExr|XHhhOTZceDlkXHgwM1x4MDBceGEwVFxyXHhlNlx4YzBceGU4KWN0XHhjOVx4ODhceGVjXHhhMXNc|eDAwXHgwMFx4OTQmLyxceDkwXHhjNTYxO2dceDg0XHhiYVx4ZTdceDFjXHgwMFx4MDBceGE1MFx4|YjhceGNlXHg4OG1ceDEyaCFceDE3am1ceDEwXHg4OFx4MTMlXHgxN2pNR1x4YWFceGFkRVx4ZTNc|eGE2N1x4ODRceDk2XHhmNVtaNlx4ZGFGXHhhYVVvXHgwOCNceGQ1XHhhYVx4MTFceGFhbWRceGJh|XHhlMlx4MTFceDkxXHhhZWhceGExXHhkZWlceDk5LXtDaFx4OTkta1x4YTFceDBlW1F9XHhjOVx4|MWJceGEyXHgxNVx4ZDVceDk3clx4YTFceDBlTVx4YWNqXHhkZVx4MTAmVlx4YjU8Vlx4ZWZ1XHhh|NFx4YWV6Q1x4ZTgoXHhiZGZceGE0XHhmYVx4OTBceGM3XHhjZHlvXHg4ODxuXHhjZVx4ZWJIfVx4|Y2FceGEzZFx4ZDZceDFmIkpmXHhiNVBceDlmXHgwZlx4OTJceGRkXHhhOVx4OTNceGFlXHhmOVx4|ZWJceGNmXHhhZlx4ODNkd1x4YWFceGQ3XHhlYjxceGIzZFx4YWIjXHhkNVx4ZjFceDg2c1x4MDBc|eDAwXHhiNFx4YTJ6XHhjMFx4MTlceDE3XVx4ZDBceGY5clhceGQ5d1x4MGVceDAwXHg4MFx4OTci|PTdceGM0eVx4OTNceDFkdVx4Y2FceGI2MFx4YjRceGNlXHgwOFtceGM1MFx4YjhceGRkX1x4Zjdc|eGRiXHhkYlx4ZjBPU1x4MGUrXHhmYlx4ZWNceGE4U1x4YTZCXHhlMVx4MTU4XHhiZlx4MGJceGUw|XHhjNlx4YWZceGVhXHgwNlx4MDZceDAwXHgwMFtceDE4XlwnXHhjZVx4MTZhXHhlOVx4MDFceDgw|XHhiNy1ceDk5bThceDA1MFx4YjJbXHhhY0dceGY3XHhiOVx4YjVvXHgwOFx4ZWMsXCc6dmI6XHhm|OVx4ODRoXHg5OW1ceDAwXHhiNlx4YzZceGMwYGFceDlmXHg4Y0xWXHhhZThceDA1XHhmY1x4ODA0|XHgxZVx4ODNwXHhmOUt3XHhmOFx4Y2NceGU4XHhjNVx4ZDFceGI2XHhjYlx4ZGVceGRmXHhiM1x4|Zjd8XHhlZlx4YjRceDk3XHhjNlx4ZmZsXHhiZVx4MDJceGM2XHgwNlx4ZGVceGQ4XHg4YiRceDgy|XHhiMFx4MDBceDAwXHgwMFx4MDBJRU5EXHhhZUJgXHg4MicKcDQ2CnNiLg==|#4286212691#4283851879#False#KGlDb2RlLlFULlRhYlRpcG9zCkZsZWNoYQpwMQooZHAyClMnb3BhY2lkYWQnCnAzCkYwLjgwMDAw|MDAwMDAwMDAwMDA0CnNTJ2Zvcm1hJwpwNApTJ2EnCnNTJ2NvbG9yaW50ZXJpb3IyJwpwNQpJLTEK|c1MnYW5jaG9DYXNpbGxhJwpwNgpJMzYKc1MndGlwbycKcDcKSTIKc1MnYW5jaG8nCnA4Ckk0CnNT|J2NvbG9yJwpwOQpMNDI4NDEwOTY1M0wKc1MnYTFoOCcKcDEwClMnZDJkNicKcDExCnNTJ3Z1ZWxv|JwpwMTIKSTUKc1MncG9zaWNpb24nCnAxMwooaUNvZGUuUVQuVGFiVGlwb3MKUG9zaWNpb24KcDE0|CihkcDE1ClMnYWx0bycKcDE2CkkxNgpzUydvcmRlbicKcDE3Ckk5CnNnOApJMTI4CnNTJ2FuZ3Vs|bycKcDE4CkkwCnNTJ3knCkkxNgpzUyd4JwpJMApzYnNTJ2Rlc3Rpbm8nCnAxOQpTJ20nCnNTJ3Jl|ZG9uZGVvcycKcDIwCkkwMQpzUydhbHRvY2FiZXphJwpwMjEKSTIwCnNTJ2xpVmFycycKcDIyCihs|cDIzCihTJ3Bvc2ljaW9uJwpTJ28nCnRwMjQKYShTJ2ExaDgnClMnYycKdHAyNQphKFMnZ3Jvc29y|JwpTJ24nCnRwMjYKYShTJ2FsdG9jYWJlemEnClMnbicKdHAyNwphKFMndGlwbycKUyduJwp0cDI4|CmEoUydkZXN0aW5vJwpTJ3QnCnRwMjkKYShTJ2FuY2hvQ2FzaWxsYScKUyduJwp0cDMwCmEoUydj|b2xvcicKUyduJwp0cDMxCmEoUydjb2xvcmludGVyaW9yJwpTJ24nCnRwMzIKYShTJ2NvbG9yaW50|ZXJpb3IyJwpTJ24nCnRwMzMKYShTJ29wYWNpZGFkJwpTJ24nCnRwMzQKYShTJ3JlZG9uZGVvcycK|UydsJwp0cDM1CmEoUydmb3JtYScKUyd0Jwp0cDM2CmEoUydhbmNobycKUyduJwp0cDM3CmEoUyd2|dWVsbycKUyduJwp0cDM4CmEoUydkZXNjdWVsZ3VlJwpTJ24nCnRwMzkKYShTJ3BuZycKUydjJwp0|cDQwCmFzUydjb2xvcmludGVyaW9yJwpwNDEKTDQyOTIzMzEyMTBMCnNTJ2Rlc2N1ZWxndWUnCnA0|MgpJNgpzUydzaU1vdmlibGUnCnA0MwpJMDEKc1MnZ3Jvc29yJwpwNDQKSTMKc1MncG5nJwpwNDUK|UydceDg5UE5HXHJcblx4MWFcblx4MDBceDAwXHgwMFxySUhEUlx4MDBceDAwXHgwMCBceDAwXHgw|MFx4MDAgXHgwOFx4MDZceDAwXHgwMFx4MDBzenpceGY0XHgwMFx4MDBceDAwXHgwNHNCSVRceDA4|XHgwOFx4MDhceDA4fFx4MDhkXHg4OFx4MDBceDAwXHgwMFx0cEhZc1x4MDBceDAwXHgwZVx4YzRc|eDAwXHgwMFx4MGVceGM0XHgwMVx4OTUrXHgwZVx4MWJceDAwXHgwMFx4MDJceDEwSURBVFhceDg1|XHhlNVx4ZDY/a1x4ZGJAXHgxOFx4MDZceGYwXHhlNz01NFx4OTBceDE2XHgxYVx4ZGFmMSRLXHgw|Y1x4YzZceDg5XHg4N2RceGYyXHhkYy9Qalx4YjBceDk3anFcdE5ceDg3di5ceDE0XHg4Y3pDXHhi|Ni5ceDFlXHgwYlx4YTZceGM5XHhkNEUlQ0JceGEwXHhhYlx4YjZceGNjMVx4YjhceDA2XHg3Zlx4|MDJceGY3XHhiMFx4MGNtXHg4M1x4ODkjXHhmYlx4ZWRQXHhjOVx4OTZceGUzOFx4MGVceGQ2XHg5|Zlx4MGN5XHhhNlx4ZDNceGExXHhlM1x4ZmRceGExXHhkM1x4YmRceDEycFx4ZGZDXHhkZVx4YzAw|XHgwY1x4ZDFceGFjXHhkNVx4OGJEXHhlMFx4ZjVceGNkXHhmNFx4ODFceDk0clx4MTBceDA3QFx4|ZjNceDA2XHg4OVx4YTcrb0BceGE4XHgwMnhpXHhiN1QiV1x4YzhceDlmWFx4OTZceGM1UVx4MDNc|eDg0NyBceGMyXHhhOFx4MThhXHhhN1lceGFiXHg3ZjFceDBjQ1xcXHhiYipcblx4YzBceGZhZlx4|ZmFceDAwXHg4Y2pceGRjXHg4OFx4ZTFceDE2WFx4OTZceGM1XHhiOUJceGZlXHhjNG5ceGE5XHgw|NFx4MDhceGRiLmI7XHhlYVx4ZWRceGQwXHhmY1x4MTd3XHg4MVx4ZDBceGFlTlx4YzRceDhkXHg5|OFx4MDBceGM0XHg4ZFx4YjhceDE2XHgxMFwnYipceGUwRlx4YzQvXHhmNVx4YTRceGY2XHhiM1x4|ZmUjXHgwY1x4YzBceGNjIyZceGE1XHgxYyQzXHhlOV1ceGZmXHgxMWVceGU2Ylx4MThceGM1b1x4|MDVceDE4Q1x4MDBceDE1Zlx4ZmVcclx4YTJceGNmYVx4MDFceGVlPDRceGZiXHg5Nlx4ZTl5XHhm|ZFx4YWFceDkwZVx4YzF7YD5NZjZceGNhXHhmM3xceGMwXHgwMlx4YjVZXHgxNlx4YmNceDA3XHhl|MFx4MDVceDg4PjZrXHhmNVx4ZWE8bTtYXHg5Zmc+XHgxZFx4OGVcdFx4YzV5XHgxMFx4ODFceDAw|XHhjOVx4Y2NGXHgxOVx4OGNceGZkIFx4ODhceDFiXHhmYlx4YzBceGFjXHhiOH1ceGUyXHhkOG5c|eGE5VVx4MTBceGI2XFxceGM0XHg5Nlx4ZGRSXHhhYlx4YjlCXHhmZVx4Zjg2XHhjZCpceDEwIFx4|MGNEXHhhMFNceGUwXHg4Zlx4ZmJLV1x4MDVhXHhkNFx4YTRceDE4XHhmYlx4OGZceDllLVx4ZWZc|eDllXHhiN1x4ZGJceGQ5XHg5ZVx4MTBcclx4ZDM0VWRceDgwXHhhOVx4ODhceDAxXHgxYVx4MTBI|XHg4MVx4YTEuNVx4YTRMXHhkM1x4YjRceGZka0JceGZkXHhkYnE7XHhlNlx4Y2VceGQ4XHg4Yilc|eDkwXHgwMlx4MDBceDEwXHg5ZS9ceGY0XHhmOVx4ZmRceGQ1NVx4YTE+XHgwMS9ceGE1UmlceGUx|XHhhZlx4ZWFceDljXHJceDhie2FceGVlLDpceGJkXHhiNVx4YWZHR1x4N2ZGXHhiZVx4MDhyXHhk|ZW5nXCdceDhhXHgwM1x4MDBceGQxclx4ZjdceGMxXHhjM1x4YjdceGZlXHhhOUhceDAwPSFceDFh|YExceGJjcFx4ZmZceDExXFxceGQ2dX0pUlx4ODBpXHg5YVx4ZWFSQ1xuXHhjY1x4OWZceGMwXHhk|Y1x4MTlceGFiXHgwZnpceGRjXHhlZl5UIlx4MDVceGI4XHgwOFx4ZmJceGRiXHhlMXdceGI5XHhl|OFx4ZjRceGQ2XHhjMFx4ZmNceDgxXHhjMVx4YzN9XCdceDg2M1x4MDJceGM1XHgxNF1ceGQ3XHg5|N1x4ZmFceGRkXHg4YlxuMVx4OWNkJlx4ZmROSlx4ZTlceGNjXnVceDFmXHhmMlx4MGZceDFjXHhl|MjJceDlmXHhhYlx4YTBdNlx4MDBceDAwXHgwMFx4MDBJRU5EXHhhZUJgXHg4MicKcDQ2CnNiLg==|###0#0#4294769635##KGlDb2RlLlFULlRhYlRpcG9zCkZsZWNoYQpwMQooZHAyClMnb3BhY2lkYWQnCnAzCkYxCnNTJ2Zv|cm1hJwpwNApTJzMnCnNTJ2NvbG9yaW50ZXJpb3IyJwpwNQpJLTEKc1MnYW5jaG9DYXNpbGxhJwpw|NgpJMzYKc1MnYTFoOCcKcDcKUydkMmQ2JwpwOApzUydhbmNobycKcDkKSTUKc1MnY29sb3InCnAx|MApMNDI4Mzc2MDc2N0wKc1MnZGVzY3VlbGd1ZScKcDExCkk2CnNTJ3Z1ZWxvJwpwMTIKSTQKc1Mn|cG9zaWNpb24nCnAxMwooaUNvZGUuUVQuVGFiVGlwb3MKUG9zaWNpb24KcDE0CihkcDE1ClMnYWx0|bycKcDE2CkkxNgpzUydvcmRlbicKcDE3Ckk4CnNnOQpJMTI4CnNTJ2FuZ3VsbycKcDE4CkkwCnNT|J3knCkkxNgpzUyd4JwpJMApzYnNTJ2Rlc3Rpbm8nCnAxOQpTJ20nCnNTJ3JlZG9uZGVvcycKcDIw|CkkwMApzUydhbHRvY2FiZXphJwpwMjEKSTIyCnNTJ2NvbG9yaW50ZXJpb3InCnAyMgpMNDI4OTM0|NTUzNkwKc1MnbGlWYXJzJwpwMjMKKGxwMjQKKFMncG9zaWNpb24nClMnbycKdHAyNQphKFMnYTFo|OCcKUydjJwp0cDI2CmEoUydncm9zb3InClMnbicKdHAyNwphKFMnYWx0b2NhYmV6YScKUyduJwp0|cDI4CmEoUyd0aXBvJwpTJ24nCnRwMjkKYShTJ2Rlc3Rpbm8nClMndCcKdHAzMAphKFMnYW5jaG9D|YXNpbGxhJwpTJ24nCnRwMzEKYShTJ2NvbG9yJwpTJ24nCnRwMzIKYShTJ2NvbG9yaW50ZXJpb3In|ClMnbicKdHAzMwphKFMnY29sb3JpbnRlcmlvcjInClMnbicKdHAzNAphKFMnb3BhY2lkYWQnClMn|bicKdHAzNQphKFMncmVkb25kZW9zJwpTJ2wnCnRwMzYKYShTJ2Zvcm1hJwpTJ3QnCnRwMzcKYShT|J2FuY2hvJwpTJ24nCnRwMzgKYShTJ3Z1ZWxvJwpTJ24nCnRwMzkKYShTJ2Rlc2N1ZWxndWUnClMn|bicKdHA0MAphKFMncG5nJwpTJ2MnCnRwNDEKYXNTJ3NpTW92aWJsZScKcDQyCkkwMQpzUydncm9z|b3InCnA0MwpJMQpzUydwbmcnCnA0NApTIlx4ODlQTkdcclxuXHgxYVxuXHgwMFx4MDBceDAwXHJJ|SERSXHgwMFx4MDBceDAwIFx4MDBceDAwXHgwMCBceDA4XHgwNlx4MDBceDAwXHgwMHN6elx4ZjRc|eDAwXHgwMFx4MDBceDA0c0JJVFx4MDhceDA4XHgwOFx4MDh8XHgwOGRceDg4XHgwMFx4MDBceDAw|XHRwSFlzXHgwMFx4MDBceDBlXHhjNFx4MDBceDAwXHgwZVx4YzRceDAxXHg5NStceDBlXHgxYlx4|MDBceDAwXHgwMkNJREFUWFx4ODVceGVkXHhkNk9IXHg5M2FceDFjXHgwN1x4ZjBceGVmXHhmM1x4|YmNceGVmXHhlM2YwXHhhMlx4MGVceDg5XHg4MVx4YzJceDA4ZVx4YjAxJlx4YTVOYVJceDhlXHhj|MFx4MGVceDFlXHg4YWJceGU0XHg5Y1x4ZDFceGJkS1x4OWJceGMzMFx4ZTlQXHg4N1x4ZThQXHgx|ZFx4YmFGXHg5N1x4OGFceGEwQjtceDE4Ylx4ODQsXHgxMVx4ZjdceDBjQnlceGRmNVx4YzFTXHhl|ZFx4MTBceDA4XHgxZVx4ODJceGNjXHhkNlx4ZTZceGZiXHhiY09ceDA3PVx4ZDQyMlx4ZDhceDll|XHhmN1x4ZTJceGY3XHhmNlx4YzBceGVmeX5ceDFmeHhceGZlXHgwMFx4ZmJceGY5M1x4YzRceGIx|XHhjZXFceDhjNydYXHhlYVx4OGRceGNhXHg5ZVx4ZjRceGQ3XHgwMWFceGU1XHhjN11ceGM3Jlx4|ZmJceDg3XHhiNFx4YjE1XHg5NVx4ODhceGRmMlx4YTRceDhkXHhhZFx4ZGRrXHhmM1lDXHhkYVhc|eGQxSURceGYxXHhiNjdUXHg4OVx4ZWJceGU5VVx4YzdceDEwcT1ceGJkelx4YjNceGI1XHhlN1x4|YzdceGIwXHg5ZTJceDFjQ1x4MGNceGViKVx4ZTNceGM2XHhkMVx4OTNceGRmXHgxM2xceDk0O1x4|ODdgXHhhOVx4ZGN4XHhmM1x4YzBceGI3XHgxMVx4OTZceGNjOFx4ODZceDE4YVx4YzlMXHhmYVx4|YzhceGUwRlx4ODIlZ1x4MWNDJFhyXHhlNlx4ZWFceGUxXHhmM19ceDEzLFx4ZjlceGIyXHg5Nlx4|ZWJqey00XHhlZFx4ZWNceGQzNmtceGUwXHhmOFx4YTFceDAza1x4YTdceGRiZVx4ZDRvXG4+XHhh|NVx4MTRceGIwXHg4M3hceGRlLlx4YTN+XHg4Zlx4ZWJceGNiXHhhMFx4MGZceGZkXlNceGYwaVx4|YTVceDAwXHgwMDBceDA1XHg5Zlx4ZjJceGExXHhkZlx4ZGJceGE4b1x4YzZceGZjNFx4ZDJkXHgw|OD5ceGFiXHgxNFx4YjBceDgzXHg5OFx4ZjZceGQzSFx4MTNceGEzXHhlNVx4Y2JceDAxXHgxMlx4|ZjFceDk4Nlx4OWZTXG5ceDAwXHgwMENceGYwXHhkOVx4MDBceDg5eDQqXHhhZVx4MDRceGI1XmJc|eDA4XHhiZVx4YTBceDE0XHgwMFx4MDBceGE2XHhjZFx4ZTdceDgyWi9ceDkxXHg5MlxcXHgwYlx4|ZDFceGVlXHg5MmFceGYzXHg5Y1JceDAwXHgwMFx4MThceDgyL1x4ODRod0lAXHhiZlx4MTVceGQ0|XHhjMlx4ZWJ5O1x4YmJceGE0XHgxNFx4MDBceDAwXHg4Nlx4Y2RzXHgxZCxceGJjblx4OGJceDg2|XHhmYkFceGJkXHhlYlNceGRlXHhjZX5QXG5ceDAwXHgwMENkXHg5N0J6Z1x4ZDFceDEyXHhlZVx4|ODdceDFkNFxcMFx4ZTVceGUyXHg5ZV5ceGQyXHg5YVx4MDFceDAwXHhjMFx4YjR5XHhiZVx4ODNc|eDg2XHgwYlx4MTVceGRiXHhmNVx4ZWNceDg0K1x4Y2Ncclx4YjFceGY4XHhmMV9zXHhlYVx4ZjJc|eGZmXHhiYlx4ZTRKR0tceDE1XHhmN2tNK1x4OWRceGQyLGlceDAyXHhjMFx4MTNceGRjXHhkZFRc|eDA2XHgwMFx4ODBceDhiXHhmYWhceDhmJVx4MWFceGRmXHhiOVx4ZjRKZ3lceGNiXHhiZFx4MGNc|eGIwXHg5Nlx4MTdceDk4XHhmOFxcXUd3XHg5YlxcXHg4YmhceDk2NFx4YjdceDliXHhiYlx4ZGVc|eDAzXHg5OFx4MDRceGNhXHg5OVx4ZGRceGVhXHhlYVx4MDZceDAwXHg4MFx4ZjJceDk2e1x4OTlc|eDAwXHhhZiRceGU0WVx4ODBceGI0XHhjNjBxTlx4MTlge1x4Y2ZZXHg4Ylx4ODRceDBjUUhceDBi|IFxyXHgxMlx4ZjRRdV1NT0F1VjBceGI3XHhiMVx4ODJceGY5XHgwNz5ceGY0XHhhZFx4MDA4XHgw|M1x4ZDBceDgzXHgwMVx4ZDJceGQ3WFx4YzBceGZjXHhkYnpceGY2XHhmZGtiZFx4ZTJceGNlXHgw|NXJceGZkXHhiZm5ceGNhXHhmZFx4ZDQ9P1x4MDFceGFlXHhjZlx4Y2NceGYyUVBZJFx4MDBceDAw|XHgwMFx4MDBJRU5EXHhhZUJgXHg4MiIKcDQ1CnNTJ3RpcG8nCnA0NgpJMQpzYi4=|#KGlDb2RlLlFULlRhYlRpcG9zCkZsZWNoYQpwMQooZHAyClMnb3BhY2lkYWQnCnAzCkYxCnNTJ2Zv|cm1hJwpwNApTJzMnCnNTJ2NvbG9yaW50ZXJpb3IyJwpwNQpJLTEKc1MnYW5jaG9DYXNpbGxhJwpw|NgpJMzYKc1MnYTFoOCcKcDcKUydkMmQ2JwpwOApzUydhbmNobycKcDkKSTUKc1MnY29sb3InCnAx|MApMNDI4OTQzNzM0NUwKc1MndnVlbG8nCnAxMQpJNApzUydwb3NpY2lvbicKcDEyCihpQ29kZS5R|VC5UYWJUaXBvcwpQb3NpY2lvbgpwMTMKKGRwMTQKUydhbHRvJwpwMTUKSTE2CnNTJ29yZGVuJwpw|MTYKSTgKc2c5CkkxMjgKc1MnYW5ndWxvJwpwMTcKSTAKc1MneScKSTE2CnNTJ3gnCkkwCnNic1Mn|ZGVzdGlubycKcDE4ClMnbScKc1MncmVkb25kZW9zJwpwMTkKSTAwCnNTJ2FsdG9jYWJlemEnCnAy|MApJMjIKc1MnbGlWYXJzJwpwMjEKKGxwMjIKKFMncG9zaWNpb24nClMnbycKdHAyMwphKFMnYTFo|OCcKUydjJwp0cDI0CmEoUydncm9zb3InClMnbicKdHAyNQphKFMnYWx0b2NhYmV6YScKUyduJwp0|cDI2CmEoUyd0aXBvJwpTJ24nCnRwMjcKYShTJ2Rlc3Rpbm8nClMndCcKdHAyOAphKFMnYW5jaG9D|YXNpbGxhJwpTJ24nCnRwMjkKYShTJ2NvbG9yJwpTJ24nCnRwMzAKYShTJ2NvbG9yaW50ZXJpb3In|ClMnbicKdHAzMQphKFMnY29sb3JpbnRlcmlvcjInClMnbicKdHAzMgphKFMnb3BhY2lkYWQnClMn|bicKdHAzMwphKFMncmVkb25kZW9zJwpTJ2wnCnRwMzQKYShTJ2Zvcm1hJwpTJ3QnCnRwMzUKYShT|J2FuY2hvJwpTJ24nCnRwMzYKYShTJ3Z1ZWxvJwpTJ24nCnRwMzcKYShTJ2Rlc2N1ZWxndWUnClMn|bicKdHAzOAphKFMncG5nJwpTJ2MnCnRwMzkKYXNTJ2NvbG9yaW50ZXJpb3InCnA0MApMNDI5MjMz|MTIxMEwKc1MnZGVzY3VlbGd1ZScKcDQxCkk2CnNTJ3NpTW92aWJsZScKcDQyCkkwMQpzUydncm9z|b3InCnA0MwpJMgpzUydwbmcnCnA0NApTJ1x4ODlQTkdcclxuXHgxYVxuXHgwMFx4MDBceDAwXHJJ|SERSXHgwMFx4MDBceDAwIFx4MDBceDAwXHgwMCBceDA4XHgwNlx4MDBceDAwXHgwMHN6elx4ZjRc|eDAwXHgwMFx4MDBceDA0c0JJVFx4MDhceDA4XHgwOFx4MDh8XHgwOGRceDg4XHgwMFx4MDBceDAw|XHRwSFlzXHgwMFx4MDBceDBlXHhjNFx4MDBceDAwXHgwZVx4YzRceDAxXHg5NStceDBlXHgxYlx4|MDBceDAwXHgwMlx4YWVJREFUWFx4ODVceGVkXHg5NktoXHgxM1FceDE0XHg4Nlx4ZmY7XHQmXHg5|M1x4YTRceDExXHg5MVpceGRiWlx4ZmFceDkwalx4ODVceDgyXHgwNV1UXHgwNFx4YjFceGUwXHhj|Mlx4OGRceGY1QVx4ZTdceDgyXHg4Ylx4YTZ5XHg4OFx4YmFQcFx4YTNceDg4XG5BXHhhOFx4YTJU|XHg4NC5cXGhceDkzXHhhNlx4ODlIXHhlZFx4MTBceGVkQyxceDg4YFx4MTdceGVhXHhhMm4tLVRc|eGNkXHhhMiJceGUyXHhhMyVceDk4XHhjN1x4YTRceGE2XHhlNlx4YjhceGIwaVJceGFkXHhhZDFc|eDkzXHhkOVx4ZThceGJmXHhmYlx4Y2ZceGJkXHhmN1x4OWNvXHg4Nlx4YzM9XHgxN1x4ZjhceGQ3|XHhjNVx4YjJceDhkXHhlY1x4ZjNceGFkZ1x4YzRceGRhKW46XHhjNU9ceGYwXHhhOFx4MTZceDAw|XHhjMiJceDFhXHgxMlx4MDZceDAxXHhlNlx4ODJJXHgxOVx4OTJlWVx4ZDRceDE0IFx4MTBceDA4|XHg5OFx4MDFceGI2XHgxMVx4MDBceDE4XHhkMFx4ODRIXHhiY1x4N2ZceGI4XHhiM1x4ZDNceGEw|XHgxOVx4ODBceGYxXHg4Ylx4OTFceDExXHhkMVx4Y2JceDg1XHgwNUFceGI3XHhmZFx4ODNceGQ1|XHhjYVx4OTY+XHhhNlx4OWVceDE2XHhmN1x4ODAsXHg4YixceGEyXHhkY1x4MDdceGMzXlx4YjMo|XHhhNmoqXHhhYVx4MGZceDhkTVx4OGVcJ1NceDE2XHhmMVx4MTFceGU3XHhmY1shXHgwMFx4MTZc|eGY1XHgwMFx4ZTdcXDFHXHhjM1x4MDdceDAwXHhiYVJceGJlXHhhZVx4YjRceGY1XHhlM1x4Y2N0|XHgxZlx4MDFceDBmXHgxMVx4ODl7XHhkZG5ceGI3XHhmMFx4YmIkXHhmOWhceGQ5Xzx0XHhhN29g|djZceGIxXHg3Zlx4ZGVceGRlanFceGQ4XHg4ZTNceGM2SE1ceDgwZVx4YmZqNlx4OTFceGY4XHg5|NGVceDhmXHhkZVx4ZjVceDA0XHhlYVx4ZDQsXHhiZSJceGMwXHhkOFRceGU4XHgxOFx4MTF1XHhh|NX11XHhmOVx4ODZceDhhXHgwMVx4OGZceGE3XHg4OFx4ODhUa1x4Y2VceDE1XHgxM1x4MTFceDEx|XHgwYlx4ZmFceGZjXHhkNy0mXHhkM3RZaVx4OTlrMlx4MTRceGQyXHgxM1x4YTVuclx4YTdceGJk|XVx4MTNceDgwbFxyXHhmN1x4Y2FceGU3Y1x4OGEyX1x4OThOS05ceGZiXHhiNXxceDAxclx4ZWFc|eGVjaCxceGYxLlx4ZTNYR1x4YjA7XHhiME9TXHgwMH5ceGM0XHhkNkMpXHg5Y0l7XHhhM3FVVVx4|YmVceDAwXHg3Zlx4ZDVMXHhiMlx4Y2ZceDdmUiBceGQ2VldceGJiKVx4ZmMqXHhmNFx4ZTZFMjU3|XHhjMVx4MWRtXHhiNzVceDAzXHgwMFx4ODBceDExXHhmN1x4ODg+Vlx4ZjdceGI5WVFceGUyXHhm|N1x4MDBceDgwXHg4OCRceGVlXHhiMlx4MDc1XHgwM1x4MDBceDgwXHhkZVx4ZWVceGVlXG49dFNc|eDk5ZFx4YWNceGI5XHhjNWl7XHg5MEtceDhlXHhiY1x4YWVceGQ3XHhjM05ceGU3WyJceDkyMlx4|OTFceGQ0XHhjNVxcc1x4YThyXHhhMVx4YzhceDllXHg5ZWYmXHhiMFx4YzFceDkyXHhlMlx4OTJc|eGMxaDhxLlx4OTZceDhjXHhhY1x4OTVceDljXHhhZE81XHgwM1x4MDBceDAwXHhkOVx4ZWItXHhi|Nlx4MTZceDE1XHhhZFx4OGVceGM0XHgxMmMgMlx4MDBceGMyXHhhZT9ceDgxUHVceGRlXHhiYlx4|ZGRuXHhhMVx4YmVceGIyJjNceGI2XHg4OTVKLlx4ZGJceGE4Zlx4MDBceDAwXHgxMFx4ZjRceGY5|dlx4MTJcdFx4Y2ZceGQyXHhkZVx4MWNcdFx4MWJHZ2ZceDkyXHJVVVx4ZDZceDgzXHgwZUdceGY4|XHhlN1x4ZmRceGFhXHhjZlx4ZjhceDE2XHg4N1x4ZTM5XHg4ODVceDAyXHg4MF5ceGQwTVx4YzQs|a1x4MWFceGVhK1x4YWJfXCdTLFx4YjBceGQ0XHgxMCtceGQ4XHg5M1x4YWJceGI3XHhjYlx4YmZc|eGM1XHhhOFx4YjdceGJlZ1x4YmF4XHg3ZnJublx4ZjdceDhmKF1ceDkyXHg5Y1x4ZjZceDBiXHg5|YVx4MDBceDAwQFx4ZDBceGViXHhkZkNceDBjXHg4Zlx4YjNjZFx4MTFcclx4OWNceGYzXHhhZmlf|XHg5MGdceGQ2QjFceGQwXHg4ZF9ceDgyUVx4YTUjXHhkYlx4MTZceDE0QHJceGQ5N1x4MTNceGUx|anZceDhjXHgxMVx4OWE0XHgwM1x4MDBceDAwXHhlZWo7S1x4MTZceGQxXHgwMFx4YTJcJ0RceGI4|XFxceGJibVx4ZWJceDhlQlx4ZDdceGZjXHhhZlx4OWNceGY0XHgxZG9ceDkyXHhmNztceDAzXHhi|Mlx4YzNQXHgwMFx4MDBceDAwXHgwMElFTkRceGFlQmBceDgyJwpwNDUKc1MndGlwbycKcDQ2Ckkz|CnNiLg==|#iVBORw0KGgoAAAANSUhEUgAAAEAAAABACAIAAAAlC+aJAAAAA3NCSVQICAjb4U/gAAAACXBIWXMAAA7EAAAOxAGVKw4bAAAEoklEQVRoge2aW2/jRBTHTya+xE7TNtmmTbu9ZNM7XZCQ6IKK4AnxwEXio/LAJwBtCy2VKu0uodsubGm7adI6TmPHzsT2mIdUGM4JAipEmGrPS62f/z0+o9h/H89MyrqsZwwT5Iyu7ykZwzSzI8Ou5Pah9P/Y19fVw+fDLeUfxfrqSn5sDH4bQPXwuRY5WSODdEf7B616A8FSpTy3toKga7eqO7v0SpuffExhdWfXtVsIzq6tTFfKCNr1xvH+AYJcCIDPtx5tJgMAgKyRGTENJDVUxVfSGGoqVQrf14kSAKgSADKqEhCxqWtUzDP6gLRhcshodrmCAcD5yXE87DpuHQwAZuYXU8Ou49bBACCVkrd++Z+BVMd1zOzI9u7e1ZM9Q1XQ6bHihEacwWs7HWKCqq6PlybpBS5PTikcL02quo5gx255bQdBzTTGihO4gC6H/P2tR5tex00qbtUb1DGLC3P3pksIdt1O86KOYK6QX3z7LVrr4XffUzizvDh6r4CgYzVp2kJpihage77duzmW/hZiAHBtW3LbaDY3Kq8NMQBQFHXYZdw+pH8GEht1f3pmaPinSKsqY3iQIoqiMEQwxZiiDvglA84pVFQ1RdJGYSiiCEHGWJqk9XgvM7uMbXRubYU2gz9+u0etbWapUn74BoJtq/n0m21a69YXn1H45OvHTtNGcGFjfX59FUGrdkGNmIfR0uxy/1j6W4gBgNNuyW2jUdj7S93/NhgAjBcm5X4PSB2JC7l2S/g+Oq3qeq6QRzDFWNtqIsg9nyoBgCoBQB/0oRwLQcUB5zStGiQmngygurNLP59X332H9pjnRy+oY+YK+Tc/fJ+Wtf3lVxQ+/GCLdqMvn/5A0xZKUzSte9e60R7vDruM2wcDANeR/D1QmCi9ttGhhfQDSNrpvBYMvRu9v7yI4J92ox992m+npf8F7sQA6rVf5LbRqen51zY6tJB+AImNXuw/zpDJ3eL8rJnLIdi+smyycKabRulBmV7g5FmVwtKDMu2o7XqjfWUhaOZyxflZBL0uD7JFPCvh2i26bjV4FrZpUxcHAKrsiylc2Fin4mbtgopVTaNKdtfa6evmpdw2msmOyG2juj7gC1WWkP4ZSGy0e3Zk6ho6HQWBEAJBlk6nFWy4sRBhENAL0LUwAAiDICZp04rC0tgGhRARSev3gpHKBrbR6Ur577fTdBb2v26nKxv9Y+lvIQYAruyTu/JWD/0B5EbH5X4PSB2JC9n1Bs9gy9NMo1CaQpAxZtUuEAw4p0oAoEoAMHM5VcOWLYSg4p7n07T+wMnd4/2DgZO7dKX//OgFtbZ/ZXKXpi2Uptbe20Twzk3uBj3Jl5iCQPIBSL3xVfpnIHEhLgTg/QPgdbnu4YUzj/d4iPcEqEHoEiUAUGU/LSNivxdQsT8obcfvQvpm/8FNO/37rcdxHNNtgGEYKqSFBoAYgL7FB4oHpg2CnqJqiPZbGwxjEQlQ0je3zFKloijplIig4zrxH+PV6c8xiWbjFe+FCHY9x3HwvwsR1mvnNEPt7CWFbvtaENi2L+2mhWAUcusqgZZtx3F8enaaknT7Pee84/sgxK8/h9qcFhEd/gAAAABJRU5ErkJggg==#0#'
p8
sS'SECCION'
p9
VObscuros
p10
sa(dp11
g3
VBlue
p12
sg5
VMerida#Arial#N#60#60#2#100#120
p13
sg7
S'4293848814#4292468952#4285762979#KGlDb2RlLlFULlRhYlRpcG9zCkZsZWNoYQpwMQooZHAyClMnb3BhY2lkYWQnCnAzCkYxCnNTJ2Zv|cm1hJwpwNApTJzMnCnNTJ2NvbG9yaW50ZXJpb3IyJwpwNQpJLTEKc1MnYW5jaG9DYXNpbGxhJwpw|NgpJMzYKc1MndGlwbycKcDcKSTEKc1MnYW5jaG8nCnA4Ckk0CnNTJ2NvbG9yJwpwOQpMNDI4MzU5|MDAwNEwKc1MnYTFoOCcKcDEwClMnZDJkNicKcDExCnNTJ3Z1ZWxvJwpwMTIKSTUKc1MncG9zaWNp|b24nCnAxMwooaUNvZGUuUVQuVGFiVGlwb3MKUG9zaWNpb24KcDE0CihkcDE1ClMnYWx0bycKcDE2|CkkxNgpzUydvcmRlbicKcDE3Ckk5CnNnOApJMTI4CnNTJ2FuZ3VsbycKcDE4CkkwCnNTJ3knCkkx|NgpzUyd4JwpJMApzYnNTJ2Rlc3Rpbm8nCnAxOQpTJ20nCnNTJ3JlZG9uZGVvcycKcDIwCkkwMQpz|UydhbHRvY2FiZXphJwpwMjEKSTIwCnNTJ2xpVmFycycKcDIyCihscDIzCihTJ3Bvc2ljaW9uJwpT|J28nCnRwMjQKYShTJ2ExaDgnClMnYycKdHAyNQphKFMnZ3Jvc29yJwpTJ24nCnRwMjYKYShTJ2Fs|dG9jYWJlemEnClMnbicKdHAyNwphKFMndGlwbycKUyduJwp0cDI4CmEoUydkZXN0aW5vJwpTJ3Qn|CnRwMjkKYShTJ2FuY2hvQ2FzaWxsYScKUyduJwp0cDMwCmEoUydjb2xvcicKUyduJwp0cDMxCmEo|Uydjb2xvcmludGVyaW9yJwpTJ24nCnRwMzIKYShTJ2NvbG9yaW50ZXJpb3IyJwpTJ24nCnRwMzMK|YShTJ29wYWNpZGFkJwpTJ24nCnRwMzQKYShTJ3JlZG9uZGVvcycKUydsJwp0cDM1CmEoUydmb3Jt|YScKUyd0Jwp0cDM2CmEoUydhbmNobycKUyduJwp0cDM3CmEoUyd2dWVsbycKUyduJwp0cDM4CmEo|UydkZXNjdWVsZ3VlJwpTJ24nCnRwMzkKYShTJ3BuZycKUydjJwp0cDQwCmFzUydjb2xvcmludGVy|aW9yJwpwNDEKTDQyODM1OTAwMDRMCnNTJ2Rlc2N1ZWxndWUnCnA0MgpJNgpzUydzaU1vdmlibGUn|CnA0MwpJMDEKc1MnZ3Jvc29yJwpwNDQKSTEKc1MncG5nJwpwNDUKUydceDg5UE5HXHJcblx4MWFc|blx4MDBceDAwXHgwMFxySUhEUlx4MDBceDAwXHgwMCBceDAwXHgwMFx4MDAgXHgwOFx4MDZceDAw|XHgwMFx4MDBzenpceGY0XHgwMFx4MDBceDAwXHgwNHNCSVRceDA4XHgwOFx4MDhceDA4fFx4MDhk|XHg4OFx4MDBceDAwXHgwMFx0cEhZc1x4MDBceDAwXHgwZVx4YzRceDAwXHgwMFx4MGVceGM0XHgw|MVx4OTUrXHgwZVx4MWJceDAwXHgwMFx4MDJOSURBVFhceDg1XHhlZFx4ZDcxTFx4MTNhXHgxOFx4|MDZceGUwXHhmN1x4ZmJceDhmaFx4YzJkZFx4YzNceDhkXHg4MVx4YjZceDg3XHhjNFx4ZjZceDBl|U1x4OGZceDE2ZVx4OTJceDgxXHg4OFJceGEyXHhhM1x4MDRceGQyXHhlMlx4YTYxbVx4YzJceGVj|ZFx4MDhceDEwI1tceGE1XHhjNVx4ZThceGUwXHhhMFx4YjFceDE3XHhjNFx4ODQoXHgwMyRceGM4|XU1ceGU4XHgxNVx4MTJceGQyO1x4MTJceDEzdSNOXTFceGY0Plx4MDdceGFhMVx4YTBceGM2RFx4|ZmJceGUzXHhlMFx4YmJceGRkXHhmZFx4ZGZceGU1fVx4ZjJPXHhkZlx4MDFceGZmczh0ZFx4Y2Rc|eGZkXHhjM2k9XHg5MUpceGNmXHhjOFx4ZWNceDE0XHhkZj9ceDFjPyZGXHg5OGk0XHg5MVx4Y2Nc|eGFjXHhjOFx4MDJceDFjXHhiYVx4ZWVceGZkclx4ZDZceDE5XHhjMjJzXHg5M31ceDhkXHgwNlx4|ODhceDgzL1xuXHhiOVx4YTleXHg4Nlx4YjBceDg4XHhkOEgkXHhkM1x4ZjNceGQyXHgwMVx4MDBg|XHhlNiZceGZiXHgxOFhhXHhhMlx4ZGVEMlx4ZmRUOlx4MDBceDAwXHhjY1x4ZDlceGE5XHgwMWJ+|XHhjNVx4ODIuXHgwZSUzXHg4Zlx4MWJceDA1UH51XHhlODpceGY2MzVidFx4YjBceGEwXHgwMVUz|XHhkYVxcXHhjN15ceDkwXG5ceGE4I0xVM1x4ZGFceDk4XHhlOFx4OWFceDFhNlpceGRkXHhiMlx4|YmQoXHgxNVBHLFx4YThhXHhhM1x4ZDVceDA3XHhhZXd0XHhjNU5ceGJhXHg4ZVx4YjUkXHgxNVx4|MDBceDAwblx4ZDleVFx4ZjVceGVlXHgxNlx4MDBjXHgwMS1ceGRlXHhlYzlceGQ2XHhiMlRceDAw|XHgwMFx4YjhceDhlXHhiZFx4MTRceGQwXHhlMlx4Y2RceDA0XHhmZmZIXHg4Ylx4MGJceGNmXHhi|MVZceGE1XHgwMlx4MDBceGMwc1x4YWNceGU1XHg5MFx4MTZceDE3XHgwNFx4MWVceDBmXHhlYVx4|YzZceGFlXHhlN1x4ZDhFXHhhOVx4ODA6YjVceGE4XHgxYlx4YmJceDA0XHhiZVx4MTNceDg4XHhj|NFx4YWFeXHhkOVpceDk3XG5ceGQ4R1x4ZDhceGM1QCRWXHgxNVxuT1x4MDRceGMzPTteeW1DKlx4|MDBceDAwXHhiY1x4YjJceGI1XHgxZVx4MGNceGY3XHhlY1x4ODBceGZjXHg5OVx4ZDN6XHhmNH1c|eGM1KW5JXHgwNVx4ZWMjXHhkNjY6XHhiNHNceDFmXHg5OFx4OWFyXHhlZF1ceGIxXHhjYXZceGM5|XHhmMlx4YTRceDAyXHgwMFx4YzB1XHhlY1x4YWRceGY2XHhhZVhFMD9cdEVceGJhS15ceGQ5elwn|XHgxNVx4MDBceDAwXHhkYiVceGNiXHgwYkVceGJhS1x4MTAwO1x4ZjVceGU4XHg5Ylx4OGFTXHhm|Y1x4Zjg7XHhkZlx4ZmRceGY1XHhmNVx4ZWJqXHhlYVx4ZjZceDg1PVx4ODhceGQ3XHg4MnBceGZl|XHhmOVx4ODNceGU5XHhiN1x4ZDJceDAxXHgwMDA0XHg5Nlx4OGUyaFx4OTVJOWtmXCc2XHhhNVx4|MDNceDAwYFx4ZjBceGM2XHhmOFx4MTlceGFhXHhlZFx4YWRDcFwnXHhkNyhPXHhmMFx4MGJceDg1|XHhmY1x4YmRceGU5XHg4M3M/XHhkZFx4MDdceGZlNGZ2Ylx4MTNceDgyO1x4OTlpS2lceGYyXHhi|M0xceGNhXHhkZFx4MWZceGNkNVx4MGNceDAwXHgwMFx4ZWNceDhiXHhiYyJoXHhkNFx4YWZceDg5|XHg4NyBceGZlXHg5NEhmXHhlNlx4YTRceDAyXHgxNFx4YzFceDg1WlxyOVx4MDA7XHgwNDpceDA1|YFx4ZTRceGUwXHg4Y1x4OTRceDlmXHg5MCtceGE5XHhjY1x4OWNceGE4XHg5NzNceGY4XHhhNTk7|fUkqXHhlMGtceDA2U1x4OTlceDE3XHgwMFx4ZjdceGZiXHg5Zlx4ZjdaXHhlNlx4MWZceGRkXHhh|Zlx4Y2FceGVjXHhmZVx4OTZceGNiXHhjM1x4YjdOXHgxY0lceGYxP1x4OWIvXHhjOFx4MTRceGRm|XHg5ZFx4MWJceGU1XHgwNlx4Y2VceDAwXHgwMFx4MDBceDAwSUVORFx4YWVCYFx4ODInCnA0Ngpz|Yi4=|#4286212691#4283851879#False#KGlDb2RlLlFULlRhYlRpcG9zCkZsZWNoYQpwMQooZHAyClMnb3BhY2lkYWQnCnAzCkYwLjgwMDAw|MDAwMDAwMDAwMDA0CnNTJ2Zvcm1hJwpwNApTJ2EnCnNTJ2NvbG9yaW50ZXJpb3IyJwpwNQpJLTEK|c1MnYW5jaG9DYXNpbGxhJwpwNgpJMzYKc1MndGlwbycKcDcKSTIKc1MnYW5jaG8nCnA4Ckk0CnNT|J2NvbG9yJwpwOQpMNDI4NDEwOTY1M0wKc1MnYTFoOCcKcDEwClMnZDJkNicKcDExCnNTJ3Z1ZWxv|JwpwMTIKSTUKc1MncG9zaWNpb24nCnAxMwooaUNvZGUuUVQuVGFiVGlwb3MKUG9zaWNpb24KcDE0|CihkcDE1ClMnYWx0bycKcDE2CkkxNgpzUydvcmRlbicKcDE3Ckk5CnNnOApJMTI4CnNTJ2FuZ3Vs|bycKcDE4CkkwCnNTJ3knCkkxNgpzUyd4JwpJMApzYnNTJ2Rlc3Rpbm8nCnAxOQpTJ20nCnNTJ3Jl|ZG9uZGVvcycKcDIwCkkwMQpzUydhbHRvY2FiZXphJwpwMjEKSTIwCnNTJ2xpVmFycycKcDIyCihs|cDIzCihTJ3Bvc2ljaW9uJwpTJ28nCnRwMjQKYShTJ2ExaDgnClMnYycKdHAyNQphKFMnZ3Jvc29y|JwpTJ24nCnRwMjYKYShTJ2FsdG9jYWJlemEnClMnbicKdHAyNwphKFMndGlwbycKUyduJwp0cDI4|CmEoUydkZXN0aW5vJwpTJ3QnCnRwMjkKYShTJ2FuY2hvQ2FzaWxsYScKUyduJwp0cDMwCmEoUydj|b2xvcicKUyduJwp0cDMxCmEoUydjb2xvcmludGVyaW9yJwpTJ24nCnRwMzIKYShTJ2NvbG9yaW50|ZXJpb3IyJwpTJ24nCnRwMzMKYShTJ29wYWNpZGFkJwpTJ24nCnRwMzQKYShTJ3JlZG9uZGVvcycK|UydsJwp0cDM1CmEoUydmb3JtYScKUyd0Jwp0cDM2CmEoUydhbmNobycKUyduJwp0cDM3CmEoUyd2|dWVsbycKUyduJwp0cDM4CmEoUydkZXNjdWVsZ3VlJwpTJ24nCnRwMzkKYShTJ3BuZycKUydjJwp0|cDQwCmFzUydjb2xvcmludGVyaW9yJwpwNDEKTDQyOTIzMzEyMTBMCnNTJ2Rlc2N1ZWxndWUnCnA0|MgpJNgpzUydzaU1vdmlibGUnCnA0MwpJMDEKc1MnZ3Jvc29yJwpwNDQKSTMKc1MncG5nJwpwNDUK|UydceDg5UE5HXHJcblx4MWFcblx4MDBceDAwXHgwMFxySUhEUlx4MDBceDAwXHgwMCBceDAwXHgw|MFx4MDAgXHgwOFx4MDZceDAwXHgwMFx4MDBzenpceGY0XHgwMFx4MDBceDAwXHgwNHNCSVRceDA4|XHgwOFx4MDhceDA4fFx4MDhkXHg4OFx4MDBceDAwXHgwMFx0cEhZc1x4MDBceDAwXHgwZVx4YzRc|eDAwXHgwMFx4MGVceGM0XHgwMVx4OTUrXHgwZVx4MWJceDAwXHgwMFx4MDJceDEwSURBVFhceDg1|XHhlNVx4ZDY/a1x4ZGJAXHgxOFx4MDZceGYwXHhlNz01NFx4OTBceDE2XHgxYVx4ZGFmMSRLXHgw|Y1x4YzZceDg5XHg4N2RceGYyXHhkYy9Qalx4YjBceDk3anFcdE5ceDg3di5ceDE0XHg4Y3pDXHhi|Ni5ceDFlXHgwYlx4YTZceGM5XHhkNEUlQ0JceGEwXHhhYlx4YjZceGNjMVx4YjhceDA2XHg3Zlx4|MDJceGY3XHhiMFx4MGNtXHg4M1x4ODkjXHhmYlx4ZWRQXHhjOVx4OTZceGUzOFx4MGVceGQ2XHg5|Zlx4MGN5XHhhNlx4ZDNceGExXHhlM1x4ZmRceGExXHhkM1x4YmRceDEycFx4ZGZDXHhkZVx4YzAw|XHgwY1x4ZDFceGFjXHhkNVx4OGJEXHhlMFx4ZjVceGNkXHhmNFx4ODFceDk0clx4MTBceDA3QFx4|ZjNceDA2XHg4OVx4YTcrb0BceGE4XHgwMnhpXHhiN1QiV1x4YzhceDlmWFx4OTZceGM1UVx4MDNc|eDg0NyBceGMyXHhhOFx4MThhXHhhN1lceGFiXHg3ZjFceDBjQ1xcXHhiYipcblx4YzBceGZhZlx4|ZmFceDAwXHg4Y2pceGRjXHg4OFx4ZTFceDE2WFx4OTZceGM1XHhiOUJceGZlXHhjNG5ceGE5XHgw|NFx4MDhceGRiLmI7XHhlYVx4ZWRceGQwXHhmY1x4MTd3XHg4MVx4ZDBceGFlTlx4YzRceDhkXHg5|OFx4MDBceGM0XHg4ZFx4YjhceDE2XHgxMFwnYipceGUwRlx4YzQvXHhmNVx4YTRceGY2XHhiM1x4|ZmUjXHgwY1x4YzBceGNjIyZceGE1XHgxYyQzXHhlOV1ceGZmXHgxMWVceGU2Ylx4MThceGM1b1x4|MDVceDE4Q1x4MDBceDE1Zlx4ZmVcclx4YTJceGNmYVx4MDFceGVlPDRceGZiXHg5Nlx4ZTl5XHhm|ZFx4YWFceDkwZVx4YzF7YD5NZjZceGNhXHhmM3xceGMwXHgwMlx4YjVZXHgxNlx4YmNceDA3XHhl|MFx4MDVceDg4PjZrXHhmNVx4ZWE8bTtYXHg5Zmc+XHgxZFx4OGVcdFx4YzV5XHgxMFx4ODFceDAw|XHhjOVx4Y2NGXHgxOVx4OGNceGZkIFx4ODhceDFiXHhmYlx4YzBceGFjXHhiOH1ceGUyXHhkOG5c|eGE5VVx4MTBceGI2XFxceGM0XHg5Nlx4ZGRSXHhhYlx4YjlCXHhmZVx4Zjg2XHhjZCpceDEwIFx4|MGNEXHhhMFNceGUwXHg4Zlx4ZmJLV1x4MDVhXHhkNFx4YTRceDE4XHhmYlx4OGZceDllLVx4ZWZc|eDllXHhiN1x4ZGJceGQ5XHg5ZVx4MTBcclx4ZDM0VWRceDgwXHhhOVx4ODhceDAxXHgxYVx4MTBI|XHg4MVx4YTEuNVx4YTRMXHhkM1x4YjRceGZka0JceGZkXHhkYnE7XHhlNlx4Y2VceGQ4XHg4Yilc|eDkwXHgwMlx4MDBceDEwXHg5ZS9ceGY0XHhmOVx4ZmRceGQ1NVx4YTE+XHgwMS9ceGE1UmlceGUx|XHhhZlx4ZWFceDljXHJceDhie2FceGVlLDpceGJkXHhiNVx4YWZHR1x4N2ZGXHhiZVx4MDhyXHhk|ZW5nXCdceDhhXHgwM1x4MDBceGQxclx4ZjdceGMxXHhjM1x4YjdceGZlXHhhOUhceDAwPSFceDFh|YExceGJjcFx4ZmZceDExXFxceGQ2dX0pUlx4ODBpXHg5YVx4ZWFSQ1xuXHhjY1x4OWZceGMwXHhk|Y1x4MTlceGFiXHgwZnpceGRjXHhlZl5UIlx4MDVceGI4XHgwOFx4ZmJceGRiXHhlMXdceGI5XHhl|OFx4ZjRceGQ2XHhjMFx4ZmNceDgxXHhjMVx4YzN9XCdceDg2M1x4MDJceGM1XHgxNF1ceGQ3XHg5|N1x4ZmFceGRkXHg4YlxuMVx4OWNkJlx4ZmROSlx4ZTlceGNjXnVceDFmXHhmMlx4MGZceDFjXHhl|MjJceDlmXHhhYlx4YTBdNlx4MDBceDAwXHgwMFx4MDBJRU5EXHhhZUJgXHg4MicKcDQ2CnNiLg==|###0#0#4294769635##KGlDb2RlLlFULlRhYlRpcG9zCkZsZWNoYQpwMQooZHAyClMnb3BhY2lkYWQnCnAzCkYxCnNTJ2Zv|cm1hJwpwNApTJzMnCnNTJ2NvbG9yaW50ZXJpb3IyJwpwNQpJLTEKc1MnYW5jaG9DYXNpbGxhJwpw|NgpJMzYKc1MnYTFoOCcKcDcKUydkMmQ2JwpwOApzUydhbmNobycKcDkKSTUKc1MnY29sb3InCnAx|MApMNDI4Mzc2MDc2N0wKc1MnZGVzY3VlbGd1ZScKcDExCkk2CnNTJ3Z1ZWxvJwpwMTIKSTQKc1Mn|cG9zaWNpb24nCnAxMwooaUNvZGUuUVQuVGFiVGlwb3MKUG9zaWNpb24KcDE0CihkcDE1ClMnYWx0|bycKcDE2CkkxNgpzUydvcmRlbicKcDE3Ckk4CnNnOQpJMTI4CnNTJ2FuZ3VsbycKcDE4CkkwCnNT|J3knCkkxNgpzUyd4JwpJMApzYnNTJ2Rlc3Rpbm8nCnAxOQpTJ20nCnNTJ3JlZG9uZGVvcycKcDIw|CkkwMApzUydhbHRvY2FiZXphJwpwMjEKSTIyCnNTJ2NvbG9yaW50ZXJpb3InCnAyMgpMNDI4OTM0|NTUzNkwKc1MnbGlWYXJzJwpwMjMKKGxwMjQKKFMncG9zaWNpb24nClMnbycKdHAyNQphKFMnYTFo|OCcKUydjJwp0cDI2CmEoUydncm9zb3InClMnbicKdHAyNwphKFMnYWx0b2NhYmV6YScKUyduJwp0|cDI4CmEoUyd0aXBvJwpTJ24nCnRwMjkKYShTJ2Rlc3Rpbm8nClMndCcKdHAzMAphKFMnYW5jaG9D|YXNpbGxhJwpTJ24nCnRwMzEKYShTJ2NvbG9yJwpTJ24nCnRwMzIKYShTJ2NvbG9yaW50ZXJpb3In|ClMnbicKdHAzMwphKFMnY29sb3JpbnRlcmlvcjInClMnbicKdHAzNAphKFMnb3BhY2lkYWQnClMn|bicKdHAzNQphKFMncmVkb25kZW9zJwpTJ2wnCnRwMzYKYShTJ2Zvcm1hJwpTJ3QnCnRwMzcKYShT|J2FuY2hvJwpTJ24nCnRwMzgKYShTJ3Z1ZWxvJwpTJ24nCnRwMzkKYShTJ2Rlc2N1ZWxndWUnClMn|bicKdHA0MAphKFMncG5nJwpTJ2MnCnRwNDEKYXNTJ3NpTW92aWJsZScKcDQyCkkwMQpzUydncm9z|b3InCnA0MwpJMQpzUydwbmcnCnA0NApTIlx4ODlQTkdcclxuXHgxYVxuXHgwMFx4MDBceDAwXHJJ|SERSXHgwMFx4MDBceDAwIFx4MDBceDAwXHgwMCBceDA4XHgwNlx4MDBceDAwXHgwMHN6elx4ZjRc|eDAwXHgwMFx4MDBceDA0c0JJVFx4MDhceDA4XHgwOFx4MDh8XHgwOGRceDg4XHgwMFx4MDBceDAw|XHRwSFlzXHgwMFx4MDBceDBlXHhjNFx4MDBceDAwXHgwZVx4YzRceDAxXHg5NStceDBlXHgxYlx4|MDBceDAwXHgwMkNJREFUWFx4ODVceGVkXHhkNk9IXHg5M2FceDFjXHgwN1x4ZjBceGVmXHhmM1x4|YmNceGVmXHhlM2YwXHhhMlx4MGVceDg5XHg4MVx4YzJceDA4ZVx4YjAxJlx4YTVOYVJceDhlXHhj|MFx4MGVceDFlXHg4YWJceGU0XHg5Y1x4ZDFceGJkS1x4OWJceGMzMFx4ZTlQXHg4N1x4ZThQXHgx|ZFx4YmFGXHg5N1x4OGFceGEwQjtceDE4Ylx4ODQsXHgxMVx4ZjdceDBjQnlceGRmNVx4YzFTXHhl|ZFx4MTBceDA4XHgxZVx4ODJceGNjXHhkNlx4ZTZceGZiXHhiY09ceDA3PVx4ZDQyMlx4ZDhceDll|XHhmN1x4ZTJceGY3XHhmNlx4YzBceGVmeX5ceDFmeHhceGZlXHgwMFx4ZmJceGY5M1x4YzRceGIx|XHhjZXFceDhjNydYXHhlYVx4OGRceGNhXHg5ZVx4ZjRceGQ3XHgwMWFceGU1XHhjN11ceGM3Jlx4|ZmJceDg3XHhiNFx4YjE1XHg5NVx4ODhceGRmMlx4YTRceDhkXHhhZFx4ZGRrXHhmM1lDXHhkYVhc|eGQxSURceGYxXHhiNjdUXHg4OVx4ZWJceGU5VVx4YzdceDEwcT1ceGJkelx4YjNceGI1XHhlN1x4|YzdceGIwXHg5ZTJceDFjQ1x4MGNceGViKVx4ZTNceGM2XHhkMVx4OTNceGRmXHgxM2xceDk0O1x4|ODdgXHhhOVx4ZGN4XHhmM1x4YzBceGI3XHgxMVx4OTZceGNjOFx4ODZceDE4YVx4YzlMXHhmYVx4|YzhceGUwRlx4ODIlZ1x4MWNDJFhyXHhlNlx4ZWFceGUxXHhmM19ceDEzLFx4ZjlceGIyXHg5Nlx4|ZWJqey00XHhlZFx4ZWNceGQzNmtceGUwXHhmOFx4YTFceDAza1x4YTdceGRiZVx4ZDRvXG4+XHhh|NVx4MTRceGIwXHg4M3hceGRlLlx4YTN+XHg4Zlx4ZWJceGNiXHhhMFx4MGZceGZkXlNceGYwaVx4|YTVceDAwXHgwMDBceDA1XHg5Zlx4ZjJceGExXHhkZlx4ZGJceGE4b1x4YzZceGZjNFx4ZDJkXHgw|OD5ceGFiXHgxNFx4YjBceDgzXHg5OFx4ZjZceGQzSFx4MTNceGEzXHhlNVx4Y2JceDAxXHgxMlx4|ZjFceDk4Nlx4OWZTXG5ceDAwXHgwMENceGYwXHhkOVx4MDBceDg5eDQqXHhhZVx4MDRceGI1XmJc|eDA4XHhiZVx4YTBceDE0XHgwMFx4MDBceGE2XHhjZFx4ZTdceDgyWi9ceDkxXHg5MlxcXHgwYlx4|ZDFceGVlXHg5MmFceGYzXHg5Y1JceDAwXHgwMFx4MThceDgyL1x4ODRod0lAXHhiZlx4MTVceGQ0|XHhjMlx4ZWJ5O1x4YmJceGE0XHgxNFx4MDBceDAwXHg4Nlx4Y2RzXHgxZCxceGJjblx4OGJceDg2|XHhmYkFceGJkXHhlYlNceGRlXHhjZX5QXG5ceDAwXHgwMENkXHg5N0J6Z1x4ZDFceDEyXHhlZVx4|ODdceDFkNFxcMFx4ZTVceGUyXHg5ZV5ceGQyXHg5YVx4MDFceDAwXHhjMFx4YjR5XHhiZVx4ODNc|eDg2XHgwYlx4MTVceGRiXHhmNVx4ZWNceDg0K1x4Y2Ncclx4YjFceGY4XHhmMV9zXHhlYVx4ZjJc|eGZmXHhiYlx4ZTRKR0tceDE1XHhmN2tNK1x4OWRceGQyLGlceDAyXHhjMFx4MTNceGRjXHhkZFRc|eDA2XHgwMFx4ODBceDhiXHhmYWhceDhmJVx4MWFceGRmXHhiOVx4ZjRKZ3lceGNiXHhiZFx4MGNc|eGIwXHg5Nlx4MTdceDk4XHhmOFxcXUd3XHg5YlxcXHg4YmhceDk2NFx4YjdceDliXHhiYlx4ZGVc|eDAzXHg5OFx4MDRceGNhXHg5OVx4ZGRceGVhXHhlYVx4MDZceDAwXHg4MFx4ZjJceDk2e1x4OTlc|eDAwXHhhZiRceGU0WVx4ODBceGI0XHhjNjBxTlx4MTlge1x4Y2ZZXHg4Ylx4ODRceDBjUUhceDBi|IFxyXHgxMlx4ZjRRdV1NT0F1VjBceGI3XHhiMVx4ODJceGY5XHgwNz5ceGY0XHhhZFx4MDA4XHgw|M1x4ZDBceDgzXHgwMVx4ZDJceGQ3WFx4YzBceGZjXHhkYnpceGY2XHhmZGtiZFx4ZTJceGNlXHgw|NXJceGZkXHhiZm5ceGNhXHhmZFx4ZDQ9P1x4MDFceGFlXHhjZlx4Y2NceGYyUVBZJFx4MDBceDAw|XHgwMFx4MDBJRU5EXHhhZUJgXHg4MiIKcDQ1CnNTJ3RpcG8nCnA0NgpJMQpzYi4=|#KGlDb2RlLlFULlRhYlRpcG9zCkZsZWNoYQpwMQooZHAyClMnb3BhY2lkYWQnCnAzCkYxCnNTJ2Zv|cm1hJwpwNApTJzMnCnNTJ2NvbG9yaW50ZXJpb3IyJwpwNQpJLTEKc1MnYW5jaG9DYXNpbGxhJwpw|NgpJMzYKc1MnYTFoOCcKcDcKUydkMmQ2JwpwOApzUydhbmNobycKcDkKSTUKc1MnY29sb3InCnAx|MApMNDI4NjU1Mzc4MEwKc1MndnVlbG8nCnAxMQpJNApzUydwb3NpY2lvbicKcDEyCihpQ29kZS5R|VC5UYWJUaXBvcwpQb3NpY2lvbgpwMTMKKGRwMTQKUydhbHRvJwpwMTUKSTE2CnNTJ29yZGVuJwpw|MTYKSTgKc2c5CkkxMjgKc1MnYW5ndWxvJwpwMTcKSTAKc1MneScKSTE2CnNTJ3gnCkkwCnNic1Mn|ZGVzdGlubycKcDE4ClMnbScKc1MncmVkb25kZW9zJwpwMTkKSTAwCnNTJ2FsdG9jYWJlemEnCnAy|MApJMjIKc1MnbGlWYXJzJwpwMjEKKGxwMjIKKFMncG9zaWNpb24nClMnbycKdHAyMwphKFMnYTFo|OCcKUydjJwp0cDI0CmEoUydncm9zb3InClMnbicKdHAyNQphKFMnYWx0b2NhYmV6YScKUyduJwp0|cDI2CmEoUyd0aXBvJwpTJ24nCnRwMjcKYShTJ2Rlc3Rpbm8nClMndCcKdHAyOAphKFMnYW5jaG9D|YXNpbGxhJwpTJ24nCnRwMjkKYShTJ2NvbG9yJwpTJ24nCnRwMzAKYShTJ2NvbG9yaW50ZXJpb3In|ClMnbicKdHAzMQphKFMnY29sb3JpbnRlcmlvcjInClMnbicKdHAzMgphKFMnb3BhY2lkYWQnClMn|bicKdHAzMwphKFMncmVkb25kZW9zJwpTJ2wnCnRwMzQKYShTJ2Zvcm1hJwpTJ3QnCnRwMzUKYShT|J2FuY2hvJwpTJ24nCnRwMzYKYShTJ3Z1ZWxvJwpTJ24nCnRwMzcKYShTJ2Rlc2N1ZWxndWUnClMn|bicKdHAzOAphKFMncG5nJwpTJ2MnCnRwMzkKYXNTJ2NvbG9yaW50ZXJpb3InCnA0MApMNDI5NDk2|NzA0MEwKc1MnZGVzY3VlbGd1ZScKcDQxCkk2CnNTJ3NpTW92aWJsZScKcDQyCkkwMQpzUydncm9z|b3InCnA0MwpJMgpzUydwbmcnCnA0NApTJ1x4ODlQTkdcclxuXHgxYVxuXHgwMFx4MDBceDAwXHJJ|SERSXHgwMFx4MDBceDAwIFx4MDBceDAwXHgwMCBceDA4XHgwNlx4MDBceDAwXHgwMHN6elx4ZjRc|eDAwXHgwMFx4MDBceDA0c0JJVFx4MDhceDA4XHgwOFx4MDh8XHgwOGRceDg4XHgwMFx4MDBceDAw|XHRwSFlzXHgwMFx4MDBceDBlXHhjNFx4MDBceDAwXHgwZVx4YzRceDAxXHg5NStceDBlXHgxYlx4|MDBceDAwXHgwMmpJREFUWFx4ODVceGU1XHhkNj1oXHgxM2FceDE4XHgwN1x4ZjBceGZmc1FiJFxy|NFsmZ1x4MWRceGI1XHg4NVx4MGVcbnZRMVx4MWZcblx4ZGE4RFx4OTBceGU2XHg4MjpceGI0XHhk|NFx4YTJceGE4XHg4M1x4Y2RxXHg4OVx4ZDJceDgyYChceGE1QyRceDFmSFx4ZWRceGQwXHhmOFx4|MDE2XHhiOVx4YTAuXG52XHhiMFx4ZDhZXHg5Y0NBXHhiN1x4ODhpXHJceGExXHhkZT1ceDBlbS5c|eGQ3XHhiNFJceDg3XHhiYlx4MTdceGM0Z3tceGZlXHhmN1x4ZGVceGJkP15ceDBlXHhkZVx4MDdc|eGY4XHhkZlx4OGJceGFjXHg4ZDJXXHhmNVx4ZTktXG5ceGFjXHhmYlx4MWFceGI1TDRceGRhXHgx|NFx4MDFceDkwXHhhY1x4OWJjQ1x4ZmZceGU4XHg5Mlx4ZjQvXHhiZTVceDhmNl4qeVx4ODRceDAy|XHhmNFx4MTZceDA1XHgwMDpceGJjXHhkOVx4ZDFgT1x4YzNceGYzcnRceGJhXHhlYVx4MTZceDA2|WFx4Zjc1alx4MDBceGJma1x4ZjdEdFx4YzZceGVmXHhkNVx4MTdceGFlZldceGY2XHgwYlx4MDFk|XHhhMlx4ZDFceGU2XHgwZm8zXHhjOFx4Y2NceGFmXHhjZFx4YTdEXHhlN1x4MDJceGZiXHhiZVx4|Y2Rcclx4OTVKLlx4YzdceDAxbUR9XHhjZHVceDFlXHhjY1x4YWY6XHgwOFxcOlx4ZDI4XHg5OFdc|eDE0RVx4ZGFceGYxXHhiNlx4ZGRceDAwXHgwMFx4OThceDE5O1x4ZGJceGZhXHhmYSswXHgwNFx4|YzZceDgyXHgwNXFceDg1XHgwZlx4ZjVceGNmXHg4Mlx4OTlceGJhXHhkN1x4ZGJceDBlXHgwMFx4|ODBceGM3XHhkN1x4ZmE2Plx4ZjdceGZjXHg4Y1x4ODFceGYxXHhhNGNceGMwXHhmNWRRe2Q3XHhl|Mlx4OGZceGM3XHhmYSxceDFhXHhkNVFceGZiXHgxNFx4MDdzXHhkNlx4ODJceGI4XHhhMVx4MTRc|eGI0XHgwN3YiXHhmNlx4ZmVceDEwMylceDA1LVx4MDNceGMyXHg5OCVceDlkUFx4ZTNceGExXHhm|YnZceDAwXHhmNlx4ZmVceGIxXHg4OFhceDhkXHgwN1x4YzdceGMxXHg5OFx4YjRceGE0XHhlOWRc|eGJlfFx4ZDNceDBlXHhjMFx4ZGZceDFmJTMlXHgwYlx4OTV7RFx4OTRceGIyRCMpOTgrXHgwNlx4|YjBVSlx4YTFyXHgwYlx4YzBceGMzXHgwZVx4MDJceDg5XHg5NFx4MWNceGNhXHgwYlx4MDNsIlx4|Y2EjXHgwMFx4Y2RceDk4XHgwOFx4ODMvXHhhN1x4MTJceGUxeWFceDAwXHgwMEhceGU2KzJceDEx|clx4ZWRceGRlMFx4ZThiOlx4MTF8IVx4MGNceDAwXHgwMFx4YzlcXDlGXHgxMj01XHgwM1x4YTZc|eGIwKlx4MDcrXHhjMlx4MDBceDAwMFx4OTFceGQzLkhceDEyPzdceDAzXHhjMzhceGFkJiJvXHg4|NVx4MDFceDAwQFx4YzlrIVx4MTBceDk3O19ceGU1QXU4XHhmY15ceDE4XHgwMFx4MDBceDk0XHhk|Y1x4ZTIpSFx4ZDJceDFiM2BceGUzXHg4NCpHXHg5Nlx4ODRceDAxXHgwMEApXHg5Nk9ceDgyXHhj|OVx4OWMpXHgwY1x4YzZAWlx4MGUtXHgwYlx4MDNceDAwXHg4MFx4OTJfPFx4MGVceDkyPlx4OThc|eDA4XHR9XHg5Mlx4OGVjIF5VXHhlM1x4ZTFqXHhmN3pceGRiXHhlZnhVXHg4ZSxceDE5XHg4Y1x4|MDFzXHgwM1x4MDMrIGRceDAxXHhkMnZceGJiXHhjNFx4MWNceDE5Mlx4ZDJyaFx4MTlceDA2XHhm|NXdceGU3SkFceDliXHhlY1x4Y2VceDFjXHgwMVx4MDBceDAwXHg4OFx4OGZceGVlXHhjY3BceGE3|e1x4ZDB1XHgxMlx4YjBceGJhW1x4ZWNceGY3XHgxYVx4ZjVceGVkJlwnXHg4Ylx4OTlceDkyRW1c|eDhhXHg4MFx4ZGJceGQ2XHhiOFx4ZTVceDg2XHg3ZipceDE2XHhhYTtceDBmXHhkOFx4YWFceGQx|XHhlOVx4YWFceGJiXHhkN1x4YWJceDdmXCdceGEyXHgwM1x4MDBceGEwXHgwZVx4MDclXHgxMFx4|YjFceDg4XHhiZFx4YjdceGQ1XHhkZFx4ZjlKXHhhZlx4MTNceDgzXHhlZFx4YmZdXHhiZlx4MDFc|eDgzeFx4ZGJceDE3XHhlNlx4ODdceDEzXHg3Zlx4MDBceDAwXHgwMFx4MDBJRU5EXHhhZUJgXHg4|MicKcDQ1CnNTJ3RpcG8nCnA0NgpJMQpzYi4=|#iVBORw0KGgoAAAANSUhEUgAAAEAAAABACAIAAAAlC+aJAAAAA3NCSVQICAjb4U/gAAAACXBIWXMAAA7EAAAOxAGVKw4bAAAE1UlEQVRogd1aTVMjVRS9/foj6XwDISQwBgRlBEahRGrUhbrSssrShXuX/ij/gwtdoRtxMaPWYJWUU6UMCjHMkBBCQpN0+rvbBQwZ7m3HscuyfTmbpE6fun1fdb/zbt/3hHrtQFESwCds25IUJaEkk3FnEh3SxY923nuwvx9vKv8Ii/Pz+VwWrgbwYH8/nUukVPwovtk+OGxqiFxZKK0vTSOy1dU37+zRO33ywRolN+/utTo6IteXplcWSoisN7Wt7QNE+p4DABtrq8MBAEBKTabTKSSVZUWUZEQqiQRVqoZHlQBAlQAgyYoo2YhMhIZVrdCwV2BPucYFGAA0H9XiTiM6GABMTc/GnUZ0MAAQBCHuNKKD+zkgNI+OlGTy3k879w87sqygyzOlXCaFyY5mnHSxCapJuVrO0xvs1tqUrJbzahJ7y0lX72gGIjMpZaaUQ6RhmKoAG2urtmkObfSwqVHDujlXnJseQ6TWM/9onCFyaiLz1qtzNNevv/uNkquL5XIxi8jmaZ+Gna0UaAK6Pjg5vlyduH+FGAD0tG7caUQHA4BUGj9NjsAAQJSkv9X9b8H9HBjaaL2jKwn8ZaNIosjwMud6vuP5iGSCkJBFegPDdimZkEVGVk/H810SVmSCIuGwlmWVMglso+tL07QY/OruHrW2VxbLr7/8HCKb7d6X3/5Kc/304w1KfrH1y/FpH5G3b914bXkGkbWjLjViz3Xe33j+4j/3rxADAL2PP1k4AgMAz3XiTiM6GADkCsW404gO7ufA0IVaXV01PHRZTcpTExlEMkFotnuI7A1sqgQAqgSAbEoBwGI/CKjYMB0a1nWG39PDAWze2aPV6LtvvEBrzJ3dBnXMqYnMR+8s0Vw/+/weJT98+yVajX7/8yENO1sp0LAjV43athV3GtHBAGDA+zpQGMf9MI4wEnOAawzL6cmpfOzV6OrNCiKfUo1elNPcP4GRGEC79SjuNKKDAUCxhL+DOMJIvEJcY2ijP/7ekkhzd7E6MZZTEdlo9+pk4yybUpbnQ1b0H+4/pOTyfClLesb1ptYg5fRYTl2sTiDSME3BdnFXotXR6b5VaBf2+LRPXRwgQ5UXYkrevnWDimuNMypOKhJV6ro4WuX0+dlp3GlEBwOApJqOO43oYACgJDg+asD9HBjaaKtvJUhz13Y9zw8QKYlMFvHI/SCwHNzUAABVCendW47nBzisLDKJhPX8wHZxWNuyquNpbKMrC6VnL6dpF/Y/Lqer46PV3D2PO43oYAAA5HXkCAwA0tmQDWpewP0cGLpQvampKm7RZVLKbKWASJEJtSO8tWyYDlUCAFUCwFhOTRJ79fyAivsDm4Z1Qpu7W9sHoc1dutO/s9ug1vavNHdp2NlK4b03X0TkyDV3n3wi3IEBgOtwvkempjgvp7nG0IUuTpMiGIap6wNEWpZFd2Zdx6ZK+Is9XMM0dR0fILDDwjphYQeGefX/spy+dvQ4CIAcZPA8VxSf9VBLuDgsrOvYtBUSjsD3fBAf19vz1aooiiJ7PIAnla3GYamCm89a5ziVK8rXz13Ypu54kE5fm0JB4J+2W8XJMopw0nw4Wb6ByIHeV9MZNCz9vOMFLJe/tn4Fnq2d64Wxy0XpTDsv5HOtVkvg9Pi95diGYTIh+BMNfzkC73m+swAAAABJRU5ErkJggg==#0#'
p14
sg9
VObscuros
p15
sa(dp16
S'NOMBRE'
p17
VSlavick
p18
sS'BASE'
p19
VMerida#Arial#S#72#100#4#100#100
p20
sS'TEXTO'
p21
S'4294967295#4294243572#4291200098#KGlDb2RlLlFULlRhYlRpcG9zCkZsZWNoYQpwMQooZHAyClMnb3BhY2lkYWQnCnAzCkYwLjgwMDAw|MDAwMDAwMDAwMDA0CnNTJ2Zvcm1hJwpwNApTJzMnCnNTJ2NvbG9yaW50ZXJpb3IyJwpwNQpJLTEK|c1MnYW5jaG9DYXNpbGxhJwpwNgpJMzYKc1MnYW5jaG8nCnA3Ckk0CnNTJ3RpcG8nCnA4CkkxCnNT|J2NvbG9yJwpwOQpMNDI5MjQ0Nzg1MUwKc1MnYTFoOCcKcDEwClMnYTFoOCcKcDExCnNTJ3Z1ZWxv|JwpwMTIKSTUKc1MnY29sb3JpbnRlcmlvcicKcDEzCkw0MjkyNTMyNzM2TApzUydkZXN0aW5vJwpw|MTQKUydtJwpzUydyZWRvbmRlb3MnCnAxNQpJMDAKc1MnYWx0b2NhYmV6YScKcDE2CkkyMApzUyds|aVZhcnMnCnAxNwoobHAxOAooUydwb3NpY2lvbicKUydvJwp0cDE5CmEoUydhMWg4JwpTJ2MnCnRw|MjAKYShTJ2dyb3NvcicKUyduJwp0cDIxCmEoUydhbHRvY2FiZXphJwpTJ24nCnRwMjIKYShTJ3Rp|cG8nClMnbicKdHAyMwphKFMnZGVzdGlubycKUyd0Jwp0cDI0CmEoUydhbmNob0Nhc2lsbGEnClMn|bicKdHAyNQphKFMnY29sb3InClMnbicKdHAyNgphKFMnY29sb3JpbnRlcmlvcicKUyduJwp0cDI3|CmEoUydjb2xvcmludGVyaW9yMicKUyduJwp0cDI4CmEoUydvcGFjaWRhZCcKUyduJwp0cDI5CmEo|UydyZWRvbmRlb3MnClMnbCcKdHAzMAphKFMnZm9ybWEnClMndCcKdHAzMQphKFMnYW5jaG8nClMn|bicKdHAzMgphKFMndnVlbG8nClMnbicKdHAzMwphKFMnZGVzY3VlbGd1ZScKUyduJwp0cDM0CmFz|Uydwb3NpY2lvbicKcDM1CihpQ29kZS5RVC5UYWJUaXBvcwpQb3NpY2lvbgpwMzYKKGRwMzcKUydh|bHRvJwpwMzgKSTE2CnNTJ29yZGVuJwpwMzkKSTkKc2c3CkkxMjgKc1MnYW5ndWxvJwpwNDAKSTAK|c1MneScKSTE2CnNTJ3gnCkkwCnNic1MnZGVzY3VlbGd1ZScKcDQxCkk2CnNTJ3NpTW92aWJsZScK|cDQyCkkwMApzUydncm9zb3InCnA0MwpJMQpzYi4=|#4289353215#4278206043#False#KGlDb2RlLlFULlRhYlRpcG9zCkZsZWNoYQpwMQooZHAyClMnb3BhY2lkYWQnCnAzCkYwLjgwMDAw|MDAwMDAwMDAwMDA0CnNTJ2Rlc2N1ZWxndWUnCnA0Ckk2CnNTJ2FuY2hvJwpwNQpJNApzUydjb2xv|cicKcDYKTDQyOTI0NDc4NTFMCnNTJ3Z1ZWxvJwpwNwpJNQpzUydwb3NpY2lvbicKcDgKKGlDb2Rl|LlFULlRhYlRpcG9zClBvc2ljaW9uCnA5CihkcDEwClMnYWx0bycKcDExCkkxNgpzUydvcmRlbicK|cDEyCkk5CnNnNQpJMTI4CnNTJ3gnCkkwCnNTJ3knCkkxNgpzUydhbmd1bG8nCnAxMwpJMApzYnNT|J2dyb3NvcicKcDE0CkkzCnNTJ2Zvcm1hJwpwMTUKUydhJwpzUydjb2xvcmludGVyaW9yMicKcDE2|CkktMQpzUydhbmNob0Nhc2lsbGEnCnAxNwpJMzYKc1MnYTFoOCcKcDE4ClMnYTFoOCcKcDE5CnNT|J3RpcG8nCnAyMApJMgpzUydkZXN0aW5vJwpwMjEKUydtJwpzUydyZWRvbmRlb3MnCnAyMgpJMDAK|c1MnYWx0b2NhYmV6YScKcDIzCkkyMApzUydjb2xvcmludGVyaW9yJwpwMjQKTDQyOTI1MzI3MzZM|CnNTJ2xpVmFycycKcDI1CihscDI2CihTJ3Bvc2ljaW9uJwpTJ28nCnRwMjcKYShTJ2ExaDgnClMn|YycKdHAyOAphKFMnZ3Jvc29yJwpTJ24nCnRwMjkKYShTJ2FsdG9jYWJlemEnClMnbicKdHAzMAph|KFMndGlwbycKUyduJwp0cDMxCmEoUydkZXN0aW5vJwpTJ3QnCnRwMzIKYShTJ2FuY2hvQ2FzaWxs|YScKUyduJwp0cDMzCmEoUydjb2xvcicKUyduJwp0cDM0CmEoUydjb2xvcmludGVyaW9yJwpTJ24n|CnRwMzUKYShTJ2NvbG9yaW50ZXJpb3IyJwpTJ24nCnRwMzYKYShTJ29wYWNpZGFkJwpTJ24nCnRw|MzcKYShTJ3JlZG9uZGVvcycKUydsJwp0cDM4CmEoUydmb3JtYScKUyd0Jwp0cDM5CmEoUydhbmNo|bycKUyduJwp0cDQwCmEoUyd2dWVsbycKUyduJwp0cDQxCmEoUydkZXNjdWVsZ3VlJwpTJ24nCnRw|NDIKYXNTJ3NpTW92aWJsZScKcDQzCkkwMApzYi4=|###0#0#4294769635##KGlDb2RlLlFULlRhYlRpcG9zCkZsZWNoYQpwMQooZHAyClMnYW5jaG8nCnAzCkk1CnNTJ29wYWNp|ZGFkJwpwNApGMQpzUydmb3JtYScKcDUKUyczJwpzUydjb2xvcmludGVyaW9yMicKcDYKSS0xCnNT|J2FuY2hvQ2FzaWxsYScKcDcKSTM2CnNTJ3RpcG8nCnA4CkkxCnNTJ2ExaDgnCnA5ClMnYTFoOCcK|cDEwCnNTJ2NvbG9yJwpwMTEKTDQyODM3NjA3NjdMCnNTJ2Rlc2N1ZWxndWUnCnAxMgpJNgpzUyd2|dWVsbycKcDEzCkk0CnNTJ2NvbG9yaW50ZXJpb3InCnAxNApMNDI5NDkyMzUyMEwKc1MnZGVzdGlu|bycKcDE1ClMnbScKc1MncmVkb25kZW9zJwpwMTYKSTAwCnNTJ2FsdG9jYWJlemEnCnAxNwpJMjIK|c1MncG9zaWNpb24nCnAxOAooaUNvZGUuUVQuVGFiVGlwb3MKUG9zaWNpb24KcDE5CihkcDIwClMn|YWx0bycKcDIxCkkxNgpzUydvcmRlbicKcDIyCkk4CnNnMwpJMTI4CnNTJ2FuZ3VsbycKcDIzCkkw|CnNTJ3knCkkxNgpzUyd4JwpJMApzYnNTJ2xpVmFycycKcDI0CihscDI1CihnMTgKUydvJwp0cDI2|CmEoUydhMWg4JwpwMjcKUydjJwp0cDI4CmEoUydncm9zb3InCnAyOQpTJ24nCnRwMzAKYShTJ2Fs|dG9jYWJlemEnCnAzMQpTJ24nCnRwMzIKYShTJ3RpcG8nCnAzMwpTJ24nCnRwMzQKYShTJ2Rlc3Rp|bm8nCnAzNQpTJ3QnCnRwMzYKYShTJ2FuY2hvQ2FzaWxsYScKcDM3ClMnbicKdHAzOAphKFMnY29s|b3InCnAzOQpTJ24nCnRwNDAKYShTJ2NvbG9yaW50ZXJpb3InCnA0MQpTJ24nCnRwNDIKYShTJ2Nv|bG9yaW50ZXJpb3IyJwpwNDMKUyduJwp0cDQ0CmEoUydvcGFjaWRhZCcKcDQ1ClMnbicKdHA0Ngph|KGcxNgpTJ2wnCnRwNDcKYShTJ2Zvcm1hJwpwNDgKUyd0Jwp0cDQ5CmEoUydhbmNobycKcDUwClMn|bicKdHA1MQphKFMndnVlbG8nCnA1MgpTJ24nCnRwNTMKYShTJ2Rlc2N1ZWxndWUnCnA1NApTJ24n|CnRwNTUKYShTJ3BuZycKcDU2ClMnYycKdHA1Nwphc1Mnc2lNb3ZpYmxlJwpwNTgKSTAwCnNTJ2dy|b3NvcicKcDU5CkkxCnNTJ3BuZycKcDYwClMnJwpzYi4=|#KGlDb2RlLlFULlRhYlRpcG9zCkZsZWNoYQpwMQooZHAyClMnYW5jaG8nCnAzCkk1CnNTJ29wYWNp|ZGFkJwpwNApGMQpzUydmb3JtYScKcDUKUyczJwpzUydjb2xvcmludGVyaW9yMicKcDYKSS0xCnNT|J2FuY2hvQ2FzaWxsYScKcDcKSTM2CnNTJ3RpcG8nCnA4CkkxCnNTJ2ExaDgnCnA5ClMnYTFoOCcK|cDEwCnNTJ2NvbG9yJwpwMTEKTDQyODE3NDk3NjBMCnNTJ2Rlc2N1ZWxndWUnCnAxMgpJNgpzUyd2|dWVsbycKcDEzCkk0CnNTJ2NvbG9yaW50ZXJpb3InCnAxNApMNDI4OTM5NjQ4MEwKc1MnZGVzdGlu|bycKcDE1ClMnbScKc1MncmVkb25kZW9zJwpwMTYKSTAwCnNTJ2FsdG9jYWJlemEnCnAxNwpJMjIK|c1MncG9zaWNpb24nCnAxOAooaUNvZGUuUVQuVGFiVGlwb3MKUG9zaWNpb24KcDE5CihkcDIwClMn|YWx0bycKcDIxCkkxNgpzUydvcmRlbicKcDIyCkk4CnNnMwpJMTI4CnNTJ2FuZ3VsbycKcDIzCkkw|CnNTJ3knCkkxNgpzUyd4JwpJMApzYnNTJ2xpVmFycycKcDI0CihscDI1CihnMTgKUydvJwp0cDI2|CmEoUydhMWg4JwpwMjcKUydjJwp0cDI4CmEoUydncm9zb3InCnAyOQpTJ24nCnRwMzAKYShTJ2Fs|dG9jYWJlemEnCnAzMQpTJ24nCnRwMzIKYShTJ3RpcG8nCnAzMwpTJ24nCnRwMzQKYShTJ2Rlc3Rp|bm8nCnAzNQpTJ3QnCnRwMzYKYShTJ2FuY2hvQ2FzaWxsYScKcDM3ClMnbicKdHAzOAphKFMnY29s|b3InCnAzOQpTJ24nCnRwNDAKYShTJ2NvbG9yaW50ZXJpb3InCnA0MQpTJ24nCnRwNDIKYShTJ2Nv|bG9yaW50ZXJpb3IyJwpwNDMKUyduJwp0cDQ0CmEoUydvcGFjaWRhZCcKcDQ1ClMnbicKdHA0Ngph|KGcxNgpTJ2wnCnRwNDcKYShTJ2Zvcm1hJwpwNDgKUyd0Jwp0cDQ5CmEoUydhbmNobycKcDUwClMn|bicKdHA1MQphKFMndnVlbG8nCnA1MgpTJ24nCnRwNTMKYShTJ2Rlc2N1ZWxndWUnCnA1NApTJ24n|CnRwNTUKYShTJ3BuZycKcDU2ClMnYycKdHA1Nwphc1Mnc2lNb3ZpYmxlJwpwNTgKSTAwCnNTJ2dy|b3NvcicKcDU5CkkxCnNTJ3BuZycKcDYwClMnJwpzYi4=|#iVBORw0KGgoAAAANSUhEUgAAAEAAAABACAIAAAAlC+aJAAAAA3NCSVQICAjb4U/gAAAACXBIWXMAAA7EAAAOxAGVKw4bAAAGAElEQVRogd1aX4gbZRCf3c3+yV2SSy6989peaeHSlkOutHi1lCpSaKmIJ6IWwaIiKvgg4rs+6rv42iJaqCBiLb2+aAURW8ReUbjS2l57XNr7l8s1m2bzb/9/PtwmuZ3ZE1KhyXZeMvvjt/vNJPvNN5kZTr2fl5UeCKcYei0iKz09vb2dtuThhQ9EXRtcB4P6A2AMg44ZcLv+IACkTMagXiRLO+DYQUu7gZZu4EBdhVqBPEUFs47Baj7Aq/IysdUFdS5gIUa+pmoOtAUM2jroWqClwFUrleYrdO73q66LPa3n5/UCtig2vFOMpxCozU47po7A1OjTCHHNemn2GgKleKp3eCcC9cJSPY+9iW3NvD7x/Jpeq1Yjvke77rHxJ9ENy5dmV2f+RuD2g0/1ZTDz1vUfjWIegXvG38FmqSszV04jMJEc2zH+MgLzU0u5f/DSN/yXwa9QiMRzwDWgtNRZS9qQyiJYhqd7DjAGgtQxg9oVXm7p3h4QFIgpnbHmIaRnU0sP/R7whdEz3/9wIIHPGz4ickIEga5lMnLU8ZLMcfgbcQx8dnAcz0syApnruBZemhMifERE4B8qvPGKF69wGNULyzRiDh2aGNx/FIHZyZMaieW73vpE6X8CgdNffIQQOTW4++1PEVi6M333wikEDowfGTz4AgKVq9fXX4b+FWpEIQe0xc5a0oZUllv5kucAx0E03TGD2hU5Cc1dyTc/xfCEUTHa0kO/B3xh9LsLPz27LYEY9fy8XsBpRmx41wbZKA6aqdEDCHHMujY7jUAxnooN70KgXliq5+cR+Jcz8OaJE2s6DqNiPEVzzFouSyNmavRAX2YPAnOXz9NsdMfE+9gsdWXh5zMITIyM0QcaxRW6tJnet/4y9K+Q54ClQSHbUUPakeIdMGqe7jkQiUPfUMcMalcS20BqBCJvD3AcRMITRoV1mVTo94AvjH791ak9+ixiJEf392X2InB16mItl0XglsPHxVgSgXcnTyJEjCW3HD6OwFouuzp1EYF9mb3J0f0I/PXm/GtHn/PuQmHUMXUaBzmOpzmmY9YpU4wlKZPSACCApq5QJmMuZfLSfd9lg7th5agLhbmtYpTngGPA6u2OGdSulObAqHq654CgwODujhnUriRHQIl5euijUOgd8IXRs79dCSotnl+9+gsCt7/4Hs29bn3zWUBp8eMvEaKrKzOnP0dgYmSMpn35qYu5y5MIvJHe9+4HH67ptWo19L9AywHb+A9ad4ljQrOI3gqjxXsdM6hdKd8jtVFBhgFcne9eSWZAbmSjod8D/gaHWdfVFcTgOF5ODSLQCWLSTA4AKM2qPKAPFKQoZTLmBjF9eb/PgdLsNdo7GTo0QSuB2cmT9H/t/ywt0tg6MH4kYOnHtrS4URuwC8XQwGmUxlsdGou0ULtWmA2O5eneHuAjEMdvb/eK0t/SQ78HfFFIiqcSyTHEYK5TuhNQCUyMYGYtlzVIKKQ0QYrSB1rlImVyvBDE9G1WnwO9wztpt3n50nnaO3lk2ShdupLeB3CseRn6V6jR6LahSqY7ulaMEjRnMtb9AmTopGvFNqDZvGyF0d5NG97QbdK7Lj8K/R7w/Sf+9uy5g/2Y4doWIzNUvChxvICZpsFIeUyQowhhzHVN/PeP4wVexNMazLFd20Lgn5p04virazouLdbzC3Q+Z+jQBO02P7JG9+ZnXkJg9LHNRumgW9dKeQGab2qj0S2AjNuT3StKCriG3toDUniGR8V1poZ+D/iiUGxr5gZhzKl4wgUAqs4A6tcCwOLNedR9AIAioQmSkiUPtMpahTAVTYoSJs/7vnTfOdAUowQMQOnzgaUs9GwG0T+qVFMhmgKO84GF25D2V5mYC6VFSG7zgwzKi5AY9i9dBubipbV5UNIgNUa8Va1iWDYDFhPJKJbnlgBk9ArkBJCzKwABAAUPIQDHgUKCROCIDLPBJqPH0X6fPYZlb04nGWNzC0vBDkixAFAhhzSQX2lNAtIqLpgp4mM6wHnw71oAYMAYY3XDjMpSxNBrAXd0t8REYW5hKSpLigD/Apilhsc3SYCCAAAAAElFTkSuQmCC#0#'
p22
sS'SECCION'
p23
VClaros
p24
sa(dp25
S'NOMBRE'
p26
VMadera
p27
sS'BASE'
p28
S'Staunton 3D#Arial#S#72#100#4#100#100'
p29
sS'TEXTO'
p30
S'4294967295#4294769635#4291672985#KGlDb2RlLlFULlRhYlRpcG9zCkZsZWNoYQpwMQooZHAyClMnb3BhY2lkYWQnCnAzCkYwLjgwMDAw|MDAwMDAwMDAwMDA0CnNTJ2Zvcm1hJwpwNApTJzMnCnNTJ2NvbG9yaW50ZXJpb3IyJwpwNQpJLTEK|c1MnYW5jaG9DYXNpbGxhJwpwNgpJMzYKc1MnYTFoOCcKcDcKUydkMmQ2JwpwOApzUydhbmNobycK|cDkKSTQKc1MnY29sb3InCnAxMApMNDI4OTM3NDg0N0wKc1MndnVlbG8nCnAxMQpJNQpzUydwb3Np|Y2lvbicKcDEyCihpQ29kZS5RVC5UYWJUaXBvcwpQb3NpY2lvbgpwMTMKKGRwMTQKUydhbHRvJwpw|MTUKSTE2CnNTJ29yZGVuJwpwMTYKSTkKc2c5CkkxMjgKc1MnYW5ndWxvJwpwMTcKSTAKc1MneScK|STE2CnNTJ3gnCkkwCnNic1MnZGVzdGlubycKcDE4ClMnbScKc1MncmVkb25kZW9zJwpwMTkKSTAx|CnNTJ2FsdG9jYWJlemEnCnAyMApJMjAKc1MnbGlWYXJzJwpwMjEKKGxwMjIKKFMncG9zaWNpb24n|ClMnbycKdHAyMwphKFMnYTFoOCcKUydjJwp0cDI0CmEoUydncm9zb3InClMnbicKdHAyNQphKFMn|YWx0b2NhYmV6YScKUyduJwp0cDI2CmEoUyd0aXBvJwpTJ24nCnRwMjcKYShTJ2Rlc3Rpbm8nClMn|dCcKdHAyOAphKFMnYW5jaG9DYXNpbGxhJwpTJ24nCnRwMjkKYShTJ2NvbG9yJwpTJ24nCnRwMzAK|YShTJ2NvbG9yaW50ZXJpb3InClMnbicKdHAzMQphKFMnY29sb3JpbnRlcmlvcjInClMnbicKdHAz|MgphKFMnb3BhY2lkYWQnClMnbicKdHAzMwphKFMncmVkb25kZW9zJwpTJ2wnCnRwMzQKYShTJ2Zv|cm1hJwpTJ3QnCnRwMzUKYShTJ2FuY2hvJwpTJ24nCnRwMzYKYShTJ3Z1ZWxvJwpTJ24nCnRwMzcK|YShTJ2Rlc2N1ZWxndWUnClMnbicKdHAzOAphKFMncG5nJwpTJ2MnCnRwMzkKYXNTJ2NvbG9yaW50|ZXJpb3InCnA0MApMNDI4OTM3NDg0N0wKc1MnZGVzY3VlbGd1ZScKcDQxCkk2CnNTJ3NpTW92aWJs|ZScKcDQyCkkwMQpzUydncm9zb3InCnA0MwpJMQpzUydwbmcnCnA0NApTJ1x4ODlQTkdcclxuXHgx|YVxuXHgwMFx4MDBceDAwXHJJSERSXHgwMFx4MDBceDAwIFx4MDBceDAwXHgwMCBceDA4XHgwNlx4|MDBceDAwXHgwMHN6elx4ZjRceDAwXHgwMFx4MDBceDA0c0JJVFx4MDhceDA4XHgwOFx4MDh8XHgw|OGRceDg4XHgwMFx4MDBceDAwXHRwSFlzXHgwMFx4MDBceDBlXHhjNFx4MDBceDAwXHgwZVx4YzRc|eDAxXHg5NStceDBlXHgxYlx4MDBceDAwXHgwMlx4MDBJREFUWFx4ODVceGVkXHhkNFx4Y2ZLXHgx|NVFceDE4XHhjNlx4ZjFceGVme1x4ZTZceGRlXHhkNkFceGNiXHhmZVx4MDZpIVx4MTFtXHhjYVVc|blx4OTFceGE0XHhkOFx4YjlceDkzVFx4YTBceDkwXHhkMFx4YzZoXHgxMVx4ODIwM1x4Y2RceGI4|XHg4OFx4ODJceDg4XHhkY0RceDk5XG4uZFx4ZTZceDhjXFxceGZiXHhiNVx4YThWRiBceDA0bVx4|ODRceGZlXHg4OGhceGQ1Vlx4YjhceGY3XHhiYy1ceGQ0XHgxMG1jXHhlNFx4YjFFXHhjZlx4ZWU9|XHhiY1x4ZjB8OFx4OGJceDE3XHhmZWdPVFx4OTFceDkwfWZceGY3XHhlMFxcXHhkMltceDk2XHhj|OVx4OTMjXHgwM3hceGNmWFx4YTNhXHhjNlx4OWRLXHhkN0JceDAxXHhmNn1ceGI3c1x4ZTlceDlh|XHhmN1x4ZjRceDFhXHhjM1x4YmFceGI1RVx4ZmZhXHgwM1x4Y2NceGRlXHgwN2tceDhiPmNYV1x4|OTVceGIzXHhjZVx4YTVceGFmXHg4Mlx4MDNceGI2XHgxMVx4ZmRceGEwa0BfVWUuOFx4MDBceGEw|XHhkNSpceDA2VVx4ZTVceGJkXHgwOFx4MTdceGVhOltcblx4MGVceGQ4Qlx4ZTRceDE2XHhmNFxy|MFx4ZThcXFx4ZjI8OFx4MDBceGMwXHhkYVx4ZTJceGJhXHhhYXdceGRlXHg4Ylx4YWRceGVibDY4|YFx4MGIxM1x4MTFFXHhiMlx4YTRceGNhXHJceGU3XHg5Mlx4ODdceGMxXHgwMVx4MDBXXHhhZVx4|ZTRceDkzXHhkZVx4ZWJceDFjXHhjOERZZkVwXHgwMEBceDFjXHgxN3dceGJkXHg5N1ljXHg5OFx4|YWNceGViZFx4ZmFvXHgwMFx4ZmVceGU4XHhlZVx4ZDd1Mlx4YWRceDFhTVx4YTlceGZhe1x4YWRW|XHhmMTg4XHgwMFx4YTBceGFhXHhkMjtALlx4YzJceDk0XHhiNVx4YzVceGQzXHhlMFx4MDBceDAw|XHhlN1x4ZDJbIFx4MGZAb1tbLFx4MDZceDA3bCNceGM2RFx4OThceGVkdlx4ZTVmXHgxY1x4ZTdl|cFx4MDBAVVx4YTVXRWRceGNlXHgxOFx4YWVceDhkXHg4Y1x4ZTQvXHg4M1x4MDNceDAwVlZceGIy|XHhjYlx4ZGVceGViMlx4YzhceGIwXHhiNVx4ZjlceGJiXHhlMFx4MDBceDAwXHhlN1x4YjJceDAx|VV1tNnVgeHhceGU2Y3BceDAwQFx4YmJceDlkXHg5Y1x4ZWZ0XHhlNENceGE3XHhhM1x4ZTdGR2c+|XHgwN1x4MDdceDAwLC9cJ2dceDFhXHJceGY5XHhlNH1ceGUzdFx4MWNceGE3XHgxYlx4YzFceDAx|XHgwMGVZXHg5Y1x4MTJceGYxX1x4YTJoXHhiM1x4YTdceGRibVx4Y2VceDhiXHhkMFx4YjZceGI2|eFx4YjR3XHhlZkBceGE3XHhmOCBceDg5XHhlM3QjXHg4YTZ7XHhiYz9ceGY2VVx4YzQ/U1x4OTVc|eGZiXHhiZlx4ZGI7NFx4MDBAXHhiN1x4ZGJceDljXHhmN1x4YmU7XHgwZWZceGQxXHgxOFx4YmVX|VVx4YjZceDEwXHgxNCBCXHhkYlx4OThceGU4XHgwNVx4ZjBNXHg5NVx4OTMiXHg4Y1x4ZWRceGRi|OUxceGMwTlx4YWEqW1x4ZDgpV1x4ZDVceGI3XHhhZFZxKShgXHgxN1x4ZTRceGI1XHg4OF5sNlx4|ZTVceGM0XHhkMFBceGZlI2RceGY3XHhhZlx4YWNceGFlZlx4YzdceDhmXHhhNFx4ZjhceDlmXHhj|ZE9ceDhiI1x4YzIgXHg4M1x4YjFtXHg5ZVx4MDBceDAwXHgwMFx4MDBJRU5EXHhhZUJgXHg4MicK|cDQ1CnNTJ3RpcG8nCnA0NgpJMQpzYi4=|#4286212691#4289374847#False#KGlDb2RlLlFULlRhYlRpcG9zCkZsZWNoYQpwMQooZHAyClMnb3BhY2lkYWQnCnAzCkYwLjgwMDAw|MDAwMDAwMDAwMDA0CnNTJ2Zvcm1hJwpwNApTJ2EnCnNTJ2NvbG9yaW50ZXJpb3IyJwpwNQpJLTEK|c1MnYW5jaG9DYXNpbGxhJwpwNgpJMzYKc1MnYTFoOCcKcDcKUydkMmQ2JwpwOApzUydhbmNobycK|cDkKSTQKc1MnY29sb3InCnAxMApMNDI5Mjg2MTg2M0wKc1MndnVlbG8nCnAxMQpJNQpzUydwb3Np|Y2lvbicKcDEyCihpQ29kZS5RVC5UYWJUaXBvcwpQb3NpY2lvbgpwMTMKKGRwMTQKUydhbHRvJwpw|MTUKSTE2CnNTJ29yZGVuJwpwMTYKSTkKc2c5CkkxMjgKc1MnYW5ndWxvJwpwMTcKSTAKc1MneScK|STE2CnNTJ3gnCkkwCnNic1MnZGVzdGlubycKcDE4ClMnbScKc1MncmVkb25kZW9zJwpwMTkKSTAx|CnNTJ2FsdG9jYWJlemEnCnAyMApJMjAKc1MnbGlWYXJzJwpwMjEKKGxwMjIKKFMncG9zaWNpb24n|ClMnbycKdHAyMwphKFMnYTFoOCcKUydjJwp0cDI0CmEoUydncm9zb3InClMnbicKdHAyNQphKFMn|YWx0b2NhYmV6YScKUyduJwp0cDI2CmEoUyd0aXBvJwpTJ24nCnRwMjcKYShTJ2Rlc3Rpbm8nClMn|dCcKdHAyOAphKFMnYW5jaG9DYXNpbGxhJwpTJ24nCnRwMjkKYShTJ2NvbG9yJwpTJ24nCnRwMzAK|YShTJ2NvbG9yaW50ZXJpb3InClMnbicKdHAzMQphKFMnY29sb3JpbnRlcmlvcjInClMnbicKdHAz|MgphKFMnb3BhY2lkYWQnClMnbicKdHAzMwphKFMncmVkb25kZW9zJwpTJ2wnCnRwMzQKYShTJ2Zv|cm1hJwpTJ3QnCnRwMzUKYShTJ2FuY2hvJwpTJ24nCnRwMzYKYShTJ3Z1ZWxvJwpTJ24nCnRwMzcK|YShTJ2Rlc2N1ZWxndWUnClMnbicKdHAzOAphKFMncG5nJwpTJ2MnCnRwMzkKYXNTJ2NvbG9yaW50|ZXJpb3InCnA0MApMNDI5MjUzMjczNkwKc1MnZGVzY3VlbGd1ZScKcDQxCkk2CnNTJ3NpTW92aWJs|ZScKcDQyCkkwMQpzUydncm9zb3InCnA0MwpJNApzUydwbmcnCnA0NApTJ1x4ODlQTkdcclxuXHgx|YVxuXHgwMFx4MDBceDAwXHJJSERSXHgwMFx4MDBceDAwIFx4MDBceDAwXHgwMCBceDA4XHgwNlx4|MDBceDAwXHgwMHN6elx4ZjRceDAwXHgwMFx4MDBceDA0c0JJVFx4MDhceDA4XHgwOFx4MDh8XHgw|OGRceDg4XHgwMFx4MDBceDAwXHRwSFlzXHgwMFx4MDBceDBlXHhjNFx4MDBceDAwXHgwZVx4YzRc|eDAxXHg5NStceDBlXHgxYlx4MDBceDAwXHgwMVx4ZTlJREFUWFx4ODVceGQ1XHg5N0FuXHhkM0Bc|eDE4XHg4NVx4ZGZzXHgxY1x4ZDFceDg4XHJceDAyIVRceDE2TSxXXHhlY3pceDAyJC5ceDgxXHgx|NFx4ODVUQmJceDg1KFx4MGJgUVx4ODlceDBicFx4MDBWXHgxNVx4MDdIXHhlNUZceGFjXHhiOFx4|ODA3XHhlNVx4MDhZXHhiNlx4MTN1XHhkNUpddFNceDkxXHg4NWdceDFlXHgwYlx4MTNsIElceDFk|XHhjYjZceGYwVlx4YTNceGY5XHhmZlx4ZjFceGZmXHhkOTNceGYzZlx4MGNceGZjS1x4OTJESWxc|eGIyXHhlNlx4Y2ZiXHhkM1x4ZTlceGU4XHhhOXNceGRlXCdSXHhjZTlceGVjXHg4NVx4ZTFceGYw|c1x4MTNceDAwXHgxZVx4OTBceGJleVpceDFjXHhmN1x4MDBceGRlXCd5ZEw0aFx4MGNceDAwXHgw|MEhceGI5XHhhY1xyT1x4ZDJceGE4XHRceDA4Ly1IOVx4ODc9XHRceDhkQ1x4ZmNceGIyXHhlMFx4|OGNceDg5XHgwNlx4OTJGZFx4ZjZlJDhceDkyXHhiYkEwXHg4OGpceDA3XHhmOFx4MWJceDEwXHgw|Ylx4YjdcXFx4OTNceDEwS1x4Zjd8U1x4MTArTVx4YTdcdFx4ODhceDFiXVx4YWZuXHg4OEJceGI2|W1wnRGFceGRmXHhhZlx4MGJiXHhhZFx4ODNnXHgxMVx4MDRceGEwXHg4NFx4ZjRceDFmXHhmNXp9|U1x4MDZceGMwXHhiYjklU1x4MTBceDBjIlx4OTJceGJieVx4YzdceDA0XHhlOFtceDlibFx4OTcp|XHhiZTZAXHgxZVx4MDJQXHgwMlx4MDBceDEyJlx4ZWRceGI2XHg3ZlxcXHgxNlx4YTBceGY0XHhk|OT9ceDlkXHg4ZVx4MDNrXHg5M1x4ZWR2XHhkYj9ceGRlXHhkYVx4ZWFceDdmK1x4ZmJceDljXHhj|YVx4MTVceGM3XHhiMS9ceDhkW0VceGYzXHhkN1x4OWVceDgyVTImelx4ZDFceGVkXHg5ZV9ceDE5|Yy9PT1x4MGZceGZiRVx4YzZUdlx4ZmRceDhhXHhlM1x4ZDhceGVmdlx4Y2ZceGFmSFx4ZGNceDA2|XHg4YW9ceGQxXHhjYVx4MDBceGE0cVx4Y2JceDE4e0lceGUyTlx4ZDZceDA3R1x4ZTJceDAwXHhk|MFx4OGVceDg0SVx4YTdceDkzXHhlY29uPlx4YmZceGNlXHg4Zlx4YWJsXG5ceGM4XHhiZVx4MDVc|eGY0XHhmMlx4ZjdLXHJceDgwXHhkN1x4MDBceDlmXHg5MHw1XHg5Ylx4ZjlceDFmXHhmZVx4MThX|XHgxNVx4YzBcXFx4OGJceGNkKlx4OTVceDg0XHg5OVx4YTReXHgxOFx4MGUvXHhlNn1ceDk1LkJg|XHhlZVx4MTM4WFx4MTQjXHhiMVx4ZTF5eFx4OTdceGVmXHhhYlx4MWMgXHg5NXZceDk2RUhceGJl|OTtceDFiXHhkZlx4YWRceDE1QFx4YzJkRWxceGMzWlx4ZmJceGE1Vlx4ODBOXCdceGQ5XHgwN1x4|ZjRRXHhjMmxJXHhjYVx4ZTN5XHhhM1x4ZDZceGRmXHhiMFx4OTNceDkzXHhjM1x4MDc/XHhlNlx4|ZmMtXHhjMFtceGY5WFx4MTA8I1BceGRiXHgxYUhceDE1XHg4Nlx4YzNceDhiIFx4MThceGJlb1x4|YjVceGZjXHg4N1x4MDBceGJlZlx4MTF3VGdceGRkXHhmZktceGRmXHgwMVx4Yzg8XHgwOGApIVx4|Y2ZGXHgwMFx4MDBceDAwXHgwMElFTkRceGFlQmBceDgyJwpwNDUKc1MndGlwbycKcDQ2CkkyCnNi|Lg==|#iVBORw0KGgoAAAANSUhEUgAAADQAAAA0CAYAAADFeBvrAAAAAXNSR0IArs4c6QAAAARnQU1BAACxjwv8YQUAAAAJcEhZcwAADsMAAA7DAcdvqGQAAAhESURBVGhD3ZjrUhxHDIX3/R8tF1fFBHAFggHbUL5gO/EDEH06Ot2a2YUFg6tc+aHq1qWl8/XMji+btycvb9/89cct67vTP2M9uL189SJj9l2jOvwZY3/9+vj27PCX9Nn7PMaeHCtnzo9/G/nXR7/eXh6/SCPn2VkTMebP3MtVrXx60J+VngF0kBsK1kBXfy+B1Ohg1CkmIBqS70A5NPYpPFZqL45/r/3LEbdPnv0CaOTUa+0biDPMTCA3A4AmFmN/1gh6GQug8+Ns6P0cKmgPs0DlDyS8+c4bmvnOYb3WPj2A4gwzNxbHenV2WE+lAMufAILuMdb3F6+yOfsJpFp6aZh8coazCAzf9flqRZ3ryWHs1z49fDHM2Fgc69XZUUJYqH3XKBb+Kvbh8q8USbzDudf0j1Jwh3MPz896A+V5vSmY4btPnZ8ofTYWx8r7T1MPsD9qsg5/CfrhzUkKIT7g6jz57s/LOhxx93U94lJ41KivLpH92qcWc68AKnE0jNeFdQCFv4AKw1/Eou7j25M8Q3wBRL9YLQ7fvTnfb1v9NHsIjDP7gKjr9VtAKTYHSMASSLe4DXQqoKjvQLx+1AhI/ROI3tGji3Pv7wXypW0QkMJLDKsO6PVhCMIkTreY9QmlpgD5ljlDjLz7UuczzvGa+uJ81jV+illXGmadYOwDQk9f1ABC8ATSbTHUTbeAsu4wG316d7YQQIz9rJtidwKltYsi3vp51rJevoGcWwLFkPSjET43T46Y484NwGj06SqAolnWllD3lJijsU/YWPnddWEGYu1PKM/FOuqytgPV06keGwRwCMEMGX6sCGVIgoaxT9+AKeCwgCTaQt3TgrxnsOrisiw0bccTqlmeI9GqtT9hFN8kBAJDMEPssyI0hRUQe4mhVj5Nbq5ej+G8fgmQ/VRjIIzB5HxZFkdN1hIrgdkzanudVhu+LS4kemwQIIGnOYRVYk5TaAewKIGrjmE31+dZ14W6J/UWhjGYHHWZ44mUGNdapHuyTgjV+twiFmc3NAYqrfY0MZAASlyJcj1xht1cX4w6eugS4oLoVSLJcZbBo3f5KQjoqO3i1Wc+5SG8zHXpx/kEonGCNDPABJpPZABVHU0SKOL4nCFm6AlRQJHLuniqhrUg8h3Il5R1BTDEs3aLGGcFlLetV05Cdbszp5tnz2EL6pAWLPi5uh5/CI26cSErQYi34VNHfa8zGPm1bRA2IBDd9pnrsABFQ4SsgQTTTU+VwY4JaH4UiHUYbA2Ub8njgC6G2Fzb3jmE5dOKPYfSJ5ewu0FsApp7xFDnvnfB2BZAUZvGPmxX/ebz+0tBABCHLRwbuRDuJ8lgfOcs1paX0QwBfW9A912A1JNOq5jehABq4AYb55ptvoQwQ3DYwoktcxe5Zxg+OYtaGLFmeQFtb0D3TSEFgfDdQKcDhpjhep1t8+XDW4HEgBRdwok5x2CeCHua4GeuRN1nDOl7A7rvfFWndSj0GMiiDbfrbAEBcp6iLZzYyIVwxWmuT/N9QHkhZQhznQVlTfWVkP7aSlgH4on6LHHDubbb5uvHu4FGLgbn6xd7huIrp1vuRq4bQ7y3yCVQh5lQrkXPACJW8XuBDPL147u06Us0g/+9uc6V9xc48gKfUIjMeNT594TA9HMfr2vE3T/PhW8ImaD8JNDjGuoN5bP+TXodQIg0kAX3J2QghiyB6rMftgCq2F1A9HCNBafo2MvXk9gFlH3qHHrYe00gmvObGECxF+AKKPY0nEC8qvcDMdRP2UA5L2zUVF33AWDWPiCgM15rAk0TUI8hkEKA2NOsAxkAY0+uv4bYBJKovLAw53rtsIQooPJZDeRL8x4g1gIyyNr0pDgIED6NDTQAohHGPr9+9dQ8VE8yhJcoA+W5giXuM/a5gH8+XSlXZwFYAvG3Fv3hyzqAOGiQuZ83+e3mfcbY6ynEZ91AiArrQF2Yn6ZFaeY2kM/YXwMRF1D/Xe4A4tAaSL4GcxAgYim8RI+brifAnnoBCJKzAyj2CHFf11ic87kPgAVQ5QZQ9TbIFpBeKQGxfzyQfOo7ECK2gTSn13TRuU+gk4cBVZw1gNR8aRJqsQhi7+a5xkADJ1A0c53F21zDvr+m1DPP4qhxDtF8ADwT30/Ns9jbyFH3fEAhov+GUmAMZv0eoK0nhOA7gJzDfhgQQy10P5DrC4iLKPHMss95A1ELsEFsTwYaAIhpZzz0MUD42AAIuw+IV5JYWtU/HSjFzRqd0Y+dHPX7gBKifNfZPNNArHcBAftkIItApM8JSE+M+n1A8jXHdRjCyadvIOJ11l82538AkP4eaCDy1D8EiL166XeHsc9LKbEzLk0J5PpnB4o8Z3XmkUBxhr16dSBdFEI7UOqpeM6q3xiA+Z8k/oPUor03GE1cI6Hz30z4rNTeBySBivtVwifnXn5SFu48+/yixeqZBtFePcnvAZJACtdA86afH8jidgHl+eoxgQRHPv/XB7EWuQUUMR6n4xIv4RI/X8mfGohGdwHNfBPTLsCD8BliUXuBuCTOl0BqiXHWn2gBqMf0O1Ac8D8NaMq6C2i8luH3/BJI4p4FKMwxziZQ6HCOmHo+AigBquFuIAnwYIt7ElCYRdLb8x8ChMVnewJZRAeyGP/zwUAGyKFNjIFYnwakTzY+IPl/Bs8DFPEo/PZ5GyiNoTaLKSDqngRU/R8EhAHEAV4nDiMAsxiGYRwyIHWI0YdEe3qQI0ZTQxDDN7CH0s8QAlN/Xx7nNSdmU1+xBKp+nBFg+6tS7NtX7v8CFActjtVAiumvQR740wEVROZqvxOIAz8lUIrW14+zhpi5i9v/AAfpw974bKdjAAAAAElFTkSuQmCC#iVBORw0KGgoAAAANSUhEUgAAADQAAAA0CAIAAABKGoy8AAAACXBIWXMAAA7EAAAOxAGVKw4bAAAFGUlEQVR4nM1ZUbbkKAgFNNZb2GxkFjSrfR9vKirMBy8UhcZUV/fpHj9yDCJeL4ia4D9//yUiiEhEItJ7R8SUkhwFAIgIAPQVMW3b9vn5WUq53W5fX1/aysyttW3biKjWSkRHJQNASgkRe++9dyLatq3WmlICgN67KmiduSmebdsIEWEoXqh1RAxCk9tr0Bw7jmbPFLSS16anfdCV8DotwezrQ+RF5ymRqkJE3pyGhMnPwAWS8JngEcYPgxP5RmP4AhRrsrpNgJmnxP96cAEQM09p076h6R3mdG0OfgzBMZnAFNNRBAAQBUAQBVEAWCuu6fE0GIiYA4g1bV4ygvPCwNPUzlmxXjnnrKGgrjE39d4t94iIpTqLG/UjEWlSVGVdGaqfc9YcpmsFEXP+Tg6a6nrvFgwKS7ubhMK0QlhMCRtjZc3Nmc6CS7Q8Z+8GPKzEZ2TzCLNAAYChRRAJUUQYgI9A1LoAaDgqUPEj5hAcdJTAjbWa60MJM7HwEOnBLcE/9mrTs6YILrx6WOCiR6m1mSCihpdZcPSj9QrhcTJ/l0pCkgxAR+aILvarwJwuIBUqygUyVYzgPOdhfsHEApNHMKV/KjHEfmj0bl3gG141haI+LcC1DkciVfnxfOAePTvw+tDPhCLAx4ICIEAEQilbYuacMzPc7/dEsG0FpGOm/f6ViACYey1bAmAQ5t5uJQPAvu8giIDCLSeszIiACCA9ESZKACDCZdtqZWEBBERg7vS9gAyxUGBrdOVI4cHfE1W6/6jE5FOHnNuMZbLx22uInhBG4wDBArgYhcGJ570eTTl0PkNzCW5txyuHfLag8CVw44HnPXC2IMYuLhf+RuYsVXkQPn3gwq1j87SCz+QH06Y2dRk6h+JzQgnMBbde3L7OSJ0y58c7Y3c9RAQHx96Vc84523lE53e73Zi51mqHMzuxpZTcZZOtFyKqKUT0cn9sEZFt2wAgpWSHvFIKEbXW7JnHeZiV6andu29sHTl7hV0YwkNLDtoTxx8nqNEXwfrCa+PwZ3PzmSHDcRwKPUN0TxVCCIapwxEw5tzRwrSjlUfMeeC+Z0ppenIJIKZwg6kw9pQ8r/BwawhYP56dNP0JOZheO2sqmU7Al9OYs0q4UsBzQre+Y/YKQ1qSW9yOEVGEr8H58c6mu5Cc8XRp2Vq/HcXceq96BW9tb20H4N5rKXnf/0UUkV5Kbm0nAiJQiUjXG5TWRXrOpEa2LTG3Wu8pYSlFgWpKszSpQmbWL4La1Hsngt5rSijSaTGDRbmMsBf7TjtanLwJ7mywS4VwvfX4PKNafhjcWfJ7ZQ5nS8Eb95bfB+fN+TQ+hWWe8t+f1/N8x62jxffcyswh+4TcBG8w54ec1qdqYy5UcKOjfyrmLtG8ojxmY8/ZY7W21jTHMLM/XaWUaq2lFABIKfXeSyn6rS6Q7xHoVz39J6FnQS1w7ODHNiD2YU9Ecs76C0RPgdqUc54zN53rZWy9xyK4LcG/gh3T/f8a0wjH1xDX6y3ol5Qc3kOmsRICwkN8kdGQeEc6YNhzH58jpmQEQCOyS0xTlKOdqbXTmDujakrSi7E4tblQflwNA/ZxBYScdLkXLUadjgijW6fSKTgYFtTP4FuHhBokzdTM/PHxQUT7vusVVVPR/X5XVzKznsz0rlpKKaVoDtN/qaqjt1H9u6B/XRWHXnJrrZoIEbG1llJSfVNQxGp2cuf7X5WnP5NW+VNYw7gxz/1mWCH5hdb/AOPaIMq31+o1AAAAAElFTkSuQmCC#0#0#4293322192##KGlDb2RlLlFULlRhYlRpcG9zCkZsZWNoYQpwMQooZHAyClMnb3BhY2lkYWQnCnAzCkYxCnNTJ2Zv|cm1hJwpwNApTJzMnCnNTJ2NvbG9yaW50ZXJpb3IyJwpwNQpJLTEKc1MnYW5jaG9DYXNpbGxhJwpw|NgpJMzYKc1MnYW5jaG8nCnA3Ckk1CnNTJ3RpcG8nCnA4CkkxCnNTJ2NvbG9yJwpwOQpMNDI4Mzc2|MDc2N0wKc1MnZGVzY3VlbGd1ZScKcDEwCkk2CnNTJ2ExaDgnCnAxMQpTJ2ExaDgnCnAxMgpzUyd2|dWVsbycKcDEzCkk0CnNTJ2NvbG9yaW50ZXJpb3InCnAxNApMNDI5NDkyMzUyMEwKc1MnZGVzdGlu|bycKcDE1ClMnbScKc1MncmVkb25kZW9zJwpwMTYKSTAwCnNTJ2FsdG9jYWJlemEnCnAxNwpJMjIK|c1MncG9zaWNpb24nCnAxOAooaUNvZGUuUVQuVGFiVGlwb3MKUG9zaWNpb24KcDE5CihkcDIwClMn|YWx0bycKcDIxCkkxNgpzUydvcmRlbicKcDIyCkk4CnNnNwpJMTI4CnNTJ2FuZ3VsbycKcDIzCkkw|CnNTJ3knCkkxNgpzUyd4JwpJMApzYnNTJ2xpVmFycycKcDI0CihscDI1CihTJ3Bvc2ljaW9uJwpT|J28nCnRwMjYKYShTJ2ExaDgnClMnYycKdHAyNwphKFMnZ3Jvc29yJwpTJ24nCnRwMjgKYShTJ2Fs|dG9jYWJlemEnClMnbicKdHAyOQphKFMndGlwbycKUyduJwp0cDMwCmEoUydkZXN0aW5vJwpTJ3Qn|CnRwMzEKYShTJ2FuY2hvQ2FzaWxsYScKUyduJwp0cDMyCmEoUydjb2xvcicKUyduJwp0cDMzCmEo|Uydjb2xvcmludGVyaW9yJwpTJ24nCnRwMzQKYShTJ2NvbG9yaW50ZXJpb3IyJwpTJ24nCnRwMzUK|YShTJ29wYWNpZGFkJwpTJ24nCnRwMzYKYShTJ3JlZG9uZGVvcycKUydsJwp0cDM3CmEoUydmb3Jt|YScKUyd0Jwp0cDM4CmEoUydhbmNobycKUyduJwp0cDM5CmEoUyd2dWVsbycKUyduJwp0cDQwCmEo|UydkZXNjdWVsZ3VlJwpTJ24nCnRwNDEKYShTJ3BuZycKUydjJwp0cDQyCmFzUydzaU1vdmlibGUn|CnA0MwpJMDAKc1MnZ3Jvc29yJwpwNDQKSTEKc1MncG5nJwpwNDUKUycnCnNiLg==|#KGlDb2RlLlFULlRhYlRpcG9zCkZsZWNoYQpwMQooZHAyClMnb3BhY2lkYWQnCnAzCkYxCnNTJ2Zv|cm1hJwpwNApTJzMnCnNTJ2NvbG9yaW50ZXJpb3IyJwpwNQpJLTEKc1MnYW5jaG9DYXNpbGxhJwpw|NgpJMzYKc1MndGlwbycKcDcKSTEKc1MnYW5jaG8nCnA4Ckk1CnNTJ2NvbG9yJwpwOQpMNDI5MTUy|ODU0OUwKc1MnYTFoOCcKcDEwClMnZDJkNicKcDExCnNTJ3Z1ZWxvJwpwMTIKSTQKc1MncG9zaWNp|b24nCnAxMwooaUNvZGUuUVQuVGFiVGlwb3MKUG9zaWNpb24KcDE0CihkcDE1ClMnYWx0bycKcDE2|CkkxNgpzUydvcmRlbicKcDE3Ckk4CnNnOApJMTI4CnNTJ2FuZ3VsbycKcDE4CkkwCnNTJ3knCkkx|NgpzUyd4JwpJMApzYnNTJ2Rlc3Rpbm8nCnAxOQpTJ20nCnNTJ3JlZG9uZGVvcycKcDIwCkkwMApz|UydhbHRvY2FiZXphJwpwMjEKSTIyCnNTJ2xpVmFycycKcDIyCihscDIzCihTJ3Bvc2ljaW9uJwpT|J28nCnRwMjQKYShTJ2ExaDgnClMnYycKdHAyNQphKFMnZ3Jvc29yJwpTJ24nCnRwMjYKYShTJ2Fs|dG9jYWJlemEnClMnbicKdHAyNwphKFMndGlwbycKUyduJwp0cDI4CmEoUydkZXN0aW5vJwpTJ3Qn|CnRwMjkKYShTJ2FuY2hvQ2FzaWxsYScKUyduJwp0cDMwCmEoUydjb2xvcicKUyduJwp0cDMxCmEo|Uydjb2xvcmludGVyaW9yJwpTJ24nCnRwMzIKYShTJ2NvbG9yaW50ZXJpb3IyJwpTJ24nCnRwMzMK|YShTJ29wYWNpZGFkJwpTJ24nCnRwMzQKYShTJ3JlZG9uZGVvcycKUydsJwp0cDM1CmEoUydmb3Jt|YScKUyd0Jwp0cDM2CmEoUydhbmNobycKUyduJwp0cDM3CmEoUyd2dWVsbycKUyduJwp0cDM4CmEo|UydkZXNjdWVsZ3VlJwpTJ24nCnRwMzkKYShTJ3BuZycKUydjJwp0cDQwCmFzUydjb2xvcmludGVy|aW9yJwpwNDEKTDQyOTQ5NDUyODBMCnNTJ2Rlc2N1ZWxndWUnCnA0MgpJNgpzUydzaU1vdmlibGUn|CnA0MwpJMDEKc1MnZ3Jvc29yJwpwNDQKSTEKc1MncG5nJwpwNDUKUydceDg5UE5HXHJcblx4MWFc|blx4MDBceDAwXHgwMFxySUhEUlx4MDBceDAwXHgwMCBceDAwXHgwMFx4MDAgXHgwOFx4MDZceDAw|XHgwMFx4MDBzenpceGY0XHgwMFx4MDBceDAwXHgwNHNCSVRceDA4XHgwOFx4MDhceDA4fFx4MDhk|XHg4OFx4MDBceDAwXHgwMFx0cEhZc1x4MDBceDAwXHgwZVx4YzRceDAwXHgwMFx4MGVceGM0XHgw|MVx4OTUrXHgwZVx4MWJceDAwXHgwMFx4MDBceDFhSURBVFhceDg1XHhlZFx4YzFceDAxXHgwMVx4|MDBceDAwXHgwMFx4ODIgXHhmZlx4YWZuSEBceDAxXHgwMFx4MDBceDAwXHhlZlx4MDZceDEwIFx4|MDBceDAxR1x4MDFceGEwXHg4OFx4MDBceDAwXHgwMFx4MDBJRU5EXHhhZUJgXHg4MicKcDQ2CnNi|Lg==|#iVBORw0KGgoAAAANSUhEUgAAAEAAAABACAIAAAAlC+aJAAAAA3NCSVQICAjb4U/gAAAACXBIWXMAAA7EAAAOxAGVKw4bAAARh0lEQVRogdWa2a9lV3HGv6o17NN36pm2jXG3Rxo62IYEAjhMJiAFTCJFDFJ4C3nBJK+JsCL+gASJvCd+CDxFUcAShICDZHASY0cxkZz20LQBu+3bw+3u23fqO55VXx5q7X32Ofe2M7wg9oN9z+o6q2rtvdZvf1V1ZPHKQjOYwq/mtbW5HpvB1NT09C87kv//pXuOluFOKTYxuLayRE5aDne2d399dWVp9+BuS9JWlyctrQyHw+Fu17bbN4AbLWBl6crStcXJWZYub2xNBrF4dYG7pr66cGEyVhu+fu7V3Y5KKZMTXr64cGF+YnB7c31tdXXPUOX62lq3hc698tz25joAgiAgAHDt4uvLly8CghqpADx24q7puYNjlsT82eeHW5tEawgBecd9765raL+9s7l5/uxp/9BZTs3tv+nE3ROulxcuXLs0P+H6zXefOvXOB33O9evXY381O9sbU3muemvv689/9vOXnn4CELM6RtqBz37h6JHbACEN7pb2i6eeXF28bFbdkST5a+/+aBt/jWxl+foL//xdkqSwOpJb7jl1xz2/XuNvoz336r+/8OQ/jbumiHQLADC2ANGQcibNZyGNRMp50DTmAdAAWpGUc0zZF+ORkdY0zVZOJMz8MRgNKWf/JkEaAcaYmibTSMCMZAGQc9rtOuc8GDQePWkgzUx1bNvXBQy3N65eWxZRDbGdxQClMafUNMk3q5mQNNUYY4iRJKj1fpvlnJqcSLoxqWYMMdGMIM2gIBlTanIyM7/9PmdKUUOsSyVBI5ByavK4a9OgcvXSazMHb25y7D0BMuUsIiFEMyNNoCRFGGJMKYoIyRCCmZlZCFE1+u2X9smmlGKMpImIiJiZGTVEkyIkRX0jqYac03BY/Db7SkIIIUSj0UwAUgQIIex2LSIxZYBjTyA2U4eaqZVrrxIQQUsnIygCgKp+5rp/IgTiZ00EVggRoSrMEIIAamYi3e70PwU0tBP6GRAJbkn4lNodencdgpBw1/609x861m2hSYwKIKLuQ1Q9RBHpdp50FwRjAWr3r74oEQkhAFBRaa163+8sxW3q3yPXI2c1VtX+xzplH6PP/stj137xCkTMjEaIgGya1DQZqM8aEJrtlGLFADErpPhpnp2ddr9mxdEBcGt7x8Ho9gBFZG5uyne7WfG9OixlOCwQ0Git65zjYND4ATNSIEabufXWdz7wex7wJEaXF+Zf/LfHSZrVhwjg3o988sS7PjjiIEDa0499ff6np9soPRR76EuPzB0+Vi1ROfrNv/wzAM5WH589dPSTDz/im9gHRWT+zHNPP/YN/+QrB/C29z148v0fG3MNbgzX+jGPLSCE4ICrgKCRTDnHlDrU+KPIOTdNrswwA2imKVXLjoYAB002kgaj+Usj5xRz7ljrc6aUK1s5+k9qJlzTjCJ7YdRseGVhQVUdcC3jlGSMIcRkZgDr0VN1YvbNnJgaoj9wae9u02Srl9QJUwwhUo0EaFQFEVPsXKOVGDHGXa4pRa4uzM8duinFMFqAiswdPKwqMQYzMfOtTDMLIagGAHQKkKSFEGIMZmpWRKQUE6GGoBpI1sNvFFqMsZShqpipRxaDaohmBaRA/S2hOprQD6+jUzUAQlD9pWkmkOm5Qx59bwtJGDQ+RBH4WSQrItjBAt16IQKt5FAzjt6PjlcRoFBUxGlYjc1a+DiESVFFBS5F2LpWfxTsTOmYVQCDwb5RKP39BKnEFBES2gYoLea6j9iLrWN/tB/Qw98EPXtsrcZu6V/x+zTuurJ1LOQ+Rp9/9vHh0oqD0mgCIbl4aX758iVAzFyTC2m33nXPzIGDjlGnJM3mX35xZ2sTkFIKIC7MTv7Ge9E7rAS2N9fnz74IgBSz4jdxev/crXedBFzvuGssXb5w7dL5Cddveef97//45z3gSYwOZg9MH75tBEEQxJXz5y6cPW3GTnua2Z33v+fYnada0el+efrJ768uLvTUqJH80Oe+MLIhAaxeufQf3/17J2ZFFuSWe04du/PUmGtg+cqlC2dPd2t36B2+43g/5rEFqIaWg+x0Vc65yalVXgKgmKSUQkw1KIemWtOkrZz8nQCCUBpjylXDWtWkMbkaNRJG8zlzznu7blJFnfljNg17YXRzbfHy0nVRURePZPv6YEqxaXIppZs9mIUYQ+yQH0iClnPOKdYFAI7EEKNzUKTOGWLswboe1hjjmGsfTLHJY67NTEXPv/LigWN3Tu3LowU00weOpenz81dUlAqrGrPTidpuADEzQFSDqMIIQFT8dsboKKQIRLSUIkLRUEEWzM+KiMYYSoFqVcgkg6qKUqUVdkJQQwhBReBO/b8iOHrL7SGlsScgorlpUEWqSFW0WhMuUFXa/dlpPLcTx4hAWwRXxniIAARCoVCggkKfvWOJqnZq1G/HiK1Ah3VnurtOeTDa9hi/BBAdAa6NsxJzxNaK3JEa7ZbUgnL0LWlFplv0YQ2Mwbrvus662xI3xuiT33n05X99EjXTI6Agb7/3Xcfffj8E7NQo+dIzTyyeP9fPVs3svQ99ZmpuPwgzQ6slnvrWN3zlVkUm9s3M/eZDn0b9VvGQrrz+yplnfgTADGYmogDfcvIdd9737r5rgNaEt933YQ94EqPD7a2N5asttuoZ0Bhnj97UaUfPNjnc2VhebInpx4tTcwdnj7ypy8o9i/UJPSPxDakqc0duHpGVJpDVq5dby46tEJG5oze3Lqr1+t5qlDQyhNA0qapRM0JozCnHmLs3gFQ1mpocjd29YTFGZytBKwAIBV2NeqpontPlHENKHCX+CiDl7K59iCaO0RDThGs1PzN1A3dJ/fXX5i8G1T62arYaY4iuvSCtGk0p55w78WhmagwxhRBJ0jMwkqQjuEvhSSbXmKUAJAPUCMQYdrlGqEK4gBQNoIkqhnLptbMzR47PTg/Qy4lnbr/jrvMvPKEqIlqKiWgpYmaqUg+XVLbCGIKEICKu6qQUAUxURRRCGETEFXwICpiqeupTirkLVZAmAlKEFPWzGkop7pqkqvopRsU6YBTg5uNvvSGFPOXzc9/PQcX1Z2VPP8WtrAr+gpSWTqN8ly2dIKIi0mXII5tWmjox3XUfRe1fWsHdu26oRlv3baAVcJT6FdltKZ1IbtUoJkBZ74fUYLqiBm7AVl9dy9aW6uMh9zH68pln9oXpDlv+hed++I9nRqXFitEPfvYPb33rO/zw1wdn9v1Hv7p6dQGQUup5Je3zX/mrFqkGAiIrVy5+/2++iqpGjRQRueXut33oc3/kVVCauesXn/rB6Se/N+H6vk/+7sc/+yfudBKjqhq9ElhrlAYi56Zpmp4aZSnmiTLavNH/3zTNdtOYIUa2ib7XKquwdcuYctM0PWIWQHKTY84YWY5ctxSu196lRQDb21uiWrFVv6T02kaTSrE2p0dR8Wy1jb+m8E1O2zmSdGPPgKvmq/qMJGKMg8bzabRCHzml3a5TTj3XnitbUB3ubGnIrlNGtdHz8/Mi2hLTCwG1FptzHg6HvXtgISb1KqIRCL6MnFNKycxUq373TN+skISo31uNMefKViD0YU2rlQu2EnW3a1W5fP4Xc8funB6k0SGOed+J2+9CPepBREVUVNESKQQNQWIMqtpLERWqoiqVjKIqIUgIGmNotZdA3EZFA6ppNQtBQgiqXSFOW9fhRq4B3Hz8pEe/i0ItizrASQ8nLQpFVUfSrcVIl692ZiMx101cZ+zm6WXMqnu5lhasY7n13mcAwPbmxvLGBWmriNJWmKcOHAbESjHSU96t9evLly+iU2MkyTw1O22FhJUCUa/tLC9cqKfSDCIwbl5fntp/2CVVMRNosRJiWr7cd61mZTgc7nYdc3PDBZx74Senv/ftPrYA3Pvh33nPp7/YAscN+dQ3//b83/11p0b9kH7qS1/20qIZOzX6D3/xpxgjJmYOHfnUw4/4i9X3uoi8fua5x77252iLkO765Ps+8p5Pf9Hp1/neKNdvuIAQwji2vL7XxJzZ1kA9vqbxSiCsa9uYRi8tgsoWmuRgMHDUdA0eLy16Lk+SVgBJY2w1d51zrlhvEUyjcs/SYhmur2+EoC3gaj24015dVVQAEWtLi75IzwwZY9IYqxqVeoebXLNkZw7JnBw4NUmHCgknZuu6tg68dNB3bWJSdH1tOe+bjUH7T4Bbm+uqmlJywHlHxAGnIRoKgKCBtKCaUiVmL3+vlrUzUc+FdsTsUBhbNUrSJwSgIfiEpRR3DSDEoCGZFLSWQRU7YsPtneEwhl5SryEdPnpMABGGUBlZipRSKhVUUXehuop0pdhTV+Z0oaAipaYvtURJgtTRhKKAyxCFy4mxfNqz+zFJVl0DMweOdltoUszVuVXdq3Qxtmq0D7LOQUfMTs1VXvb6LABaYI4TU7WSFdyzqtm6bud5A4w203NHT5ysW4Im0FLK1ubmq8//BAIrRsKLHGEwffTEW1GriPCzsPDqy4sXXwedreoH8fDxe1qKemmEsRm8+vyzqB0a89rH1tpSdV1Li1pKKWVYXZvRKtbzwZmxe95Xoz8788y+NIO2iueD//Wj7555+okWI1XSfWCkRtmly48/+tXVqwtOzEoY8g++8jWgikOfc+XKpccf7atRiMgtd7/9g5/7QrWsClde+rGr0RFbSd77iU997DN/7LFNqlEJIeXagkaL0Zxz0zRtX9qJKSnlmKp4bLNbV6PO1k6NImWHY9sABmNKvfY1zYoIcs6pB+u2x95To+YZ+A0a3VZ2VlZWRERDoo5LwuSSsLCtVphJTCmE6EFBa3BNjtu9Los3ujUmdI1ugOON7tYWKcfdrnOKnesW1hJU1lcXNc8Mmh6FPBIR7TW6QZoQsdforsfD2zbBG911twgtpRxjrO2kVoaEEA3Fq23uRjXsAetuQmtdA2Ev1yKyvb0zOxXHnoDGfPDQ4eWlc+ONbhC1d9JvdNe3ehVvChlrdFcE9Rvdo7ZEbXS7pUdWG93VsMpGWH2dYK9G94HDb9joxv/U6K6qcLy0+AaN7lFfsdWiPT6jU5roiMm9G90y/rEO9in0n099e/X1riNST32QojBpWeb/qnkADQIUs7Z5zKTFf9njEpVmBEIzjba0CP9dES2p/xqEXkSh+cYaYFTVFJIqJcI6jELEzPafOPGuD/y+BzxJocUL557/wXcwwhZI3PuRT5z6rd9uOVhp+ONvff382dM9tsLMHnr4kbl+aRHESI2OLGcOHX3o4S93yybpavTpx77edw3g5PsevP+jD0243hi+oRodNI3RRmrUmHOOKXdicEyNEl4HdDXatsTRZckkB4Om3zkHkXNqJ4SfWkDaXyW1rs2IvV2L3UCNLl69ElSbEbbqL3liirW+B1AIUNRyi0Iz87NlZiFGDQn1/VoX0CcmK5fD6EdEVG8+pxSbZtRj91PdNrrHXEuRqxfnD9z05tBfgIY4PTPrjW5Vb1yjlBZw3ugmJfhTl1CbMd4Sd+GlGmJtdNcimLM1lTIkaaZeknFiusaUurFGjW5Xe9V1HLnWgLrdINNzB2TiCQDYN+VHmSL+gx+Md5ulNqYxooWqay0l92p0l0KR8Ua3mtXldTU8V1dOTNfCe7gWaaWNABhMjX7o+r9tdLc/Iupn+pOAG/ujflC0yTjGOdj/8kSju3O9V6P7DdXokdvuwQMARr8cpHFw7E1La5f94XQ58YG7Tw5uuqkb8tf/FreKW3YUAm574MEOIQCMTM2+pdWFbkInK6YHxx/46ITrqTfdstt1TGNJPa6vrXHXtbayuLqyMjF44bWfbW5tTwwuXbvSz7b8Ovfzn06MmA0vzL+2a7BcOj8/MXh9dXlleWli8NL8K+vrG93Hra319fWV9fWVtdXlsScw2lghQsLE4PTsfn+z9q8Q9phhdv/BiRGBzMzMTQ6K7D94aGLQynBnOPmr57mDR0ZFeaCU4b59sySvLV4aexP/qlwbG6uDwUwpw+trK3Frc/2XHc//+fJ7H0KyYv8Ny0HkanxitJQAAAAASUVORK5CYII=#0#'
p31
sS'SECCION'
p32
VObscuros
p33
sa(dp34
S'NOMBRE'
p35
VMetal
p36
sS'BASE'
p37
S'Chessicons#Arial#N#60#75#2#100#100'
p38
sS'SECCION'
p39
VObscuros
p40
sS'TEXTO'
p41
S'4294967295#4294769635#4291672985#KGlDb2RlLlFULlRhYlRpcG9zCkZsZWNoYQpwMQooZHAyClMnb3BhY2lkYWQnCnAzCkYwLjgwMDAw|MDAwMDAwMDAwMDA0CnNTJ2Zvcm1hJwpwNApTJzMnCnNTJ2NvbG9yaW50ZXJpb3IyJwpwNQpJLTEK|c1MnYW5jaG9DYXNpbGxhJwpwNgpJMzYKc1MnYTFoOCcKcDcKUydkMmQ2JwpwOApzUydhbmNobycK|cDkKSTQKc1MnY29sb3InCnAxMApMNDI3ODIxMjA5NUwKc1MnZGVzY3VlbGd1ZScKcDExCkk2CnNT|J3Z1ZWxvJwpwMTIKSTUKc1MncG9zaWNpb24nCnAxMwooaUNvZGUuUVQuVGFiVGlwb3MKUG9zaWNp|b24KcDE0CihkcDE1ClMnYWx0bycKcDE2CkkxNgpzUydvcmRlbicKcDE3Ckk5CnNnOQpJMTI4CnNT|J2FuZ3VsbycKcDE4CkkwCnNTJ3knCkkxNgpzUyd4JwpJMApzYnNTJ2Rlc3Rpbm8nCnAxOQpTJ20n|CnNTJ3JlZG9uZGVvcycKcDIwCkkwMQpzUydhbHRvY2FiZXphJwpwMjEKSTI5CnNTJ2NvbG9yaW50|ZXJpb3InCnAyMgpMNDI3ODIxMjA5NUwKc1MnbGlWYXJzJwpwMjMKKGxwMjQKKFMncG9zaWNpb24n|ClMnbycKdHAyNQphKFMnYTFoOCcKUydjJwp0cDI2CmEoUydncm9zb3InClMnbicKdHAyNwphKFMn|YWx0b2NhYmV6YScKUyduJwp0cDI4CmEoUyd0aXBvJwpTJ24nCnRwMjkKYShTJ2Rlc3Rpbm8nClMn|dCcKdHAzMAphKFMnYW5jaG9DYXNpbGxhJwpTJ24nCnRwMzEKYShTJ2NvbG9yJwpTJ24nCnRwMzIK|YShTJ2NvbG9yaW50ZXJpb3InClMnbicKdHAzMwphKFMnY29sb3JpbnRlcmlvcjInClMnbicKdHAz|NAphKFMnb3BhY2lkYWQnClMnbicKdHAzNQphKFMncmVkb25kZW9zJwpTJ2wnCnRwMzYKYShTJ2Zv|cm1hJwpTJ3QnCnRwMzcKYShTJ2FuY2hvJwpTJ24nCnRwMzgKYShTJ3Z1ZWxvJwpTJ24nCnRwMzkK|YShTJ2Rlc2N1ZWxndWUnClMnbicKdHA0MAphKFMncG5nJwpTJ2MnCnRwNDEKYXNTJ3NpTW92aWJs|ZScKcDQyCkkwMQpzUydncm9zb3InCnA0MwpJMQpzUydwbmcnCnA0NApTJ1x4ODlQTkdcclxuXHgx|YVxuXHgwMFx4MDBceDAwXHJJSERSXHgwMFx4MDBceDAwIFx4MDBceDAwXHgwMCBceDA4XHgwNlx4|MDBceDAwXHgwMHN6elx4ZjRceDAwXHgwMFx4MDBceDA0c0JJVFx4MDhceDA4XHgwOFx4MDh8XHgw|OGRceDg4XHgwMFx4MDBceDAwXHRwSFlzXHgwMFx4MDBceDBlXHhjNFx4MDBceDAwXHgwZVx4YzRc|eDAxXHg5NStceDBlXHgxYlx4MDBceDAwXHgwMVxcSURBVFhceDg1XHhlZFx4ZDZceGExS1x4ODNB|XHgxOFx4YzdceGYxXHhlZm1ceDg4XHg5NkVceGZmXHgwMlx4OWJiXHgxMEFceDgzYVx4ZDU4XHhm|Nlx4YmVceGNmYGtqc1x4ZDVceGJhXHhhOElceDE4WFxcU1x4YjBceDBjXHhhNiBoXHhiMChceDA2|XHhjYlx4OGFRXHhmZDNceGE2XHhhMiJzXHhmYllceGRlMlx4YjZceGExXHhhMFx4ZGJTXHhmNmt3|XHhkY1x4ZjF8XHhlZThceGVlXHgwZSZceGU5XHg4Ylx4ODJfbVx4ZDMyXHhhNlx4ODNxXHg5Nkxc|eGY1XHhiNFx4YzRceDA2Ylx4MTNceGQzXHhlZDhceDExXHhiZDFceGRkYnolXHhkNlx4OTVceDFm|Ilx4ZDZceDE1XHhiMV4wXHg5ZFx4ZmIhTFx4ZTdceGM0elx4YzZUXHhmN0RceGQ0XHgxM1x4YzRc|eDkxXHgxZiJceGQ2MVx4YTZceDE2XHgwNVx4MWRceGZhIVxuOlx4YzRceGQ0IlJceGQ1XHgwZlx4|MTFceGE5XHg5YVx4ZWNceGM0XHhhZVx4MWZceGMyXHhiNEdBLSJVXHhmY1x4MTBceDkxKlx4Yzlc|eGMxXHhkY1x4ZjFDXHg5OHZceDEyRFx4ZDlceDEzUU4uXHhhYi1PXHhjNFx4MTZceGE2V0wlT0Rc|dFx4ZDNceDFieVx4ZTVceGZjXHgxMHlceGU1MFx4YmRjWlx4ZjdDXHg5OFx4ZDYxfWBceGNheiJc|eGIyXHg5OD4palx4ZTVceGI3U1x4ZmVceGZmXHhmYlVceGQ0XG5tXHhlZVx4MDgsXHgxM1x4OThD|ZGhceDg0XHg5M1x4ZjFceDAxXHgwMExceDhiXHg4OHtceGE2XHg5OFx4ZTdceDhiR1x4YmFceGFj|cVx4MTZceDlhXHg4M1x4ODZceGE2XHgwNnVceGZlOVx4MWRceGU2SFx4YjNAXHg5YlwnXHgwMjVS|XFxceDBjXHgxYjpceDFhQFx4OWFceDBjXVx4MWVceDA4XHhkNFx4MTBceGRiXHhjMFx4MGM2XHhm|OFx4ZmRceDE4XHhkZFx4MTc8XHhkMipceDgxS1x4MDJceGQzQFx4MDZceDEwXHg4ZFx4ZDBceGI3|XHhlMFx4ZDFceGVjXHgwMFx4YzBZaHJceDFhZlx4ZTlceGIwXHg4Zlx4MTBceDEwMF1ceDhmXHhh|Y1x4ZGVceDhmXHg4OXVceDgzXHhhOU1ceGE0JT9ceDg0a1x4ZjFJXHg4Nlx4ZTRceDFiflx4OWRc|eDkzXHgxYUFceDA3XHg4Mm5ceDAwXHgwMFx4MDBceDAwSUVORFx4YWVCYFx4ODInCnA0NQpzUyd0|aXBvJwpwNDYKSTEKc2Iu|#4286212691#4288262839#False#KGlDb2RlLlFULlRhYlRpcG9zCkZsZWNoYQpwMQooZHAyClMnb3BhY2lkYWQnCnAzCkYwLjgwMDAw|MDAwMDAwMDAwMDA0CnNTJ2Zvcm1hJwpwNApTJ2EnCnNTJ2NvbG9yaW50ZXJpb3IyJwpwNQpJLTEK|c1MnYW5jaG9DYXNpbGxhJwpwNgpJMzYKc1MndGlwbycKcDcKSTIKc1MnYW5jaG8nCnA4Ckk0CnNT|J2NvbG9yJwpwOQpMNDI3ODE5MDIwN0wKc1MnZGVzY3VlbGd1ZScKcDEwCkk2CnNTJ2ExaDgnCnAx|MQpTJ2QyZDYnCnAxMgpzUyd2dWVsbycKcDEzCkk1CnNTJ3Bvc2ljaW9uJwpwMTQKKGlDb2RlLlFU|LlRhYlRpcG9zClBvc2ljaW9uCnAxNQooZHAxNgpTJ2FsdG8nCnAxNwpJMTYKc1Mnb3JkZW4nCnAx|OApJOQpzZzgKSTEyOApzUydhbmd1bG8nCnAxOQpJMApzUyd5JwpJMTYKc1MneCcKSTAKc2JzUydk|ZXN0aW5vJwpwMjAKUydtJwpzUydyZWRvbmRlb3MnCnAyMQpJMDEKc1MnYWx0b2NhYmV6YScKcDIy|CkkyMApzUydjb2xvcmludGVyaW9yJwpwMjMKSS0xCnNTJ2xpVmFycycKcDI0CihscDI1CihTJ3Bv|c2ljaW9uJwpTJ28nCnRwMjYKYShTJ2ExaDgnClMnYycKdHAyNwphKFMnZ3Jvc29yJwpTJ24nCnRw|MjgKYShTJ2FsdG9jYWJlemEnClMnbicKdHAyOQphKFMndGlwbycKUyduJwp0cDMwCmEoUydkZXN0|aW5vJwpTJ3QnCnRwMzEKYShTJ2FuY2hvQ2FzaWxsYScKUyduJwp0cDMyCmEoUydjb2xvcicKUydu|Jwp0cDMzCmEoUydjb2xvcmludGVyaW9yJwpTJ24nCnRwMzQKYShTJ2NvbG9yaW50ZXJpb3IyJwpT|J24nCnRwMzUKYShTJ29wYWNpZGFkJwpTJ24nCnRwMzYKYShTJ3JlZG9uZGVvcycKUydsJwp0cDM3|CmEoUydmb3JtYScKUyd0Jwp0cDM4CmEoUydhbmNobycKUyduJwp0cDM5CmEoUyd2dWVsbycKUydu|Jwp0cDQwCmEoUydkZXNjdWVsZ3VlJwpTJ24nCnRwNDEKYShTJ3BuZycKUydjJwp0cDQyCmFzUydz|aU1vdmlibGUnCnA0MwpJMDEKc1MnZ3Jvc29yJwpwNDQKSTQKc1MncG5nJwpwNDUKUydceDg5UE5H|XHJcblx4MWFcblx4MDBceDAwXHgwMFxySUhEUlx4MDBceDAwXHgwMCBceDAwXHgwMFx4MDAgXHgw|OFx4MDZceDAwXHgwMFx4MDBzenpceGY0XHgwMFx4MDBceDAwXHgwNHNCSVRceDA4XHgwOFx4MDhc|eDA4fFx4MDhkXHg4OFx4MDBceDAwXHgwMFx0cEhZc1x4MDBceDAwXHgwZVx4YzRceDAwXHgwMFx4|MGVceGM0XHgwMVx4OTUrXHgwZVx4MWJceDAwXHgwMFx4MDFceGI4SURBVFhceDg1XHhkNVx4OTZc|eGJmS1x4YzNAXHgxNFx4Yzc/XHg5N1x4ODYqXHhiOFx4ODhceGEyXHg4Mlx4OGJcbiI4dFx4ZDRF|XHg5MFx4ZmVcckpceGE1XHhlMFx4ZTRceGRhRVx4MWRceDA0RTRkXHgxMFwnXHgxMVwnXHhmMVx4|MGZceDEwKjg5OVx4YjhceDA0XHhlYVx4N2ZceGQwdnBxLjg4RFx4MTRceGQ0XHg5ZVx4YzMlJlx4|ZDVceGZlMlx4ZjZceDBlXHhmZEJceGUwXHhlZV1eXHhkZVx4ZTdceGRkXVx4ZGVceDFkXHhmYzFc|eDg5XHhlMDFceDFhMFx4ZDBceGRlMlhnQFx4MWQoXHg4MHtpXHgwMlx4YzBceDhhQFx4YWMzYFx4|MThceDE4XHgwMXlceDAxTlx4ZGUkXHgwMFx4YThceGNjQ1x4MWVceDBiXHhlNFx4YjlcdFx4ODhc|eDEwQFx4MDJceDA1XHg5MFx4YzYhUlFceGQzXHhhYkJceGY2XHgwZVx4ZTRceDEyXHg4OGBvXHgw|OFx4YTFceGZhXHhkOTtceGYwXHhjYVx4OWFceDAxQFx4MDUxXHgwYlx4OTFceGZhbjJceDBiXHhk|MVx4MDRceGMwLERceDBiXHgwMHNceDEwbVx4MDBceGNjQHRceDAwXHhkMFx4MGZceGQxXHgwNVx4|ODBeXHg4OFx4MWZceDFlPE5eXHgxNVwnXHgxMVx4YWJceGEwXHhmMlxyXHhkZWdceGUwXHhlMD5c|dFx4ODBceGQ1XHhmOVx4OTVceGI4XHhkYyJceDg4XHhkNS9ceDE1XHhkM1x4MDZrOklceGYwXHgw|NFx4MDBcclx4MTBvXHg4MVx4YTFceDAyfikpXHhjMC9ceGNlXHhmZVx4ZGQpXHg5NVx4YjlfXHg4|Mlx4ZTNceGU3XHhlNFx4ZGZceGU5XHhiOVx4MWNceDFicl1uXHhlZURLXHhkME5ceGZia1x4YzAj|XHhjYz5ceDgwXHhiM1x4ZDJceDhkR1x4MGZceGFmX1x4OGVceGFkXHg4MjNceGEwXHhmYVx4YjJc|eGFlXHhmNlx4OGFbNFx4MDRceDkwS1x4YTlceGNjXHhjNWBkXHg5M3VceDkwXHhhNyAyICpceGUw|b1x4YzFceGQxU1x4ZGNceGFiXHhlYlx4YjVceGVhXHhhY1x4YWFceDg0XHhlYz1ceGM4XHhlNVx4|YzZiJVx4ZTZBTFx4MDBzXHg5MFx4MWVceDAwXHhlZjpceGVlXHhhNVx4ZTFceDA2XHhkY1x4YWNY|XHg4NVx4OTIvXHhmMDpcdFx4ODdceGI1XHhkMFx4ZDJceGMzXHgxOVx4MDhceGU1XHg5NWFxVGVc|eGZlVVx4YzJceDg2XHhkNDt4N1x4YTFceGE1XHhjN1x4N2ZceGMxZ1x4YTBMXHhlYjFceGI5XHgw|ZVx4Y2VceDkwblx4ODBKXHg5Ylx4YjF+XHg5MFdceDlhXHgwMVx4ZmMtXHhlMERceGFkeVNceDg4|XHg4NVx4Y2ZceDk2XHgxZVx4ODBQO2NceDkwXHhkZVx4MDRceGI5XHgwMVx4YTJceGFmcVx4Y2Nc|eDE1XHhhMG1ceDA2Qlx4MWRceGQ2XHhjMFx4ZGRceDA2MVx4MGVceGRjRlx4ZjZceGZhXHg4NVx4|ZGVceGI4XHhmZklceDFmXHgxNFx4YmNceDliK1x4YTNceDlhWFx4ZGZceDAwXHgwMFx4MDBceDAw|SUVORFx4YWVCYFx4ODInCnA0NgpzYi4=|#iVBORw0KGgoAAAANSUhEUgAAAGQAAABkCAYAAABw4pVUAAAAAXNSR0IArs4c6QAAAARnQU1BAACxjwv8YQUAAAAgY0hSTQAAeiYAAICEAAD6AAAAgOgAAHUwAADqYAAAOpgAABdwnLpRPAAAAAd0SU1FB90CEhEAONdCGPwAAAATdEVYdFNvZnR3YXJlAFBob3RvU2NhcGWAdZG/AAAUDElEQVR4Xu1dXZdTxxEULCT+/38rLz6xj50YjoGExSy7gPECMTGLMt1V1V1ztXZsLL2Nz5G1SLpX9/ZndU1P6871qx/2d852u/0vN7vd3fHH+O/m5mM+73Znu7OzT/m8u9nvxifir93NJ7x/74v78f/dfnw+jrn3l/gbR8a/z87u8Tx9znjtzng1znYzzpnfcufO7sPP73f37t/fnd3/Il+7My7qw4efx1/jPOP9+u/s7m7/8b/j/XHu8fe4GJyDx+W1f9rvPv4yruf+vXEN4zPxsfFddz/d7D6d4VzjzsZr49i7du7+lnGOuMdxt+P9jx/+g2u7+9e46rqvU8ht9+Pls/3boZRQzNs3eP7x8t/5uB7v5XO+Fn/j3xdPv99fnT/hMZc87mn++zrP8aKOu36F13+8+Fc+9O94zu8Zr72+eLa/evrd+PsRzsFHHsPP5PPV+M4rHjf+zvONf798/v10vfF6vHY1rlPH5HE6fnxP/B3fV99h91vfGe+P1+Nc8ZBsIJfTyG0oZAicN5nCGgJ1IUCA42Ze9uvPHny7P//m76mUVMw43gUZCimhlkIvSqFQ/mV+Js/x+GEqOW40j5PQ7dok/LrW/Mz4fDxT2RBeKN2MKq6Nykgl0NgOnnUOKrkUVkqEMbWBnkZuuxKmlPJmCJOegC+nhdtrF4//sb948PX+2YOv9hdDmLIyeRk8DcqN5/g3PtMep/OGZ8R5rp4MxdLq3vA7odQQ+KPyAgkyBC+DiOf4dzxScdP1Qzml5LiOEHJdSyusjg+Divf52fj+9DZFjrg+GeGR5baTB+RzfImEaUJJgeoGGCJCkAgL342Lh/WnAPn89s15KiKVY6Ew3x+Pny5hrbpxhZ1URnkcvZOhy4VaQs/whLDnSofw9Bo8pzxEnpIhEt+RkWG8ntchL9l4k9/fqeTWCqmw1TFcYUe5xS1vvmgqI3MHYyuVUUoxd5flQ8Dwmo7lOhcF5eHHwlmFpSkM0QM35yxrl4DNQ8rqFdo2XpB5hopFyNpc35HltouEDg+AUMpTLLkqriv2hxUrNHRIQ/LvpP2i8oS/3lbcHqW4DDDQ4GFK8MxFyk9vJwVDeQ5K8nPbsCRhZ95BYk8hU6nyQM+NykuQTeemU8ktFXL9hsiFsVbumDcYlhNWwbBTrmqW8fb1i30oqTwpvQNJWxaFEHZp6Gu8l0AhQpgSPpTRoMCTKN8b7yO8PYQhjXN0mGyU6ODAhZ5J3xAXwiNDYxolkZflD8+R8uhTyQ0hiwoBtOtQATgsBNUCr6Rtnw1LCoFLEdcBDuRlvGkdh8/OwoOXhIdcNEKjwuQ1ON/4TFo2rzVzGuGxecD1K8Dy9Go+EtUxOaciQjGhUCmklMB8Q+QV+WmLAE8lt8ohHbIQwiLppgUS9mWYqrBBYfJm3l+HN1AB5UnheQpbAgtM8PSgUp7XHkzGeb5Q6nhUgo7QwvgfIWsKN+npL1I5QGkQeKKxgNTpwe2hQl6hrPx8eiZCWUBwyUPKFgJUWTB7FcLZMeRGhRhuH4KAoNqVhXpcIZ7c5BlK4HGDcSPtMbOXIf6ioPSkD6+CYvucQ4iqgeQBt4VQClwhSWhRRaK8ssMP8whRH8Im4HEosLyOcH3Og0Jnx5fbUAisdi4GibRGKIvY33GWmJ4w2BNpXfC22lctwTC1VUIrea534nzv0vNg2Zmg0yORM95dP5+SbFxjvBYJ2cFJ5LfMZazMJ9CiwnLko0rs47Wos64e/zMVk94lw6mClgZ2ArlBIUIPRiVM1XclPoYwXkgVfQxlXtBNcNLDnWDjULbwf6MpAxcMAaUQy2eydilFxhAKFBWTIZYoakrwBVsVdlV7oPgMZUdtdfH46wxfCHfbUqCZCRhyUzB/Vm6V1LvQipMPl2RMLeRkCbqSOhFRJn8Wcwp3IQyBgoaYpEVCUOl9qujDiht+gtOykEmD6fDWIU8Ki+8NhajaVs4rioS5sDwt85OjQYQrPSKHipZRFGmAo+tG7mml/Hm5lYekl5B2CFQha5F1ecVdYS7CgMLIpDCGmvK+USxWIldiV64SGAgBEfnEdTjMJjvg3ixhFhiJgpSeKz6rLLsQXxd2uJ+up+o8aVjBIlDQQoQOVozFOLbcZoXYRaRCjMJomIqCbobERCqCmbR8KXGLzqRQoSyHyyrEPOmHZTpcFcRGjvmhOSzWTTNn1uFGdZXnreanNvyWhbYCOWlUI6duFXJEuc05hNxSfiFDVoaSqjEOaZUpBxWzS/o+AcPMxgaKCsGEMN++edlwueL0i+SlBCMbOHTS70IQdU+jQnqdEX+TV1m+rJqGUaEh8QyZkwqid0yI0HPvEeWW6yHpdgYtK5ZaBeuJTXWBXnOuSyEuzoEbOE/3V2xvlCVBjjqjwh5JPoO1bs3ymjQQoicpDgJFLTGTk4DScUzmFd4nrnm8LuJSBjEMSMSnaJ4uhHEMQNBp5Ib1kLgwXmhaH0k/VaMVJwv59IWl4OnCea4o5MQN6fMbrkyfF7rbophtiIvwGK+9v35JuAtvUUiEosLbIg9iUSmuXUgrji8WwuBzfQ+plFKO5a8uXgE88lqLIzu+3FIhTpyVkDYoS7FWiVP8FqDlEA4tNgXjPJfzV+H+pdQRXsYx8o48/zCK2fKHoMfnUWgCfpY3ZlI2QKAQQvqjuTRbC6nQYgtoiQYjLD+c6i2F6oMazEOVEY7HktvO2dcOBTMaKSWkQEZokBJIsSDOgj55N6xYVpR0AxN8LaVarnCBiq9KhVrMrrUUhpbyijyP8WWZr+zfsvK0ZqflyTJHOA2DiPCXxwqoKE8S8ZU3dCjsdZY+Nwzpz8sNHkL+qAupDTwkJBYTC6TRN5SvlxCddpmrarfwuAEJvxJqeZY8Bwm2w0ZXyKqek2Uw6N0Iaw4vWu5NSw6vMEZBqG/ixkIR9IA85hWpFeajU8mtFFJhZlzIbUSiVtLaG3hTtKCZKOxK1tFSxWyFGws5zejSyuVd+VkxsrTk4UXpiUVeNtsAr2miU4KL6xeTIPJRuWlO2k0jgc9q2r8SeRmxrasfSW5Zqc+rYH5z7cYKbQhDqIrjeV7/Zg5gBY9kLaZXSiKLyxCTimTVLCjqocgtWQqN70YNAuEj2eN6JkBgIUxkoa63oDJpITfCihhxHwQBWLdBuEPheRq5ZR0y3USFH35hWCfdV90dTipOEDSPdShptLvCkazanh1lIRZzKZiKl7ARWkaoo6Jz7WR85/t3L6seUVjdMgjl4URhQGYDkjMfVghSe5AtNSC8tvF5Z0td+5HktnOIWvialpU3paRsaKyKsSIZmexFjztON2Sj1b2sxi+wSljC9oS8KUblkTCEkb/GcRejFSkfo+slcpFC2G9B6YK1WSOhyleNkkZJo4nPBTOQrK/akyw8pvIM2h9Tbjtgai3cz5V4hSO2Bk1tMkRcoMZjla9DUsVoWpastXqwhhCj7SctjTcqlOa0hJOJyEUSItYy1GmSRkOFNtzFUnAXvJGkH9XiFZRMRFjIDwYoFBWsLxr4sABV+VCh7ARym7isW60rcgYF68qLsBH0d8btgUBqidNvjnBSlhgKefLl38bjy9GLBetuQVuRpbxTCd2VYQnewm14mgxogqVcZUyvHAaglVBV6m5IIlQ9NJf1170YaLB73RazmWs/Q25zDrHEdVB0WeJVnK7kWl7GpriynMghQDzoVAG1j16uTpKduIdiDfoqnIUle5gsJpjWHOePzxx4ulvyOG+EoDSA9LaZBgmBRgh8Eh2ZsYQ7vGJiuOmF+Rrvr5RwRLkdJnUv3Ozv4n4Mn3dsF7cjLgpNas77eNKsWK3EmZwXUFPXEb2mHihK6+sgJ7msy/ojgcUWYVV+kOKf7l8/f4DuSBGSaSwgT8N7wmPDc+Nx+8LUHNIPvOKgWAWRWvfF0Pdbcmu2V+00su7x/PL5WD1jm2a6cYQmNR8oppsHNGzlhUd+IGqaqQVcZOWISpgIB0UUTjVILNEC2spjFNclmIKyZUjN3KrArM/GdVm+6M6VZ5mb4uHND44EPTxXG9KR5Mak3j28fpMRU2E1TKCEmdt6ofknFmSB7S2cqF7YtvP0il0ch6a14qosiUqpsuyAuQmvSYgCYSnpXo66ZK5H0AYE5VSNoRYja7IWr5cQOeGwmF1bThC1n2H6+HI7SOqOq+PCzr/5ZijkQaIi75maLGZK5L4VAegHKKtp8Eqk4psYOnw5FnRMdz+6p0UIyzBGql2KUpjEe13gihLKZVlDlQpzUgSWCaIFCIisFBLXr+Xdid6fQ1h+J8/xuXLDmrq0LoqCYSg9hIkOArqackMpRXULqXwJvKtwWpoofiZVhCxV3M1TCbpC0BQGEVWEkQITVgdlg0PVPEBieR41aFAR2oOinCYhdg0S9H2gRmsgLxDgCjiN3NJDABdbaLKcrBuiQBpKAYclJNOLNFqHcA6pyMbKAcbCUjDqzfKcJJqlFTKveaBpTtQNkRc9AfkFDX5Fa6jQ00omGWN4kq+KmjcRtKSXsCmvUF0taePzp5Bbk4vl4l0oFow0Nwfnw9Wyohds1c/CUOeDjsXwKuvZrXDW1ie6v5dOkcwVipxdVp1Q1brliQ4z3VCeIWvT/V4RgsiwmdxeK5InKQ9OHpbeexy5TeTiQZVbTdCEsVVfGOWQ9AogaoWgKTe0oCeaXNWvKuyyOLX/MJwZvd4hTu/1ZiCtZ6hOmPt9SRIWPdIdJb0NQlAd3Tc63jtYZkP0JQpvLEd/suC7k5ITVfMrcutWUrPUpqxBP7t1eNKvxBm5QWsSUgaLtU7+8KL2GoWMptuRe3SjgKW+ONbWqYUhVMNdu0iZ7FJRiLJnX2ZANyN2XblimiIyYrV4Onk3my6OLDfbQeWL94KUzXHFTW+p9qKslRdCgFaQCf3M9YE4Lwh+hsJWROX6vFMmELyKLKfot8k8w5iaF5gTwPZyU6ktMUMZYBCwde5QQcllCWVNcNdyr65NWywsBfwRudUew0Y7DVG30LapCfI5FsK2VavTCk0KCjH58mgvr/a6yGGnfdcdyl+zsQjOTvFfC0m26zYEO22bC+VUsu+dXFDMUCCb9Go9yLobnYfb1mYuuz8it6kOQXjoEFUVKeFlC327O8qOE31gFtWLVCzeCGFVaygx94XPazTpRWQSRHN447U2gHaoBRfVHeyyfjT/dULuYrFIxLjukEHWE9heXR7EJYit8R1TblQISEBRFtrZ1El4eAQta4suimjz3ioWSF2PgNaerYbVr+WJpNMNwfn3x+tao0iuKbrcGR60BU2CSgJzvP/6nLulKEjfSav1j23B5x72+hz70w92ARcdf3y53Uq/z7GdMX8TdyVsURFoCwJZV7wVPaEqc+L4rLptQQpr20JC2jgTaxBGdadCRle6tmOTAEzF+Bp3GIMtNLlHzHCWTeWbWkXeUdV75ZfepXUbS1GUTMHfz5NbKsSrYQmzBD01h1FoRCUOQ+PzzkPdllOK2LNaRJa6neQQSjsIGcwFwdqqo17hZKJKuOJXyZi1yU8Xj7HSZ8MAbs056VG9xaCurRK6eLNmEY4ltzVawxJ6bS1QrlijNQgoPIxswk/VEfk6216tjvAGBM8T8oxf94iGu/kdanYwb5oYBluDF2hpklIscPcSh7f+npEka7QGyVVMcdCAnJG7xGlRMWu0BvNMWqWKPPcWxnPB2zVag9VrJ/+usqtXlpC2+nut10m0f3E+ExMLAnJGcpwU4WjP2nEa5fRYqW21XuFqjdaQgEVpWOvRhFzWaI01WkMLWKLt12gNTaxbozWillmjNbQOk5QNesfWaI1pLR/LAE7dr9Ea6iJZozXWaA1nkwWXvclanFG8t0ZrkEmtHUdcJVujNURGrtEaoN6jSB3GofX3NVqjOkaMllZbqDWzTesItl5ezc9cP+lZW2qKWKM11miNXEtH1033h7WBTOsv1THpzXefN5JkjdYQcWnIco3WkDCqdUYjZ+emiDVaw7YHCI5W41quoXPCXBRya7SGNXvPM4S1vJ0LZv9Hbmu0RvQChGdWk5+6Y7x3jCuAbNLIJYMMdWu0BlqJ2FWvPYBrtEbu6VijNbRmr1B0jJEka7QG10PWaI01WqNng7HJMPLSGq1h45bWaI01WqMaOaJtNsLmGq1hM1rWaA12uq/RGj2SZI3WWKM1tPNpjdbordXatRZdJ9OeOdsxmwNZ1mgN32aQLMEarYEtx2u0xhDCGq3RG0u3Q3FONZJkjdYo2KufLzImd43W6DV53yJXY5k45WeN1shNlT2S7/eMiABNbkNnooHBJ1Cv0Rq3jiRZozXWaI01WuO3RpKs0RprtAYG1NRWuJpGNw909n3ua7SGBkRWEl6jNfR779W6qk2pRx5JskZrrNEamqllU3mGUNZoDdRga7TGGq2BNlFtwqlfTNDPQvg0n81PSGiUUrffrNEaiY5iqH2NSRqTr2uDPicL1YYe7h3M9tPq9FPfLuqRCFXPHnyVg5pzj8dma4M2Yk5JlbPaNSdL49BrNIamPGg87EaxPpW0Bhis0RqYc6WZIhL4NH5PQzHXaI15+ltRz2Z5mkW1RmvcMh+SXfyfI7ec5KCOdvySjI3Q9m0CmgbH32LSNrLtBLmaHsdfOehdU5w0Z03K+d4arcHRh5DPGq2xRmtoqxfCoigSPGMqdG0XE2NQcww5cSh/SiJ+ihXePE+x5g/V589f9IYfzBMOEBG/ftA/Zo8lAU4nDe/VcGUbspy/Xq1prTWNKAZg6sdgeC1c7Jp/2rz3ihTY2Uw68j2Wa7SGUN0arYFfM9ADY/J6CukarXHbkOA1WmON1lijNTJUYH81qGUOGGZMPWh/GUltjdYgEDiB3P4HSr/afV2YLesAAAAASUVORK5CYII=#iVBORw0KGgoAAAANSUhEUgAAAGQAAABkCAIAAAD/gAIDAAAACXBIWXMAAAsTAAALEwEAmpwYAAAAB3RJTUUH3QISEQA410IY/AAAAB1pVFh0Q29tbWVudAAAAAAAQ3JlYXRlZCB3aXRoIEdJTVBkLmUHAAARdUlEQVR42u1bTbIbPXLMeh8VyGLMFw+tleSVv62P4AN460P5GL6C7zNLL6XZqPEiZohEDBXlRQFNyuHVMLxrKfTER3azUUD9ZGVV2X/953/QMZqiEMCQAATorghCEEBgDAF4/0KA6hrS+0Z15C2FBHDcXkgCw5QX0PBj36/u5b0CIPit7YCuZnkXCHTBCAICgLxySBi49X51JwFCHRwS8yZKQMH//jMEEAW3tl/dS6kDc4UvSvomAR1RSH88jkB+rHw69KP3W48pvIMOdcDzWgAwU16KATPpsXT0zmdZBF3NrnSAKMT8W0FAJHmLGBL0WM2td0EQaFBen79DGPOqAj4vHwDIW8R8W3hd0otBY2AEzAAnBAyMIjoAgTQJA9olNeAL0D9vloeDjtQjAOooRJQKSF2FKKwR2ltH3+XcSgVgQwqggAYVYIBLKwn2QkBX81zDTbFVzxM/RAagAAoRT2o1MCAAJERBgOmzu7ROkTC9KukbDVFIyw1mAY8VpHLOUyNItP27uqSpw3TQZSb4PAQb7cka8nVrauycx0gUspAgMHSLroACAH706K3/2OPW4xZxU1zNDv2KQgUIIogBmFKV6KAB1C0CQJRaoqa+S7r1njpiptclvYAwCASFgMxFIIIRoCPNiQZuhEASUilf5wnvAOGOAEAKKO8cUkE+WwPY6ter6xZ9wIaBQpR12uCVoEEBDGz0QWHgFuFwM0Vh6kuA40Mo+NHj6gPpdCAMwQmisALt1gMfIIECBFFwLSgkhAgY9aKkl4cjCZSOwC/+hQREha50mJMQXVC6S0EV6JiGlE4dhx8zUugBK7gOBxCdwblTEURRqkxu8HQ11DUIKKalckA2hIICwoTg4aRGmR6Hmq5seX5IilJtyFzHCl+U9K0EC5lnayYbD9esDhsC8b5V+FRXOshUTrlLAHoGjrnuQo4PSeidscJkeWdhBSBBHRE8nN20HdIhAKXUtOi6oZADKqylEIC5DqEJjtFgogOmNGQAtxY/vkWuIy0wggYN6XVJ33CoQ8mDhZnosCEIUTPKNgIkBhRBgumkIuaLNO88HzoPyxcgoKBKyCtIFtJMR+SWAGlvexvtfaNSAeP52LXMdjr4W+7NCosk6WnLurpd3QRh6GqWXulQohclfRtrHTf1/M4IogOcESQvTZdMT1ggdACkE316RhI2ckNEx5DoINIhyiAmUoIA9ODcptR/8uqWx+hDu/qQPnYNiQazFoWFLMH3UgsJaTp7oBceAXGZoSACjGAGATc9duoFSd+OuHg1z0tNDQ5JNiTgY1cqagR7EEDdWFjVFxbqgpOekYrqCLJszGekrRUSkKFN9XJyY4a6MdoY30tURp0ojFbIstWbQgRAG9pb//Z9HyY6r9WnQQEVSGVkBYQfvadTu0UYlf4zteZ1Sd/mBqdy5iY7h1IRUJ7MQVpgRxMopEff2xPo7DATAfZ504QUJjgLKzlvJBCkQQimeN0ZwbSp/JLUkrSGq1ki+ASiqbmSmlCW0yTJNNKCq1kq3zChJ6x/VdJLWuNEaGj5LXYVA4noZrDaiPWruhK5BFmCoD72VkgzZHIAJOTVkNSRH6FLQmoTN47WqlcpEXmiQhxRggZUQZCBEoT391rAMdrHd7EmGmApNJNy2cEIqu/sujkBbF/IjD9OM74u6cMMjxOzobjxlxzFBOAAiOmb9bgRCc2PyKId6tNHlI0zJJkeEPNIh7gcSmYz2xNkBa9uERQgaFibPr0wOiewJlR06wXCLbGmQ9DVLeVSh4CU+XVJL4m/izgKMISBKHXuK4gVdgpgjuhU8J0YQ6WQzqEG03upw6SW6kszaYhX5lmFV1OTBBBD5mkTONLUhdIIyUyFE4LfIq7plYPTAE00RkAAnYDe8aVAQ/psAPR521AFW/I7TIpgntaLkl4iiBtA4AOlVAm79g2bAjZUKpUBvgPOoRaoiWIAjNZKrUBDIIJRWJNWcARm+I8gusIrvWGHwCDTtdnQTb30xQE4CKpLrZVCbrjSbootfLoQJ7pgymhGaJg+vilRmJSBVb1XC6Gklk0/ZabXJX07FDBzi4wg9gzE+0oFlgc9wnCUld874DBIHepST73V8vEkEDcqcIsgSMe0NU1zOGBTSdZhSAANTh+HzfbJ/7hNb4gOFAyIrlIyPpJYtgyaBIe7nsH6Pyzp22GcmVvQsXFLwKYJMWaycJxSfm/K8LHnBsFMGBgfiTbzrgx6VJemnNXh+TpZsM9fvZA9WEB1QaDz69eNFegstbqpkIdDzD2Kha0iKgYKWPhlIPkDmGlvPb1NBIlfMptXJH3T9Ak8vOwBl9OtHAzfwyk7Cifeo4EGOhiIwlsEBpgnqad/eYYuEPAZ9RZnxLphQHxsqwqrpMVb5Mnn1mMssuygpcYkhQgHuhQ4aMXcCHVG8HVJ32wShA/+LPEYfGZ5xz2pmDZkfcUvpyAF1BGYXmaeXldKngnEAZdtYuLJpiY4SsSsVI1JKJKEmhSTShzjO6GbElNN9DvUyjtpGKOND+kHYquFZEXdqI6IapbhFK9L+gZgfLSDf9NS2bLwWyrhkCDBoRQQLMz878FPjl2FLIUlGJ45FudJzljIRe+SwIfppt72lqAJDmHmT+oNi7IrrCWI4Bi60qc+YiYGYzQWAEq4m6FDHaO13Ka8Ppf5oqRvGIiy0jTwOYKknqenhCkXmBBunj8RhQd7RccYLRVhcrUZx5yR1zjhC2g5SvBqy3872BcOSljkLO8spWaqUTBTkAJOI/fJBQZY6pdSHuk3DT2YnpS2gN3Lkl5QYLnLNoHfM3ExyVqgVvYOdGri7bngBC8R1A5+ZewMTN46UaNcBAZEw8f+vbAKMsmA4vVwK/Dc2bnRxAPx06aHznWaiYVjtHef+6gVtoaEYAHHEN8BsActWgEN7XVJZzR0E4LRqYVfUzVu0W1IUqCaNbjKUTRYyHieJ+c3zqDukCOz9sQvPZLSEoVCBilowh8HUcmqSe1MR0uysOYFKUvXvpLGo8oDLuRZSgUwhm4RaUxMeuJR/HhJ0jcmgMyaBx/5ZP53NX8QePULwOGPpIlg9BmkjopOWYghrYlOANzwVJc4dAfKwNyBzGo61FG3yo3vWx1qS04e0Akdw5LJq8NEmw7xgGNR6POpD5d+U7wu6VsSiQ/S3ichLZ/rtKExNNQgqQt90beCHPlRpproE2RiuapFX80I+JTKE2TuSCHhxK7RWhKBhypEwrTDi620Dm1yhyQETVoKGKNhJHcGEBWsG8dCpK9LehmjHQE1A1bEfMN8lgLL+4xi8CzXic4PNewq75QQgbGrgMEaEHZ9QH1sLL1+fQicdmczGs0Kl0mEuvjtv3dgB8mtgpREYqjxiUC/0jGAwnTbvbOUVMAsfBDArfUffadzqxuc76zqutJel/RSouqZtF+kBDrDa+nao+NDs47l5EbtGNbSKIY1d5So3Ni6CPXvvffciegbqIMhpVmLYGZy0xF00GvvMtfnf/KERUKDiK40JglMB6esYjT4sqCtas+VIIDi0I7r3A2NodIz5QZEBF+U9IInpHQU4ksQGQw2bvuMB6vMQRHs0/GVYKyQsfx8/8v37wGykjtRBac6BFkHXcGnRTsP/mSV7IEObviQMllLGtOswWCBW5TPXWWrgLSvDBnc27dNWyZGn79uB2SHQ2u1L0r6drA20KqA57ltzIo3NpCQ8juZLQbCZPvzVjOtXKRdffzxL1+//ME//vj69eu2tF7QKnD2xMjkVmcE8JmFJF2R2xhZlyXKOwmUqBGVBu0tWA8qLTdlqOmb/vzn/771PoNMJnqeSd8U5UVJ334p+/OJIeuaDrQzj/fAHIcqZvSVEFETFqEj2xc+b9uAxsJBdJIrvciC2KpeZDGNGQ77qj7piSlcFdwMcJ83m/gWhCM5xZsCJMm2ryp0X7Jk0vdcLfpHJb3kOWg64ZRATRa6gf36YfFOktgmFJiqlJ0nnTP/90NdMaQSNbIe5rlZy8WQdLZ90gMfrRlQas3P6hOlqa6EDouNar5i1vvXf/7Y2wxVrt65TM8DW14zTKVzLvLJpb8o6QXCgPwwBGBAga4O7fSvfALJk67k5BUJyIaiUrsOYiDwQDcz4HUM+27GQs7qcAcdyNiyCmJt9nPo/esXqamLXkn85dt04SywyK4NSBCFfdLZSTPY0A396lbiC5hZ4WR4gnxd0rfc7+eiZtqzmgD1/QkgLaNZOiqAilW/d043T9osi66Q9+hMIp1aRpTlveQLIVTSM5WTsvdqdnCsVPxjNBnQV0sIUDei4Kik3qI7t0cvCUmbpeb8+aKkb49C9ipYzahGSM2/OrcMK09G749msDSoCZidyx2t8ne+2ZcnXl1BCfVsSNBQG5bJiYJUQF2zXUVqezMTnTSQjM6OOkZL15ZVpQKSsNkdx1K+aK24VEZhUt6vS/oWwQyV6OhBTo6C3FjJX29N8F3TI2ai13tSKzNZmUvManNf+uyzuvNLRxsQlXSWrUbnsY3vy0beNxqamXrnaC1Zs6kjhVnRK6CZkhLIngkbTZBZS4w+mxiOuPmapL/9+7/9K+64XADgLkh38mKXT79X//333+8AoJ+fdBcuF/y8C7inBV1wh+MC4BOJ+70DuAD3IV14+fRJf9MdgHC/3C/AHbjgjsun+9/+KvpFHfxEAH8i73f99a93fNK93++50E9/AvnzZ/qdyye7Xwy/kXSMv98L+NPab3//04Dud3z6ecflcrlfLuRPyHAHLj/H/fJbSnXRHfc7ft71oqQzkcaK7kdozS64iUqCx9YrY5+nlS0m9+HQp/uMbDlbtpkV3eQkZj7saMmmquWjmSVPTxTasEysaza8SdCOVaqpc3kDiplLZ+aYbSPZ2zb9DWHQ65JeVjo6QUd253SF07MN7MHFLtT7qFn6Mj0eQDxzBaiDFdGftXpmc5m7TCsg276yH6XOMwrGLnNAMAeaYI4CGxplNoDM1i1rwDwVKxrKUqMVsgDZ/2bAo9H3NUnfZgthog6hsAbpyfsmGPNH9TgJtmRTmNzm6hmik06zxie2RIA0GeUIRtSn9slFuWC2lSauF2b15Sg7Xt1nJ1s2wEDZ7TigJLBm8BqanZXA0MTDWU+J/ugSfkXSt+S/6ceawUdPLMjjSQRY+qytzxJhBjVIXdqfiMBkUNejLU/NCdcs4fV1aJ4EhLKPaHri2RG62K4yrQ2rLm9DIpJ4mFZTiMJsyLpFYIiGW3QJPTjJ5Zclfcs4oi767K7C0Vbts8p21IWOgPFUiVtYJlXGJ/1WYrYEcWPiZu1CR/zarKIuCgbtrR9+r6vvrdvsW+uHG8pPpzPqyMJPRt9CBkiigBv9FuVH71ezeZaCAq9LelldIvWXho3ZKEaaRIyuByzXI7cyUwQiaC7ETCYe0GDxttnbFqLwqGJmtUvS3vbZOCjgiz9uznx46NbjCqNDhRgp7i+PoQEmz0ZeCMBV40bMbonsMRqz1e8VSS9HO0Lmitk9BmVONLPNLKtlljSgyNbOjTOVh0pwSGZA0IYiNTiTrD7PJ51rFq6X9otAn/380J4kMq/VnjJoTlEX6L4Wx1OPCzmziEKWFR7hvOaumS/+h69Lenke0siml2fdi+A6Lajh/QvodXa/YDKThxZErHGU9GWrtGuG3nZz53uN4Pv7L+MoV/fr5k/jKAPj/xhHwVE0OsZRyLSv5/agp3EU3tp+dRQskPGypOc4yjmOco6jnOMo5zjKOY5yjqOc4yjnOMo5jnKOo5zjKOc4yjmOco6jnOMo5zjKOY5yjqOc4yjnOMo5jnKOo5zjKOc4yjmOco6jnOMo5zjKOY5yjqOc4yjnOMo5jnKOo5zjKOc4yjmOco6jnOMo5zjKOY5yjqOc4yjnOMo5jnKOo5zjKOc4yjmOco6jnOMo5zjKOY5yjqOc4yjnOMo5jnKOo5zjKOc4yjmOco6jnOMo5zjK/884yv8AqLLCD7d/rQMAAAAASUVORK5CYII=#0#0#4294769635##KGlDb2RlLlFULlRhYlRpcG9zCkZsZWNoYQpwMQooZHAyClMnb3BhY2lkYWQnCnAzCkYxCnNTJ2Zv|cm1hJwpwNApTJzMnCnNTJ2NvbG9yaW50ZXJpb3IyJwpwNQpJLTEKc1MnYW5jaG9DYXNpbGxhJwpw|NgpJMzYKc1MnYW5jaG8nCnA3Ckk1CnNTJ3RpcG8nCnA4CkkxCnNTJ2NvbG9yJwpwOQpMNDI4Mzc2|MDc2N0wKc1MnYTFoOCcKcDEwClMnYTFoOCcKcDExCnNTJ3Z1ZWxvJwpwMTIKSTQKc1MnY29sb3Jp|bnRlcmlvcicKcDEzCkw0Mjk0OTIzNTIwTApzUydkZXN0aW5vJwpwMTQKUydtJwpzUydyZWRvbmRl|b3MnCnAxNQpJMDAKc1MnYWx0b2NhYmV6YScKcDE2CkkyMgpzUydsaVZhcnMnCnAxNwoobHAxOAoo|Uydwb3NpY2lvbicKUydvJwp0cDE5CmEoZzExClMnYycKdHAyMAphKFMnZ3Jvc29yJwpTJ24nCnRw|MjEKYShTJ2FsdG9jYWJlemEnClMnbicKdHAyMgphKFMndGlwbycKUyduJwp0cDIzCmEoUydkZXN0|aW5vJwpTJ3QnCnRwMjQKYShTJ2FuY2hvQ2FzaWxsYScKUyduJwp0cDI1CmEoUydjb2xvcicKUydu|Jwp0cDI2CmEoUydjb2xvcmludGVyaW9yJwpTJ24nCnRwMjcKYShTJ2NvbG9yaW50ZXJpb3IyJwpT|J24nCnRwMjgKYShTJ29wYWNpZGFkJwpTJ24nCnRwMjkKYShTJ3JlZG9uZGVvcycKUydsJwp0cDMw|CmEoUydmb3JtYScKUyd0Jwp0cDMxCmEoUydhbmNobycKUyduJwp0cDMyCmEoUyd2dWVsbycKUydu|Jwp0cDMzCmEoUydkZXNjdWVsZ3VlJwpTJ24nCnRwMzQKYShTJ3BuZycKUydjJwp0cDM1CmFzUydw|b3NpY2lvbicKcDM2CihpQ29kZS5RVC5UYWJUaXBvcwpQb3NpY2lvbgpwMzcKKGRwMzgKUydhbHRv|JwpwMzkKSTE2CnNTJ29yZGVuJwpwNDAKSTgKc2c3CkkxMjgKc1MnYW5ndWxvJwpwNDEKSTAKc1Mn|eScKSTE2CnNTJ3gnCkkwCnNic1MnZGVzY3VlbGd1ZScKcDQyCkk2CnNTJ3NpTW92aWJsZScKcDQz|CkkwMApzUydncm9zb3InCnA0NApJMQpzUydwbmcnCnA0NQpTJycKc2Iu|#KGlDb2RlLlFULlRhYlRpcG9zCkZsZWNoYQpwMQooZHAyClMnb3BhY2lkYWQnCnAzCkYxCnNTJ2Zv|cm1hJwpwNApTJzMnCnNTJ2NvbG9yaW50ZXJpb3IyJwpwNQpJLTEKc1MnYW5jaG9DYXNpbGxhJwpw|NgpJMzYKc1MnYW5jaG8nCnA3Ckk1CnNTJ3RpcG8nCnA4CkkxCnNTJ2NvbG9yJwpwOQpMNDI4MTc0|OTc2MEwKc1MnYTFoOCcKcDEwClMnaDViNycKcDExCnNTJ3Z1ZWxvJwpwMTIKSTQKc1MnY29sb3Jp|bnRlcmlvcicKcDEzCkw0Mjg5Mzk2NDgwTApzUydkZXN0aW5vJwpwMTQKUydtJwpzUydyZWRvbmRl|b3MnCnAxNQpJMDAKc1MnYWx0b2NhYmV6YScKcDE2CkkyMgpzUydsaVZhcnMnCnAxNwoobHAxOAoo|Uydwb3NpY2lvbicKUydvJwp0cDE5CmEoUydhMWg4JwpTJ2MnCnRwMjAKYShTJ2dyb3NvcicKUydu|Jwp0cDIxCmEoUydhbHRvY2FiZXphJwpTJ24nCnRwMjIKYShTJ3RpcG8nClMnbicKdHAyMwphKFMn|ZGVzdGlubycKUyd0Jwp0cDI0CmEoUydhbmNob0Nhc2lsbGEnClMnbicKdHAyNQphKFMnY29sb3In|ClMnbicKdHAyNgphKFMnY29sb3JpbnRlcmlvcicKUyduJwp0cDI3CmEoUydjb2xvcmludGVyaW9y|MicKUyduJwp0cDI4CmEoUydvcGFjaWRhZCcKUyduJwp0cDI5CmEoUydyZWRvbmRlb3MnClMnbCcK|dHAzMAphKFMnZm9ybWEnClMndCcKdHAzMQphKFMnYW5jaG8nClMnbicKdHAzMgphKFMndnVlbG8n|ClMnbicKdHAzMwphKFMnZGVzY3VlbGd1ZScKUyduJwp0cDM0CmEoUydwbmcnClMnYycKdHAzNQph|c1MncG9zaWNpb24nCnAzNgooaUNvZGUuUVQuVGFiVGlwb3MKUG9zaWNpb24KcDM3CihkcDM4ClMn|YWx0bycKcDM5CkkxNgpzUydvcmRlbicKcDQwCkk4CnNnNwpJMTI4CnNTJ2FuZ3VsbycKcDQxCkkw|CnNTJ3knCkkxNgpzUyd4JwpJMApzYnNTJ2Rlc2N1ZWxndWUnCnA0MgpJNgpzUydzaU1vdmlibGUn|CnA0MwpJMDEKc1MnZ3Jvc29yJwpwNDQKSTEKc1MncG5nJwpwNDUKUycnCnNiLg==|#iVBORw0KGgoAAAANSUhEUgAAAEAAAABACAIAAAAlC+aJAAAAA3NCSVQICAjb4U/gAAAACXBIWXMAAA7EAAAOxAGVKw4bAAASUklEQVRogdWa27NlV1XGv2+MtfY5py/pJE3SHcLNIkSJQcoLFzWCxFKokvji5Qke9X/yVd7EF0qp0lhekASkQNASCUohF9OhOslJ0ulz23vNMT4fxlx773NJLPWBYj90nV5nnrXXnPM3vvGNMRf3X7q9u3cJP5mfk+OjYXfv0qXLV37cT/J//9iP+wH+v59h/dN/3nqhTUuSkuoKyeXx0cu3b5kzIyGAoNkwLB546O2nRyIibj//PZDKeSQp4eF3PQKgBhIAIODFW9+PaBIgrUfeePidPozr5yEg4JWXXjg5PiKgFFl/zgff+s7H3vPo2QlEWz10dQesL5MkkvtHh899+xm6KSFlTuGDX73vLe979N0k54EiuVqe/Ou3nqGbQGRECzM35y88/tipkSCNz/39V6ZpCVCZGQHQB3v0HTev3nNFNUVlreDzX/+3V/Z/JIFEtAbBzMwN8wROIdRXxAwgQAgABc+gDwPpME/030ogDbR5vSi4RDOjj4CBJjnE+i1rJCkx00ATaMNY2yq5aqRIM5ACBSYIGGAcBtIlE/0cQtLh4d1aIzNmRC0AaIAy0kebllO2gJLjmClJZqYMpWrikDLlxphatESGSNWmSwAyc14ikcgQpNVygoKGENZMZiSUYK0RMwRqOm6KBlqGnZ2AgNVyCcDY0QdN6sy5yygYOVo2mcmsfqVaVqlvmFuSBjMflEFS5rWOBEBjRYIZyTQmzEjLECD3umHtZm0aSBBpLgnDYAEDYJbbE7B64vuuPwBAMAk0zkjUDx5BGweYw0wywN4EIbrNYLjg/TE2CEGiZKB3hEjARa94PoPQ/HXGYaB5/eE5hNYxoDQzRUoFhgOIkI9sq5atIaXRthBKzWBASslp2SKnUKaYdRsRkGaEKKR6SGtaNWXQEI3EBQgByBShtgy1CbQ4j1B9lidH+wcHpZiSINngxwd3H7x5k+4RCWVGDqOPO5f2bz9vbpuRbtHigRs3zS1TSinC3Gncf/F5kEpJSQg0kPe/5S0RIWm+DnM/eH1/eXIoAD2uAPLSlcvkQ4IgKVOCue3s7l0wgf0Xbz33rWfMPSKVqUgf7PrNt//SRz/JvhhSJs0OXn/1mb/6U3Pv2trCB9vZu/zrn/zUGW0F+Fef/WMaNSsmaeb2sac+tdi9VJs+5wh+6ek/u3v3VYBSKlKCD/aBj3zy/hsPnxl5+2A6FQPzh+AQAR8HmtM94eSMe2krrSsdByVsHOgDzATfBMYadxCkYKDR3MaxfgAdmgPDrEcaLWGkA+bjokcXh0qJEGhegTHnw60dkHR8dEgyWg6jxSqyNaVsZCY2uCsh1Zwj5KPF1LKFIjVYJiSYUdI8snYeUqW2VKbAFDoiUqagBE3ZB0PZlpGt0TxaYhMYMQfGuQmQpBFKtyQBik5AZgKiKybUdZoA0ywq1dMIwSxpOUcdOkgEIGOU4JohASC9NEYJsssmRJY+Blj6a5DMsu4EdCkGgPnKKYT29i4LpA096ZrTXTKrjTuNkGS0QQkf3IaOEDtdILcR6r8qhEgDnRygGtP/7QhpRmgx0kw0mNcNAay19QxCmxgg2VrSGC2ytZyiQKiVKrmAEhKJCNEsW8aqqaWkQqh2Kes/Km1FRXBbTRkJqcXsAaEsMoENQlBbRU4BKZoEVqJUqiRbpzZgS4WGYbh27zUbvMOaOYw+juPBnX0aM7LE3tyPjw6uXZtHKhXpow/jzsGdl2mmlCQoa82u3XuNtNJAZNCMZseHd1bLo9JGQLXCl67s0dQTRCYEc5tWR3fvvFzRVPMj2bR7wQQeeOgdj7/nkVrCCiaa7d++9ezTn/XRo6kUcxj9yr1v+dXf+j2aSXXbpNlqefy3n/sTGzxTypzzgH389/6wb7qk/qz8uz//zGp1AjAjkAmQbk98/Pev3HNf99GSAJJf+4fP77/4QtfWzFKUm+/76HsfucCNlgUCzWaOCZr5EAFfDLTBhkH0Mjw9MIzg7DdtkGA++DjCHHSaz9aGtLISRppgpAE2LBYwg7nZUKG+xr3+RjBaH1kSTD/lHqzWZrU8QS8aOu6VYkm0hsJd0bJFhiRuAiO1TjERAk25CYxoQjkcbAJDJcgwQG3VsiWk1tbFUcedQM5PAapNLaeGVLRzMSDotdf2Ac2aNf9LKtPYjN6iPKDcEmpEAgascz5KMQmUAaKJyC5awvYwlGJOrcK4PLs5SEhZdq+EloQxoahVpkFI46kZlBu1B2883LesI2TbCGVgGEf6jFC3paBVZt1CKDtCfbu7+AI0MwOskk4Hw3zYWdAc5uY+I0S6sSPEnkHgvhjpwxsgNH/yDRCCWYYUcRYhQWvFBCIBM0jRonxexFz0VkGjhLCNUEyhFpDahBmhYkwEMst7E6aYsuxwxDmE+tNHm5atV+VQ+b42rXb3Rh+8TQn3jBgWwzDYtDyCUZHoJtyn1XJ3dzT3jHRzDV4qNC2PUCm8W3SS3N0dV5MkyVKDE6R7tNXy5LBX+lXO0sbRFotFTyju9VTufsEEbt/63r9884tn8sD9D77tyac+3dUdgkSzgzuv/M3n/sRHj0ikMsIHX+xdevKpT9cOzLtHkH/52T+mmRLK1JwHnvydTy929mq1+7qTX3r6z15//VUAvcwQzO2DH3vq53/lrTWmgonA7cN2wQQE2jAoMSyGaAmlYOYz7m6zTec8UsM4ZlTZ7WYOWnFMIjNAIwE4SbphUEwAzdzWfBu9eOr/NZPoiyGmScIcGOx1Ym/YXGQlWptItgk0ZkIRMWVHcI371tJGAGZKZWS2SjJc+5beGoIkZLJwz5bZEkK0OaVW4ZBV8iNV3hsZmS2VaA29pu6RWRScjwHp1f2XoFIozxaSgHRLZavuCtbdBxJKQyM6bEASJBqYglXGLS8Nwq1BlqnMJIUMusox9SmW2SHcEtm6MFBQmKl86+aZBfBcUQ/ygRtvFWg+SBzG0YbRx0GgucN4VltBuisxLEYfFzY4rJJuR8jMq7VBUnDCbBiHxcJ8VkywBpg5aaw1FkuXh53R3OluPsy7arM/IMzOTWAOoxbo7YCOECUiZ38/IwQyghUbyswplTiFULdTkJCiaJAyFC2JDULYQkgbhJSJjlB0hCq5dYRObcB2V0JpCMJiFcqE0s2UrQoIXYjQNCPEIAJz5dwtrxKkcUYokpAUtDdHqPoXCcnQEZolSOcR4uHB3Wqvf+cH37txeUHjtmLu37711S/8hQ0eU0jKiHExXL52/Ynf/N0z2trd6LonkN2NfuL3/6gM5ra2/t2ff2a1PJHmQhE0tyc+8QdX7rlvflZAIu1rX/z8y7dfKGHoemX20M999CNP/AaAo8OD7bTMNe6QeuVG0l3isDNGk7mJNLO1bwWqzVNWwgX4OELKNs32gSAAs251sMYd4DB4tibR3GbFrO/PuSdAMxPoY19Ee6MYmPd8xj1VhV+GVSmtzJhSQfVg7d3urjpgJqutl5kxCWBUYGwUMwFWVVeNTCViSgAt1gtWzWn1mydFIyExWyiVeb43Kr10+xbQ+9HKbjxBKYOYCG+rQGZv3WUDErDcBIagJBrlraUiwVCWs9c6MjaBYdmmVgiRqZC5Zjc6B0Ztk6WiCcgMIJGETWcnQPLBm2+784Pv0yjAqpu6XhFzieNizJRl1J4WQmY2V3rVDXIUQoMyJqAQqtRp/fm0QYigDZ7RlNggVI2Oshi2QWgcPVoo/0eE+snAGiH2LatKZUqpI4Q1Qn3HmEnRACgVq5wR4qyYlaEqqVulZ4h9ZNhcMWiDUFkBGiDB1PJihLbCuLJ6FEpgVUYT6dPJsmyusRAquzu3+yAgOWtrtgDLummDUG4jFJhaCtFWpM4i1O2waB0hADFNUErkaYQ2MvrMs3/78n98xbx2KpU5LIZr9994/Bc/AmOVjiUCRwd3vv7s01u+NXwcxp29D330t+tgoUK7Dhqeffqz3TVlIrPc6Ic+9tS42Dnda7B//vJfHx68LkEZUkI0t/d98Nev3fdAB0S9v7a/sp/+qXfjjIxGZJtWaEQ/Psk4acpc7F4CMfe+BWC1PJmmJRtpltnrFzNf7F7uI2ulAZLL5dKMMIeUManR3cbFzs7upRmthADjalpN00lFS7QmwdLch529S+o61t2otdUFMUBjhEmkOTKjSbKqQ2fie2CAzHTBqoyNJohZgbHuoKQA1lmG6LV6MYm0SKvjMJ3F3YDSD5ZvzZxbv1Ulb1XXp2NAevH2C5CARtp0PFXas4GKVruWs4NBz+0T6dMyNadSZMwh1JN/TysMKCOQrQGpAN22cI96JAJumdkgrFYrQhmyAWvTka3Nkn1ehcgHbz4swd0ADjuDL8ZhMQqw3qKBmdN97u3QzCAMi2HYWfg4gGbeu69mRh+qt9Nrc3BY+Li34+MAK21VtZ7Mh9LTOkEzo7kvdndsGGzw+pY+cvByxBcXNGuEsjrx1ZeUF0LdbZUzFwFmes7nANEEMGUQNXdeZ4RQCCkB8TxC88hyo6aOkGVojdAsZMQbFjRzkAPNaKujZXUObLwYISmBZvTpZJUZVEJvjpAiFFMjtxESoMi5TQ+4SdkgLJcrK99XLZtTCJ1tr29k9Fvf+fd7fbXuIJRi3r3zynef+4YP3qaAVF2J3b2rj77vA3NvVNWVaNPqm//0xepKlAqbG83e/6Ent+9ZRcm3vv7M1KbecK55mv3M+z+8u3d59kC1E/a9b3/j7p3X5jZ3QqDbfe/+xV/+0K/hjIyOi50rV65WL36tmMvlyeHd13pvPlMROCbNr957vfiunQa5Wp4cvP6aGemmVLQJcHdeuXY/yW3FpPHg7p3WlhWO2aZyo7t7l6/ee/2UtpLLk5PDu6+CRkNMreLkynSRjM4zP6WYJFOeCTOTEIF+cCtuAqOrJ2fZpcBsIBlp6LjPHnO2EuBQcZJNBNeKqVkx5+cxsQdGdcQyz50TS3rp9gs1A5LbtEkJNXNbHi9ruzkwM+bAmF9KKOOLoGyaMluQqayTudpOpbIWhqSZ2jRlIk5WpDLALSuRbao7kmaushKro6n0+rSKzkF8/YGbd57/LxoBmPsaIVQ1D447Q53+omoTAig3SuTsW0kAw86Accg2AezaSoDmsC03KhoHNx+roIF7j9vqja4RUqpsq48eU5Nkdk5GSVazrh8u9t7OBqFImDlmhHQWoV6RpUzok4umfqouztb8DEJe1ixblT4XIQQI2whBydQbv2rwZggdLXv9PlARYEeoztk7QgzCpmVmCyKVLDcKAVJsI+RqU2RqmlZkInwboWituhCs0IsGYHk4ERcgtJHRf/zqswc//GbV75DKje7sXX3rO97dK31JSndfLU9++N3nesdXKaUP7sPinY88ttHWVPV7/vO5b7Ca2xVCZjR713set6G7GM1u9Nb3v71cLnvlWRfNHn7Xe3Yv9Vf6quFH49Fwz88++l6ckdHl8fFr+z+imQCFlAHygZtvv37j4TOKefD6q6++9AK96jJlm0jbvXT5+o23zYqpql1IfvULn6+EICmnJtDd3v/hJ8+70W//85cPD1+rgqy7UbNHHvuF6zcers7A+mW2duGrBjRGekSVlMiYZRGnFbOshIZMK6+SjYBpbSWI3usBJaRccAmAReACKyHVuV4W7imYKwBZytcoV8Uu1AOcjQEd3HkdENTMCvcANA6LOqKgnQoMdCthy+OmCKKOLWYrEeqB0RtbiVQLZWtkZojm3UpIodNWojUJ03IigjCyXg84YyUuKCl56epVpdxJ47g7KKxeYzBnd6NuAtaKaUYS444rLWthZzdaDZ81QoBoHAfXaNmaQB/6uwWntNUoyZykDaNFM6XcuNHWYYPQ9qfPxsxo1hFy7xV6L71LW21uAZUbtUjWmUAG3gQhrRHijFCsEephjN5FNcEzQfOaVMhVB/3bCJ1/W2X+zAgddsW8CKHeGwXSaMvj1YwQ3wghWiIVoWiNOI+QiDpHhRvq5YJpuSKCNFSj7AxCeIOuxPUbbwd+jXMfGAkadvYu3z7chLwkMlvuPPT4E+xtMNRbUD749ntIVQQCuPnYr1YvXXOj34z7J7KNIauWLe951/svtdX2SBoP7dK0uW0f6eNCUlQ75/Dgrk5/lkcH+y+/dOZiWx6+ePvFMxeVsf/SuYvSj57//gUXb/3g/MVX989+kaQXf/T8hRcz56/NvHt0dLxcvvLKK5tEtr3MwNz6fNOL6Jn17AvY/5uLOn/Pk+Oj8y/Uq7ScANAiWsTuYvHy/j5/Ql+/P1lNmYls/w3WEZk9ba0powAAAABJRU5ErkJggg==#0#'
p42
sa.