(lp1
(dp2
S'NOMBRE'
p3
VWine
p4
sS'BASE'
p5
VFantasy#Arial#N#60#60#2#100#120
p6
sS'TEXTO'
p7
S'4294967295#4293056974#4289235330#KGlDb2RlLlFULlRhYlRpcG9zCkZsZWNoYQpwMQooZHAyClMnb3BhY2lkYWQnCnAzCkYwLjgwMDAw|MDAwMDAwMDAwMDA0CnNTJ2Zvcm1hJwpwNApTJzMnCnNTJ2NvbG9yaW50ZXJpb3IyJwpwNQpJLTEK|c1MnYW5jaG9DYXNpbGxhJwpwNgpJMzYKc1MndGlwbycKcDcKSTEKc1MnYW5jaG8nCnA4Ckk0CnNT|J2NvbG9yJwpwOQpMNDI5MjMzMDY5OEwKc1MnZGVzY3VlbGd1ZScKcDEwCkk2CnNTJ2ExaDgnCnAx|MQpTJ2QyZDYnCnAxMgpzUyd2dWVsbycKcDEzCkk1CnNTJ3Bvc2ljaW9uJwpwMTQKKGlDb2RlLlFU|LlRhYlRpcG9zClBvc2ljaW9uCnAxNQooZHAxNgpTJ2FsdG8nCnAxNwpJMTYKc1Mnb3JkZW4nCnAx|OApJOQpzZzgKSTEyOApzUydhbmd1bG8nCnAxOQpJMApzUyd5JwpJMTYKc1MneCcKSTAKc2JzUydk|ZXN0aW5vJwpwMjAKUydtJwpzUydyZWRvbmRlb3MnCnAyMQpJMDEKc1MnYWx0b2NhYmV6YScKcDIy|CkkyMApzUydjb2xvcmludGVyaW9yJwpwMjMKTDQyOTIzMzA2OThMCnNTJ2xpVmFycycKcDI0Cihs|cDI1CihTJ3Bvc2ljaW9uJwpTJ28nCnRwMjYKYShTJ2ExaDgnClMnYycKdHAyNwphKFMnZ3Jvc29y|JwpTJ24nCnRwMjgKYShTJ2FsdG9jYWJlemEnClMnbicKdHAyOQphKFMndGlwbycKUyduJwp0cDMw|CmEoUydkZXN0aW5vJwpTJ3QnCnRwMzEKYShTJ2FuY2hvQ2FzaWxsYScKUyduJwp0cDMyCmEoUydj|b2xvcicKUyduJwp0cDMzCmEoUydjb2xvcmludGVyaW9yJwpTJ24nCnRwMzQKYShTJ2NvbG9yaW50|ZXJpb3IyJwpTJ24nCnRwMzUKYShTJ29wYWNpZGFkJwpTJ24nCnRwMzYKYShTJ3JlZG9uZGVvcycK|UydsJwp0cDM3CmEoUydmb3JtYScKUyd0Jwp0cDM4CmEoUydhbmNobycKUyduJwp0cDM5CmEoUyd2|dWVsbycKUyduJwp0cDQwCmEoUydkZXNjdWVsZ3VlJwpTJ24nCnRwNDEKYShTJ3BuZycKUydjJwp0|cDQyCmFzUydzaU1vdmlibGUnCnA0MwpJMDEKc1MnZ3Jvc29yJwpwNDQKSTEKc1MncG5nJwpwNDUK|UydceDg5UE5HXHJcblx4MWFcblx4MDBceDAwXHgwMFxySUhEUlx4MDBceDAwXHgwMCBceDAwXHgw|MFx4MDAgXHgwOFx4MDZceDAwXHgwMFx4MDBzenpceGY0XHgwMFx4MDBceDAwXHgwNHNCSVRceDA4|XHgwOFx4MDhceDA4fFx4MDhkXHg4OFx4MDBceDAwXHgwMFx0cEhZc1x4MDBceDAwXHgwZVx4YzRc|eDAwXHgwMFx4MGVceGM0XHgwMVx4OTUrXHgwZVx4MWJceDAwXHgwMFx4MDFceGYzSURBVFhceDg1|XHhlZFx4ZDc9a1x4MTRBXHgxOFx4MDdceGYwXHhmZlx4OGNceGI5XHhkNFx4ODJceGE1XHg5Zlx4|ZTAuXHgxY1x4MTJceDgyXHhlZVx4ODVkL1x4YjExXHgwMTFceGE0XG5aWFxcXHhiYVx4OTRpU1x4|YTZceDExXHgxNFx4MGJceGQzKSZceDgyZVx4OGFceDgwXHhjNkZceDFiXHhjM1x4Y2VceGVjXHhk|ZVx4ZGVceGVjXHg5MVx4MTBceGY1Zlx4OTZceGUwXHgwN1x4MTBceGFiM1x4YmVhXHhlZW5ceDFl|XHgwYkFceGU1Ilx4MThceGM0XHg5Ylx4YjFceGYwXHhkZlx4Y2RceGYwXHgwY1x4Y2ZceDhmKVx4|ZTZceDA1XHhmOFx4OWZceGJlXHgxMFx4MTFzXHhkOVx4OGZceGZmPHhceDlkXHhiZVx4MTgzMlx4|YmRceGUzXHJceGQwXHhlOX5ceGFjMXZqXHhkMVx4ODhceGM2XHg4ZStceGMwXHhiMVx4ZWRceGZl|XHhkNlx4OWNceDhkXHg4MVNSXHg5Y1x4MDhmXHgwNlxyXHhlMFx4ZmRceDEzXHhjNTBceDk4XHgw|Nlx4YTdceDg0XHhjMFx4YzZceGI1XHhjOFx4MWU5XHgwN1x4MDBAcSJceDk4QVx4OGZ2XHgwMExr|XHhhOTZceDlkXHgwM1x4MDBceGEwVFxyXHhlNlx4YzBceGU4KWN0XHhjOVx4ODhceGVjXHhhMXNc|eDAwXHgwMFx4OTQmLyxceDkwXHhjNTYxO2dceDg0XHhiYVx4ZTdceDFjXHgwMFx4MDBceGE1MFx4|YjhceGNlXHg4OG1ceDEyaCFceDE3am1ceDEwXHg4OFx4MTMlXHgxN2pNR1x4YWFceGFkRVx4ZTNc|eGE2N1x4ODRceDk2XHhmNVtaNlx4ZGFGXHhhYVVvXHgwOCNceGQ1XHhhYVx4MTFceGFhbWRceGJh|XHhlMlx4MTFceDkxXHhhZWhceGExXHhkZWlceDk5LXtDaFx4OTkta1x4YTFceDBlW1F9XHhjOVx4|MWJceGEyXHgxNVx4ZDVceDk3clx4YTFceDBlTVx4YWNqXHhkZVx4MTAmVlx4YjU8Vlx4ZWZ1XHhh|NFx4YWV6Q1x4ZTgoXHhiZGZceGE0XHhmYVx4OTBceGM3XHhjZHlvXHg4ODxuXHhjZVx4ZWJIfVx4|Y2FceGEzZFx4ZDZceDFmIkpmXHhiNVBceDlmXHgwZlx4OTJceGRkXHhhOVx4OTNceGFlXHhmOVx4|ZWJceGNmXHhhZlx4ODNkd1x4YWFceGQ3XHhlYjxceGIzZFx4YWIjXHhkNVx4ZjFceDg2c1x4MDBc|eDAwXHhiNFx4YTJ6XHhjMFx4MTlceDE3XVx4ZDBceGY5clhceGQ5d1x4MGVceDAwXHg4MFx4OTci|PTdceGM0eVx4OTNceDFkdVx4Y2FceGI2MFx4YjRceGNlXHgwOFtceGM1MFx4YjhceGRkX1x4Zjdc|eGRiXHhkYlx4ZjBPU1x4MGUrXHhmYlx4ZWNceGE4U1x4YTZCXHhlMVx4MTU4XHhiZlx4MGJceGUw|XHhjNlx4YWZceGVhXHgwNlx4MDZceDAwXHgwMFtceDE4XlwnXHhjZVx4MTZhXHhlOVx4MDFceDgw|XHhiNy1ceDk5bThceDA1MFx4YjJbXHhhY0dceGY3XHhiOVx4YjVvXHgwOFx4ZWMsXCc6dmI6XHhm|OVx4ODRoXHg5OW1ceDAwXHhiNlx4YzZceGMwYGFceDlmXHg4Y0xWXHhhZThceDA1XHhmY1x4ODA0|XHgxZVx4ODNwXHhmOUt3XHhmOFx4Y2NceGU4XHhjNVx4ZDFceGI2XHhjYlx4ZGVceGRmXHhiM1x4|Zjd8XHhlZlx4YjRceDk3XHhjNlx4ZmZsXHhiZVx4MDJceGM2XHgwNlx4ZGVceGQ4XHg4YiRceDgy|XHhiMFx4MDBceDAwXHgwMFx4MDBJRU5EXHhhZUJgXHg4MicKcDQ2CnNiLg==|#4286212691#4283851879#False#KGlDb2RlLlFULlRhYlRpcG9zCkZsZWNoYQpwMQooZHAyClMnb3BhY2lkYWQnCnAzCkYwLjgwMDAw|MDAwMDAwMDAwMDA0CnNTJ2Zvcm1hJwpwNApTJ2EnCnNTJ2NvbG9yaW50ZXJpb3IyJwpwNQpJLTEK|c1MnYW5jaG9DYXNpbGxhJwpwNgpJMzYKc1MndGlwbycKcDcKSTIKc1MnYW5jaG8nCnA4Ckk0CnNT|J2NvbG9yJwpwOQpMNDI4NDEwOTY1M0wKc1MnYTFoOCcKcDEwClMnZDJkNicKcDExCnNTJ3Z1ZWxv|JwpwMTIKSTUKc1MncG9zaWNpb24nCnAxMwooaUNvZGUuUVQuVGFiVGlwb3MKUG9zaWNpb24KcDE0|CihkcDE1ClMnYWx0bycKcDE2CkkxNgpzUydvcmRlbicKcDE3Ckk5CnNnOApJMTI4CnNTJ2FuZ3Vs|bycKcDE4CkkwCnNTJ3knCkkxNgpzUyd4JwpJMApzYnNTJ2Rlc3Rpbm8nCnAxOQpTJ20nCnNTJ3Jl|ZG9uZGVvcycKcDIwCkkwMQpzUydhbHRvY2FiZXphJwpwMjEKSTIwCnNTJ2xpVmFycycKcDIyCihs|cDIzCihTJ3Bvc2ljaW9uJwpTJ28nCnRwMjQKYShTJ2ExaDgnClMnYycKdHAyNQphKFMnZ3Jvc29y|JwpTJ24nCnRwMjYKYShTJ2FsdG9jYWJlemEnClMnbicKdHAyNwphKFMndGlwbycKUyduJwp0cDI4|CmEoUydkZXN0aW5vJwpTJ3QnCnRwMjkKYShTJ2FuY2hvQ2FzaWxsYScKUyduJwp0cDMwCmEoUydj|b2xvcicKUyduJwp0cDMxCmEoUydjb2xvcmludGVyaW9yJwpTJ24nCnRwMzIKYShTJ2NvbG9yaW50|ZXJpb3IyJwpTJ24nCnRwMzMKYShTJ29wYWNpZGFkJwpTJ24nCnRwMzQKYShTJ3JlZG9uZGVvcycK|UydsJwp0cDM1CmEoUydmb3JtYScKUyd0Jwp0cDM2CmEoUydhbmNobycKUyduJwp0cDM3CmEoUyd2|dWVsbycKUyduJwp0cDM4CmEoUydkZXNjdWVsZ3VlJwpTJ24nCnRwMzkKYShTJ3BuZycKUydjJwp0|cDQwCmFzUydjb2xvcmludGVyaW9yJwpwNDEKTDQyOTIzMzEyMTBMCnNTJ2Rlc2N1ZWxndWUnCnA0|MgpJNgpzUydzaU1vdmlibGUnCnA0MwpJMDEKc1MnZ3Jvc29yJwpwNDQKSTMKc1MncG5nJwpwNDUK|UydceDg5UE5HXHJcblx4MWFcblx4MDBceDAwXHgwMFxySUhEUlx4MDBceDAwXHgwMCBceDAwXHgw|MFx4MDAgXHgwOFx4MDZceDAwXHgwMFx4MDBzenpceGY0XHgwMFx4MDBceDAwXHgwNHNCSVRceDA4|XHgwOFx4MDhceDA4fFx4MDhkXHg4OFx4MDBceDAwXHgwMFx0cEhZc1x4MDBceDAwXHgwZVx4YzRc|eDAwXHgwMFx4MGVceGM0XHgwMVx4OTUrXHgwZVx4MWJceDAwXHgwMFx4MDJceDEwSURBVFhceDg1|XHhlNVx4ZDY/a1x4ZGJAXHgxOFx4MDZceGYwXHhlNz01NFx4OTBceDE2XHgxYVx4ZGFmMSRLXHgw|Y1x4YzZceDg5XHg4N2RceGYyXHhkYy9Qalx4YjBceDk3anFcdE5ceDg3di5ceDE0XHg4Y3pDXHhi|Ni5ceDFlXHgwYlx4YTZceGM5XHhkNEUlQ0JceGEwXHhhYlx4YjZceGNjMVx4YjhceDA2XHg3Zlx4|MDJceGY3XHhiMFx4MGNtXHg4M1x4ODkjXHhmYlx4ZWRQXHhjOVx4OTZceGUzOFx4MGVceGQ2XHg5|Zlx4MGN5XHhhNlx4ZDNceGExXHhlM1x4ZmRceGExXHhkM1x4YmRceDEycFx4ZGZDXHhkZVx4YzAw|XHgwY1x4ZDFceGFjXHhkNVx4OGJEXHhlMFx4ZjVceGNkXHhmNFx4ODFceDk0clx4MTBceDA3QFx4|ZjNceDA2XHg4OVx4YTcrb0BceGE4XHgwMnhpXHhiN1QiV1x4YzhceDlmWFx4OTZceGM1UVx4MDNc|eDg0NyBceGMyXHhhOFx4MThhXHhhN1lceGFiXHg3ZjFceDBjQ1xcXHhiYipcblx4YzBceGZhZlx4|ZmFceDAwXHg4Y2pceGRjXHg4OFx4ZTFceDE2WFx4OTZceGM1XHhiOUJceGZlXHhjNG5ceGE5XHgw|NFx4MDhceGRiLmI7XHhlYVx4ZWRceGQwXHhmY1x4MTd3XHg4MVx4ZDBceGFlTlx4YzRceDhkXHg5|OFx4MDBceGM0XHg4ZFx4YjhceDE2XHgxMFwnYipceGUwRlx4YzQvXHhmNVx4YTRceGY2XHhiM1x4|ZmUjXHgwY1x4YzBceGNjIyZceGE1XHgxYyQzXHhlOV1ceGZmXHgxMWVceGU2Ylx4MThceGM1b1x4|MDVceDE4Q1x4MDBceDE1Zlx4ZmVcclx4YTJceGNmYVx4MDFceGVlPDRceGZiXHg5Nlx4ZTl5XHhm|ZFx4YWFceDkwZVx4YzF7YD5NZjZceGNhXHhmM3xceGMwXHgwMlx4YjVZXHgxNlx4YmNceDA3XHhl|MFx4MDVceDg4PjZrXHhmNVx4ZWE8bTtYXHg5Zmc+XHgxZFx4OGVcdFx4YzV5XHgxMFx4ODFceDAw|XHhjOVx4Y2NGXHgxOVx4OGNceGZkIFx4ODhceDFiXHhmYlx4YzBceGFjXHhiOH1ceGUyXHhkOG5c|eGE5VVx4MTBceGI2XFxceGM0XHg5Nlx4ZGRSXHhhYlx4YjlCXHhmZVx4Zjg2XHhjZCpceDEwIFx4|MGNEXHhhMFNceGUwXHg4Zlx4ZmJLV1x4MDVhXHhkNFx4YTRceDE4XHhmYlx4OGZceDllLVx4ZWZc|eDllXHhiN1x4ZGJceGQ5XHg5ZVx4MTBcclx4ZDM0VWRceDgwXHhhOVx4ODhceDAxXHgxYVx4MTBI|XHg4MVx4YTEuNVx4YTRMXHhkM1x4YjRceGZka0JceGZkXHhkYnE7XHhlNlx4Y2VceGQ4XHg4Yilc|eDkwXHgwMlx4MDBceDEwXHg5ZS9ceGY0XHhmOVx4ZmRceGQ1NVx4YTE+XHgwMS9ceGE1UmlceGUx|XHhhZlx4ZWFceDljXHJceDhie2FceGVlLDpceGJkXHhiNVx4YWZHR1x4N2ZGXHhiZVx4MDhyXHhk|ZW5nXCdceDhhXHgwM1x4MDBceGQxclx4ZjdceGMxXHhjM1x4YjdceGZlXHhhOUhceDAwPSFceDFh|YExceGJjcFx4ZmZceDExXFxceGQ2dX0pUlx4ODBpXHg5YVx4ZWFSQ1xuXHhjY1x4OWZceGMwXHhk|Y1x4MTlceGFiXHgwZnpceGRjXHhlZl5UIlx4MDVceGI4XHgwOFx4ZmJceGRiXHhlMXdceGI5XHhl|OFx4ZjRceGQ2XHhjMFx4ZmNceDgxXHhjMVx4YzN9XCdceDg2M1x4MDJceGM1XHgxNF1ceGQ3XHg5|N1x4ZmFceGRkXHg4YlxuMVx4OWNkJlx4ZmROSlx4ZTlceGNjXnVceDFmXHhmMlx4MGZceDFjXHhl|MjJceDlmXHhhYlx4YTBdNlx4MDBceDAwXHgwMFx4MDBJRU5EXHhhZUJgXHg4MicKcDQ2CnNiLg==|###0#0#4294769635##KGlDb2RlLlFULlRhYlRpcG9zCkZsZWNoYQpwMQooZHAyClMnb3BhY2lkYWQnCnAzCkYxCnNTJ2Zv|cm1hJwpwNApTJzMnCnNTJ2NvbG9yaW50ZXJpb3IyJwpwNQpJLTEKc1MnYW5jaG9DYXNpbGxhJwpw|NgpJMzYKc1MnYTFoOCcKcDcKUydkMmQ2JwpwOApzUydhbmNobycKcDkKSTUKc1MnY29sb3InCnAx|MApMNDI4Mzc2MDc2N0wKc1MnZGVzY3VlbGd1ZScKcDExCkk2CnNTJ3Z1ZWxvJwpwMTIKSTQKc1Mn|cG9zaWNpb24nCnAxMwooaUNvZGUuUVQuVGFiVGlwb3MKUG9zaWNpb24KcDE0CihkcDE1ClMnYWx0|bycKcDE2CkkxNgpzUydvcmRlbicKcDE3Ckk4CnNnOQpJMTI4CnNTJ2FuZ3VsbycKcDE4CkkwCnNT|J3knCkkxNgpzUyd4JwpJMApzYnNTJ2Rlc3Rpbm8nCnAxOQpTJ20nCnNTJ3JlZG9uZGVvcycKcDIw|CkkwMApzUydhbHRvY2FiZXphJwpwMjEKSTIyCnNTJ2NvbG9yaW50ZXJpb3InCnAyMgpMNDI4OTM0|NTUzNkwKc1MnbGlWYXJzJwpwMjMKKGxwMjQKKFMncG9zaWNpb24nClMnbycKdHAyNQphKFMnYTFo|OCcKUydjJwp0cDI2CmEoUydncm9zb3InClMnbicKdHAyNwphKFMnYWx0b2NhYmV6YScKUyduJwp0|cDI4CmEoUyd0aXBvJwpTJ24nCnRwMjkKYShTJ2Rlc3Rpbm8nClMndCcKdHAzMAphKFMnYW5jaG9D|YXNpbGxhJwpTJ24nCnRwMzEKYShTJ2NvbG9yJwpTJ24nCnRwMzIKYShTJ2NvbG9yaW50ZXJpb3In|ClMnbicKdHAzMwphKFMnY29sb3JpbnRlcmlvcjInClMnbicKdHAzNAphKFMnb3BhY2lkYWQnClMn|bicKdHAzNQphKFMncmVkb25kZW9zJwpTJ2wnCnRwMzYKYShTJ2Zvcm1hJwpTJ3QnCnRwMzcKYShT|J2FuY2hvJwpTJ24nCnRwMzgKYShTJ3Z1ZWxvJwpTJ24nCnRwMzkKYShTJ2Rlc2N1ZWxndWUnClMn|bicKdHA0MAphKFMncG5nJwpTJ2MnCnRwNDEKYXNTJ3NpTW92aWJsZScKcDQyCkkwMQpzUydncm9z|b3InCnA0MwpJMQpzUydwbmcnCnA0NApTIlx4ODlQTkdcclxuXHgxYVxuXHgwMFx4MDBceDAwXHJJ|SERSXHgwMFx4MDBceDAwIFx4MDBceDAwXHgwMCBceDA4XHgwNlx4MDBceDAwXHgwMHN6elx4ZjRc|eDAwXHgwMFx4MDBceDA0c0JJVFx4MDhceDA4XHgwOFx4MDh8XHgwOGRceDg4XHgwMFx4MDBceDAw|XHRwSFlzXHgwMFx4MDBceDBlXHhjNFx4MDBceDAwXHgwZVx4YzRceDAxXHg5NStceDBlXHgxYlx4|MDBceDAwXHgwMkNJREFUWFx4ODVceGVkXHhkNk9IXHg5M2FceDFjXHgwN1x4ZjBceGVmXHhmM1x4|YmNceGVmXHhlM2YwXHhhMlx4MGVceDg5XHg4MVx4YzJceDA4ZVx4YjAxJlx4YTVOYVJceDhlXHhj|MFx4MGVceDFlXHg4YWJceGU0XHg5Y1x4ZDFceGJkS1x4OWJceGMzMFx4ZTlQXHg4N1x4ZThQXHgx|ZFx4YmFGXHg5N1x4OGFceGEwQjtceDE4Ylx4ODQsXHgxMVx4ZjdceDBjQnlceGRmNVx4YzFTXHhl|ZFx4MTBceDA4XHgxZVx4ODJceGNjXHhkNlx4ZTZceGZiXHhiY09ceDA3PVx4ZDQyMlx4ZDhceDll|XHhmN1x4ZTJceGY3XHhmNlx4YzBceGVmeX5ceDFmeHhceGZlXHgwMFx4ZmJceGY5M1x4YzRceGIx|XHhjZXFceDhjNydYXHhlYVx4OGRceGNhXHg5ZVx4ZjRceGQ3XHgwMWFceGU1XHhjN11ceGM3Jlx4|ZmJceDg3XHhiNFx4YjE1XHg5NVx4ODhceGRmMlx4YTRceDhkXHhhZFx4ZGRrXHhmM1lDXHhkYVhc|eGQxSURceGYxXHhiNjdUXHg4OVx4ZWJceGU5VVx4YzdceDEwcT1ceGJkelx4YjNceGI1XHhlN1x4|YzdceGIwXHg5ZTJceDFjQ1x4MGNceGViKVx4ZTNceGM2XHhkMVx4OTNceGRmXHgxM2xceDk0O1x4|ODdgXHhhOVx4ZGN4XHhmM1x4YzBceGI3XHgxMVx4OTZceGNjOFx4ODZceDE4YVx4YzlMXHhmYVx4|YzhceGUwRlx4ODIlZ1x4MWNDJFhyXHhlNlx4ZWFceGUxXHhmM19ceDEzLFx4ZjlceGIyXHg5Nlx4|ZWJqey00XHhlZFx4ZWNceGQzNmtceGUwXHhmOFx4YTFceDAza1x4YTdceGRiZVx4ZDRvXG4+XHhh|NVx4MTRceGIwXHg4M3hceGRlLlx4YTN+XHg4Zlx4ZWJceGNiXHhhMFx4MGZceGZkXlNceGYwaVx4|YTVceDAwXHgwMDBceDA1XHg5Zlx4ZjJceGExXHhkZlx4ZGJceGE4b1x4YzZceGZjNFx4ZDJkXHgw|OD5ceGFiXHgxNFx4YjBceDgzXHg5OFx4ZjZceGQzSFx4MTNceGEzXHhlNVx4Y2JceDAxXHgxMlx4|ZjFceDk4Nlx4OWZTXG5ceDAwXHgwMENceGYwXHhkOVx4MDBceDg5eDQqXHhhZVx4MDRceGI1XmJc|eDA4XHhiZVx4YTBceDE0XHgwMFx4MDBceGE2XHhjZFx4ZTdceDgyWi9ceDkxXHg5MlxcXHgwYlx4|ZDFceGVlXHg5MmFceGYzXHg5Y1JceDAwXHgwMFx4MThceDgyL1x4ODRod0lAXHhiZlx4MTVceGQ0|XHhjMlx4ZWJ5O1x4YmJceGE0XHgxNFx4MDBceDAwXHg4Nlx4Y2RzXHgxZCxceGJjblx4OGJceDg2|XHhmYkFceGJkXHhlYlNceGRlXHhjZX5QXG5ceDAwXHgwMENkXHg5N0J6Z1x4ZDFceDEyXHhlZVx4|ODdceDFkNFxcMFx4ZTVceGUyXHg5ZV5ceGQyXHg5YVx4MDFceDAwXHhjMFx4YjR5XHhiZVx4ODNc|eDg2XHgwYlx4MTVceGRiXHhmNVx4ZWNceDg0K1x4Y2Ncclx4YjFceGY4XHhmMV9zXHhlYVx4ZjJc|eGZmXHhiYlx4ZTRKR0tceDE1XHhmN2tNK1x4OWRceGQyLGlceDAyXHhjMFx4MTNceGRjXHhkZFRc|eDA2XHgwMFx4ODBceDhiXHhmYWhceDhmJVx4MWFceGRmXHhiOVx4ZjRKZ3lceGNiXHhiZFx4MGNc|eGIwXHg5Nlx4MTdceDk4XHhmOFxcXUd3XHg5YlxcXHg4YmhceDk2NFx4YjdceDliXHhiYlx4ZGVc|eDAzXHg5OFx4MDRceGNhXHg5OVx4ZGRceGVhXHhlYVx4MDZceDAwXHg4MFx4ZjJceDk2e1x4OTlc|eDAwXHhhZiRceGU0WVx4ODBceGI0XHhjNjBxTlx4MTlge1x4Y2ZZXHg4Ylx4ODRceDBjUUhceDBi|IFxyXHgxMlx4ZjRRdV1NT0F1VjBceGI3XHhiMVx4ODJceGY5XHgwNz5ceGY0XHhhZFx4MDA4XHgw|M1x4ZDBceDgzXHgwMVx4ZDJceGQ3WFx4YzBceGZjXHhkYnpceGY2XHhmZGtiZFx4ZTJceGNlXHgw|NXJceGZkXHhiZm5ceGNhXHhmZFx4ZDQ9P1x4MDFceGFlXHhjZlx4Y2NceGYyUVBZJFx4MDBceDAw|XHgwMFx4MDBJRU5EXHhhZUJgXHg4MiIKcDQ1CnNTJ3RpcG8nCnA0NgpJMQpzYi4=|#KGlDb2RlLlFULlRhYlRpcG9zCkZsZWNoYQpwMQooZHAyClMnb3BhY2lkYWQnCnAzCkYxCnNTJ2Zv|cm1hJwpwNApTJzMnCnNTJ2NvbG9yaW50ZXJpb3IyJwpwNQpJLTEKc1MnYW5jaG9DYXNpbGxhJwpw|NgpJMzYKc1MnYTFoOCcKcDcKUydkMmQ2JwpwOApzUydhbmNobycKcDkKSTUKc1MnY29sb3InCnAx|MApMNDI4OTQzNzM0NUwKc1MndnVlbG8nCnAxMQpJNApzUydwb3NpY2lvbicKcDEyCihpQ29kZS5R|VC5UYWJUaXBvcwpQb3NpY2lvbgpwMTMKKGRwMTQKUydhbHRvJwpwMTUKSTE2CnNTJ29yZGVuJwpw|MTYKSTgKc2c5CkkxMjgKc1MnYW5ndWxvJwpwMTcKSTAKc1MneScKSTE2CnNTJ3gnCkkwCnNic1Mn|ZGVzdGlubycKcDE4ClMnbScKc1MncmVkb25kZW9zJwpwMTkKSTAwCnNTJ2FsdG9jYWJlemEnCnAy|MApJMjIKc1MnbGlWYXJzJwpwMjEKKGxwMjIKKFMncG9zaWNpb24nClMnbycKdHAyMwphKFMnYTFo|OCcKUydjJwp0cDI0CmEoUydncm9zb3InClMnbicKdHAyNQphKFMnYWx0b2NhYmV6YScKUyduJwp0|cDI2CmEoUyd0aXBvJwpTJ24nCnRwMjcKYShTJ2Rlc3Rpbm8nClMndCcKdHAyOAphKFMnYW5jaG9D|YXNpbGxhJwpTJ24nCnRwMjkKYShTJ2NvbG9yJwpTJ24nCnRwMzAKYShTJ2NvbG9yaW50ZXJpb3In|ClMnbicKdHAzMQphKFMnY29sb3JpbnRlcmlvcjInClMnbicKdHAzMgphKFMnb3BhY2lkYWQnClMn|bicKdHAzMwphKFMncmVkb25kZW9zJwpTJ2wnCnRwMzQKYShTJ2Zvcm1hJwpTJ3QnCnRwMzUKYShT|J2FuY2hvJwpTJ24nCnRwMzYKYShTJ3Z1ZWxvJwpTJ24nCnRwMzcKYShTJ2Rlc2N1ZWxndWUnClMn|bicKdHAzOAphKFMncG5nJwpTJ2MnCnRwMzkKYXNTJ2NvbG9yaW50ZXJpb3InCnA0MApMNDI5MjMz|MTIxMEwKc1MnZGVzY3VlbGd1ZScKcDQxCkk2CnNTJ3NpTW92aWJsZScKcDQyCkkwMQpzUydncm9z|b3InCnA0MwpJMgpzUydwbmcnCnA0NApTJ1x4ODlQTkdcclxuXHgxYVxuXHgwMFx4MDBceDAwXHJJ|SERSXHgwMFx4MDBceDAwIFx4MDBceDAwXHgwMCBceDA4XHgwNlx4MDBceDAwXHgwMHN6elx4ZjRc|eDAwXHgwMFx4MDBceDA0c0JJVFx4MDhceDA4XHgwOFx4MDh8XHgwOGRceDg4XHgwMFx4MDBceDAw|XHRwSFlzXHgwMFx4MDBceDBlXHhjNFx4MDBceDAwXHgwZVx4YzRceDAxXHg5NStceDBlXHgxYlx4|MDBceDAwXHgwMlx4YWVJREFUWFx4ODVceGVkXHg5NktoXHgxM1FceDE0XHg4Nlx4ZmY7XHQmXHg5|M1x4YTRceDExXHg5MVpceGRiWlx4ZmFceDkwalx4ODVceDgyXHgwNV1UXHgwNFx4YjFceGUwXHhj|Mlx4OGRceGY1QVx4ZTdceDgyXHg4Ylx4YTZ5XHg4OFx4YmFQcFx4YTNceDg4XG5BXHhhOFx4YTJU|XHg4NC5cXGhceDkzXHhhNlx4ODlIXHhlZFx4MTBceGVkQyxceDg4YFx4MTdceGVhXHhhMm4tLVRc|eGNkXHhhMiJceGUyXHhhMyVceDk4XHhjN1x4YTRceGE2XHhlNlx4YjhceGIwaVJceGFkXHhhZDFc|eDkzXHhkOVx4ZThceGJmXHhmYlx4Y2ZceGJkXHhmN1x4OWNvXHg4Nlx4YzM9XHgxN1x4ZjhceGQ3|XHhjNVx4YjJceDhkXHhlY1x4ZjNceGFkZ1x4YzRceGRhKW46XHhjNU9ceGYwXHhhOFx4MTZceDAw|XHhjMiJceDFhXHgxMlx4MDZceDAxXHhlNlx4ODJJXHgxOVx4OTJlWVx4ZDRceDE0IFx4MTBceDA4|XHg5OFx4MDFceGI2XHgxMVx4MDBceDE4XHhkMFx4ODRIXHhiY1x4N2ZceGI4XHhiM1x4ZDNceGEw|XHgxOVx4ODBceGYxXHg4Ylx4OTFceDExXHhkMVx4Y2JceDg1XHgwNUFceGI3XHhmZFx4ODNceGQ1|XHhjYVx4OTY+XHhhNlx4OWVceDE2XHhmN1x4ODAsXHg4YixceGEyXHhkY1x4MDdceGMzXlx4YjMo|XHhhNmoqXHhhYVx4MGZceDhkTVx4OGVcJ1NceDE2XHhmMVx4MTFceGU3XHhmY1shXHgwMFx4MTZc|eGY1XHgwMFx4ZTdcXDFHXHhjM1x4MDdceDAwXHhiYVJceGJlXHhhZVx4YjRceGY1XHhlM1x4Y2N0|XHgxZlx4MDFceDBmXHgxMVx4ODl7XHhkZG5ceGI3XHhmMFx4YmIkXHhmOWhceGQ5Xzx0XHhhN29g|djZceGIxXHg3Zlx4ZGVceGRlanFceGQ4XHg4ZTNceGM2SE1ceDgwZVx4YmZqNlx4OTFceGY4XHg5|NGVceDhmXHhkZVx4ZjVceDA0XHhlYVx4ZDQsXHhiZSJceGMwXHhkOFRceGU4XHgxOFx4MTF1XHhh|NX11XHhmOVx4ODZceDhhXHgwMVx4OGZceGE3XHg4OFx4ODhUa1x4Y2VceDE1XHgxM1x4MTFceDEx|XHgwYlx4ZmFceGZjXHhkNy0mXHhkM3RZaVx4OTlrMlx4MTRceGQyXHgxM1x4YTVuclx4YTdceGJk|XVx4MTNceDgwbFxyXHhmN1x4Y2FceGU3Y1x4OGEyX1x4OThOS05ceGZiXHhiNXxceDAxclx4ZWFc|eGVjaCxceGYxLlx4ZTNYR1x4YjA7XHhiME9TXHgwMH5ceGM0XHhkNkMpXHg5Y0l7XHhhM3FVVVx4|YmVceDAwXHg3Zlx4ZDVMXHhiMlx4Y2ZceDdmUiBceGQ2VldceGJiKVx4ZmMqXHhmNFx4ZTZFMjU3|XHhjMVx4MWRtXHhiNzVceDAzXHgwMFx4ODBceDExXHhmN1x4ODg+Vlx4ZjdceGI5WVFceGUyXHhm|N1x4MDBceDgwXHg4OCRceGVlXHhiMlx4MDc1XHgwM1x4MDBceDgwXHhkZVx4ZWVceGVlXG49dFNc|eDk5ZFx4YWNceGI5XHhjNWl7XHg5MEtceDhlXHhiY1x4YWVceGQ3XHhjM05ceGU3WyJceDkyMlx4|OTFceGQ0XHhjNVxcc1x4YThyXHhhMVx4YzhceDllXHg5ZWYmXHhiMFx4YzFceDkyXHhlMlx4OTJc|eGMxaDhxLlx4OTZceDhjXHhhY1x4OTVceDljXHhhZE81XHgwM1x4MDBceDAwXHhkOVx4ZWItXHhi|Nlx4MTZceDE1XHhhZFx4OGVceGM0XHgxMmMgMlx4MDBceGMyXHhhZT9ceDgxUHVceGRlXHhiYlx4|ZGRuXHhhMVx4YmVceGIyJjNceGI2XHg4OTVKLlx4ZGJceGE4Zlx4MDBceDAwXHgxMFx4ZjRceGY5|dlx4MTJcdFx4Y2ZceGQyXHhkZVx4MWNcdFx4MWJHZ2ZceDkyXHJVVVx4ZDZceDgzXHgwZUdceGY4|XHhlN1x4ZmRceGFhXHhjZlx4ZjhceDE2XHg4N1x4ZTM5XHg4ODVceDAyXHg4MF5ceGQwTVx4YzQs|a1x4MWFceGVhK1x4YWJfXCdTLFx4YjBceGQ0XHgxMCtceGQ4XHg5M1x4YWJceGI3XHhjYlx4YmZc|eGM1XHhhOFx4YjdceGJlZ1x4YmF4XHg3ZnJublx4ZjdceDhmKF1ceDkyXHg5Y1x4ZjZceDBiXHg5|YVx4MDBceDAwQFx4ZDBceGViXHhkZkNceDBjXHg4Zlx4YjNjZFx4MTFcclx4OWNceGYzXHhhZmlf|XHg5MGdceGQ2QjFceGQwXHg4ZF9ceDgyUVx4YTUjXHhkYlx4MTZceDE0QHJceGQ5N1x4MTNceGUx|anZceDhjXHgxMVx4OWE0XHgwM1x4MDBceDAwXHhlZWo7S1x4MTZceGQxXHgwMFx4YTJcJ0RceGI4|XFxceGJibVx4ZWJceDhlQlx4ZDdceGZjXHhhZlx4OWNceGY0XHgxZG9ceDkyXHhmNztceDAzXHhi|Mlx4YzNQXHgwMFx4MDBceDAwXHgwMElFTkRceGFlQmBceDgyJwpwNDUKc1MndGlwbycKcDQ2Ckkz|CnNiLg==|#iVBORw0KGgoAAAANSUhEUgAAAEAAAABACAIAAAAlC+aJAAAAA3NCSVQICAjb4U/gAAAACXBIWXMAAA7EAAAOxAGVKw4bAAAEoklEQVRoge2aW2/jRBTHTya+xE7TNtmmTbu9ZNM7XZCQ6IKK4AnxwEXio/LAJwBtCy2VKu0uodsubGm7adI6TmPHzsT2mIdUGM4JAipEmGrPS62f/z0+o9h/H89MyrqsZwwT5Iyu7ykZwzSzI8Ou5Pah9P/Y19fVw+fDLeUfxfrqSn5sDH4bQPXwuRY5WSODdEf7B616A8FSpTy3toKga7eqO7v0SpuffExhdWfXtVsIzq6tTFfKCNr1xvH+AYJcCIDPtx5tJgMAgKyRGTENJDVUxVfSGGoqVQrf14kSAKgSADKqEhCxqWtUzDP6gLRhcshodrmCAcD5yXE87DpuHQwAZuYXU8Ou49bBACCVkrd++Z+BVMd1zOzI9u7e1ZM9Q1XQ6bHihEacwWs7HWKCqq6PlybpBS5PTikcL02quo5gx255bQdBzTTGihO4gC6H/P2tR5tex00qbtUb1DGLC3P3pksIdt1O86KOYK6QX3z7LVrr4XffUzizvDh6r4CgYzVp2kJpihage77duzmW/hZiAHBtW3LbaDY3Kq8NMQBQFHXYZdw+pH8GEht1f3pmaPinSKsqY3iQIoqiMEQwxZiiDvglA84pVFQ1RdJGYSiiCEHGWJqk9XgvM7uMbXRubYU2gz9+u0etbWapUn74BoJtq/n0m21a69YXn1H45OvHTtNGcGFjfX59FUGrdkGNmIfR0uxy/1j6W4gBgNNuyW2jUdj7S93/NhgAjBcm5X4PSB2JC7l2S/g+Oq3qeq6QRzDFWNtqIsg9nyoBgCoBQB/0oRwLQcUB5zStGiQmngygurNLP59X332H9pjnRy+oY+YK+Tc/fJ+Wtf3lVxQ+/GCLdqMvn/5A0xZKUzSte9e60R7vDruM2wcDANeR/D1QmCi9ttGhhfQDSNrpvBYMvRu9v7yI4J92ox992m+npf8F7sQA6rVf5LbRqen51zY6tJB+AImNXuw/zpDJ3eL8rJnLIdi+smyycKabRulBmV7g5FmVwtKDMu2o7XqjfWUhaOZyxflZBL0uD7JFPCvh2i26bjV4FrZpUxcHAKrsiylc2Fin4mbtgopVTaNKdtfa6evmpdw2msmOyG2juj7gC1WWkP4ZSGy0e3Zk6ho6HQWBEAJBlk6nFWy4sRBhENAL0LUwAAiDICZp04rC0tgGhRARSev3gpHKBrbR6Ur577fTdBb2v26nKxv9Y+lvIQYAruyTu/JWD/0B5EbH5X4PSB2JC9n1Bs9gy9NMo1CaQpAxZtUuEAw4p0oAoEoAMHM5VcOWLYSg4p7n07T+wMnd4/2DgZO7dKX//OgFtbZ/ZXKXpi2Uptbe20Twzk3uBj3Jl5iCQPIBSL3xVfpnIHEhLgTg/QPgdbnu4YUzj/d4iPcEqEHoEiUAUGU/LSNivxdQsT8obcfvQvpm/8FNO/37rcdxHNNtgGEYKqSFBoAYgL7FB4oHpg2CnqJqiPZbGwxjEQlQ0je3zFKloijplIig4zrxH+PV6c8xiWbjFe+FCHY9x3HwvwsR1mvnNEPt7CWFbvtaENi2L+2mhWAUcusqgZZtx3F8enaaknT7Pee84/sgxK8/h9qcFhEd/gAAAABJRU5ErkJggg==#0#'
p8
sS'SECCION'
p9
VObscuros
p10
sa(dp11
g3
VBlue
p12
sg5
VMerida#Arial#N#60#60#2#100#120
p13
sg7
S'4293848814#4292468952#4285762979#KGlDb2RlLlFULlRhYlRpcG9zCkZsZWNoYQpwMQooZHAyClMnb3BhY2lkYWQnCnAzCkYxCnNTJ2Zv|cm1hJwpwNApTJzMnCnNTJ2NvbG9yaW50ZXJpb3IyJwpwNQpJLTEKc1MnYW5jaG9DYXNpbGxhJwpw|NgpJMzYKc1MndGlwbycKcDcKSTEKc1MnYW5jaG8nCnA4Ckk0CnNTJ2NvbG9yJwpwOQpMNDI4MzU5|MDAwNEwKc1MnYTFoOCcKcDEwClMnZDJkNicKcDExCnNTJ3Z1ZWxvJwpwMTIKSTUKc1MncG9zaWNp|b24nCnAxMwooaUNvZGUuUVQuVGFiVGlwb3MKUG9zaWNpb24KcDE0CihkcDE1ClMnYWx0bycKcDE2|CkkxNgpzUydvcmRlbicKcDE3Ckk5CnNnOApJMTI4CnNTJ2FuZ3VsbycKcDE4CkkwCnNTJ3knCkkx|NgpzUyd4JwpJMApzYnNTJ2Rlc3Rpbm8nCnAxOQpTJ20nCnNTJ3JlZG9uZGVvcycKcDIwCkkwMQpz|UydhbHRvY2FiZXphJwpwMjEKSTIwCnNTJ2xpVmFycycKcDIyCihscDIzCihTJ3Bvc2ljaW9uJwpT|J28nCnRwMjQKYShTJ2ExaDgnClMnYycKdHAyNQphKFMnZ3Jvc29yJwpTJ24nCnRwMjYKYShTJ2Fs|dG9jYWJlemEnClMnbicKdHAyNwphKFMndGlwbycKUyduJwp0cDI4CmEoUydkZXN0aW5vJwpTJ3Qn|CnRwMjkKYShTJ2FuY2hvQ2FzaWxsYScKUyduJwp0cDMwCmEoUydjb2xvcicKUyduJwp0cDMxCmEo|Uydjb2xvcmludGVyaW9yJwpTJ24nCnRwMzIKYShTJ2NvbG9yaW50ZXJpb3IyJwpTJ24nCnRwMzMK|YShTJ29wYWNpZGFkJwpTJ24nCnRwMzQKYShTJ3JlZG9uZGVvcycKUydsJwp0cDM1CmEoUydmb3Jt|YScKUyd0Jwp0cDM2CmEoUydhbmNobycKUyduJwp0cDM3CmEoUyd2dWVsbycKUyduJwp0cDM4CmEo|UydkZXNjdWVsZ3VlJwpTJ24nCnRwMzkKYShTJ3BuZycKUydjJwp0cDQwCmFzUydjb2xvcmludGVy|aW9yJwpwNDEKTDQyODM1OTAwMDRMCnNTJ2Rlc2N1ZWxndWUnCnA0MgpJNgpzUydzaU1vdmlibGUn|CnA0MwpJMDEKc1MnZ3Jvc29yJwpwNDQKSTEKc1MncG5nJwpwNDUKUydceDg5UE5HXHJcblx4MWFc|blx4MDBceDAwXHgwMFxySUhEUlx4MDBceDAwXHgwMCBceDAwXHgwMFx4MDAgXHgwOFx4MDZceDAw|XHgwMFx4MDBzenpceGY0XHgwMFx4MDBceDAwXHgwNHNCSVRceDA4XHgwOFx4MDhceDA4fFx4MDhk|XHg4OFx4MDBceDAwXHgwMFx0cEhZc1x4MDBceDAwXHgwZVx4YzRceDAwXHgwMFx4MGVceGM0XHgw|MVx4OTUrXHgwZVx4MWJceDAwXHgwMFx4MDJOSURBVFhceDg1XHhlZFx4ZDcxTFx4MTNhXHgxOFx4|MDZceGUwXHhmN1x4ZmJceDhmaFx4YzJkZFx4YzNceDhkXHg4MVx4YjZceDg3XHhjNFx4ZjZceDBl|U1x4OGZceDE2ZVx4OTJceDgxXHg4OFJceGEyXHhhM1x4MDRceGQyXHhlMlx4YTYxbVx4YzJceGVj|ZFx4MDhceDEwI1tceGE1XHhjNVx4ZThceGUwXHhhMFx4YjFceDE3XHhjNFx4ODQoXHgwMyRceGM4|XU1ceGU4XHgxNVx4MTJceGQyO1x4MTJceDEzdSNOXTFceGY0Plx4MDdceGFhMVx4YTBceGM2RFx4|ZmJceGUzXHhlMFx4YmJceGRkXHhmZFx4ZGZceGU1fVx4ZjJPXHhkZlx4MDFceGZmczh0ZFx4Y2Rc|eGZkXHhjM2k9XHg5MUpceGNmXHhjOFx4ZWNceDE0XHhkZj9ceDFjPyZGXHg5OGk0XHg5MVx4Y2Nc|eGFjXHhjOFx4MDJceDFjXHhiYVx4ZWVceGZkclx4ZDZceDE5XHhjMjJzXHg5M31ceDhkXHgwNlx4|ODhceDgzL1xuXHhiOVx4YTleXHg4Nlx4YjBceDg4XHhkOEgkXHhkM1x4ZjNceGQyXHgwMVx4MDBg|XHhlNiZceGZiXHgxOFhhXHhhMlx4ZGVEMlx4ZmRUOlx4MDBceDAwXHhjY1x4ZDlceGE5XHgwMWJ+|XHhjNVx4ODIuXHgwZSUzXHg4Zlx4MWJceDA1UH51XHhlODpceGY2MzVidFx4YjBceGEwXHgwMVUz|XHhkYVxcXHhjN15ceDkwXG5ceGE4I0xVM1x4ZGFceDk4XHhlOFx4OWFceDFhNlpceGRkXHhiMlx4|YmQoXHgxNVBHLFx4YThhXHhhM1x4ZDVceDA3XHhhZXd0XHhjNU5ceGJhXHg4ZVx4YjUkXHgxNVx4|MDBceDAwblx4ZDleVFx4ZjVceGVlXHgxNlx4MDBjXHgwMS1ceGRlXHhlYzlceGQ2XHhiMlRceDAw|XHgwMFx4YjhceDhlXHhiZFx4MTRceGQwXHhlMlx4Y2RceDA0XHhmZmZIXHg4Ylx4MGJceGNmXHhi|MVZceGE1XHgwMlx4MDBceGMwc1x4YWNceGU1XHg5MFx4MTZceDE3XHgwNFx4MWVceDBmXHhlYVx4|YzZceGFlXHhlN1x4ZDhFXHhhOVx4ODA6YjVceGE4XHgxYlx4YmJceDA0XHhiZVx4MTNceDg4XHhj|NFx4YWFeXHhkOVpceDk3XG5ceGQ4R1x4ZDhceGM1QCRWXHgxNVxuT1x4MDRceGMzPTteeW1DKlx4|MDBceDAwXHhiY1x4YjJceGI1XHgxZVx4MGNceGY3XHhlY1x4ODBceGZjXHg5OVx4ZDN6XHhmNH1c|eGM1KW5JXHgwNVx4ZWMjXHhkNjY6XHhiNHNceDFmXHg5OFx4OWFyXHhlZF1ceGIxXHhjYXZceGM5|XHhmMlx4YTRceDAyXHgwMFx4YzB1XHhlY1x4YWRceGY2XHhhZVhFMD9cdEVceGJhS15ceGQ5elwn|XHgxNVx4MDBceDAwXHhkYiVceGNiXHgwYkVceGJhS1x4MTAwO1x4ZjVceGU4XHg5Ylx4OGFTXHhm|Y1x4Zjg7XHhkZlx4ZmRceGY1XHhmNVx4ZWJqXHhlYVx4ZjZceDg1PVx4ODhceGQ3XHg4MnBceGZl|XHhmOVx4ODNceGU5XHhiN1x4ZDJceDAxXHgwMDA0XHg5Nlx4OGUyaFx4OTVJOWtmXCc2XHhhNVx4|MDNceDAwYFx4ZjBceGM2XHhmOFx4MTlceGFhXHhlZFx4YWRDcFwnXHhkNyhPXHhmMFx4MGJceDg1|XHhmY1x4YmRceGU5XHg4M3M/XHhkZFx4MDdceGZlNGZ2Ylx4MTNceDgyO1x4OTlpS2lceGYyXHhi|M0xceGNhXHhkZFx4MWZceGNkNVx4MGNceDAwXHgwMFx4ZWNceDhiXHhiYyJoXHhkNFx4YWZceDg5|XHg4NyBceGZlXHg5NEhmXHhlNlx4YTRceDAyXHgxNFx4YzFceDg1WlxyOVx4MDA7XHgwNDpceDA1|YFx4ZTRceGUwXHg4Y1x4OTRceDlmXHg5MCtceGE5XHhjY1x4OWNceGE4XHg5NzNceGY4XHhhNTk7|fUkqXHhlMGtceDA2U1x4OTlceDE3XHgwMFx4ZjdceGZiXHg5Zlx4ZjdaXHhlNlx4MWZceGRkXHhh|Zlx4Y2FceGVjXHhmZVx4OTZceGNiXHhjM1x4YjdOXHgxY0lceGYxP1x4OWIvXHhjOFx4MTRceGRm|XHg5ZFx4MWJceGU1XHgwNlx4Y2VceDAwXHgwMFx4MDBceDAwSUVORFx4YWVCYFx4ODInCnA0Ngpz|Yi4=|#4286212691#4283851879#False#KGlDb2RlLlFULlRhYlRpcG9zCkZsZWNoYQpwMQooZHAyClMnb3BhY2lkYWQnCnAzCkYwLjgwMDAw|MDAwMDAwMDAwMDA0CnNTJ2Zvcm1hJwpwNApTJ2EnCnNTJ2NvbG9yaW50ZXJpb3IyJwpwNQpJLTEK|c1MnYW5jaG9DYXNpbGxhJwpwNgpJMzYKc1MndGlwbycKcDcKSTIKc1MnYW5jaG8nCnA4Ckk0CnNT|J2NvbG9yJwpwOQpMNDI4NDEwOTY1M0wKc1MnYTFoOCcKcDEwClMnZDJkNicKcDExCnNTJ3Z1ZWxv|JwpwMTIKSTUKc1MncG9zaWNpb24nCnAxMwooaUNvZGUuUVQuVGFiVGlwb3MKUG9zaWNpb24KcDE0|CihkcDE1ClMnYWx0bycKcDE2CkkxNgpzUydvcmRlbicKcDE3Ckk5CnNnOApJMTI4CnNTJ2FuZ3Vs|bycKcDE4CkkwCnNTJ3knCkkxNgpzUyd4JwpJMApzYnNTJ2Rlc3Rpbm8nCnAxOQpTJ20nCnNTJ3Jl|ZG9uZGVvcycKcDIwCkkwMQpzUydhbHRvY2FiZXphJwpwMjEKSTIwCnNTJ2xpVmFycycKcDIyCihs|cDIzCihTJ3Bvc2ljaW9uJwpTJ28nCnRwMjQKYShTJ2ExaDgnClMnYycKdHAyNQphKFMnZ3Jvc29y|JwpTJ24nCnRwMjYKYShTJ2FsdG9jYWJlemEnClMnbicKdHAyNwphKFMndGlwbycKUyduJwp0cDI4|CmEoUydkZXN0aW5vJwpTJ3QnCnRwMjkKYShTJ2FuY2hvQ2FzaWxsYScKUyduJwp0cDMwCmEoUydj|b2xvcicKUyduJwp0cDMxCmEoUydjb2xvcmludGVyaW9yJwpTJ24nCnRwMzIKYShTJ2NvbG9yaW50|ZXJpb3IyJwpTJ24nCnRwMzMKYShTJ29wYWNpZGFkJwpTJ24nCnRwMzQKYShTJ3JlZG9uZGVvcycK|UydsJwp0cDM1CmEoUydmb3JtYScKUyd0Jwp0cDM2CmEoUydhbmNobycKUyduJwp0cDM3CmEoUyd2|dWVsbycKUyduJwp0cDM4CmEoUydkZXNjdWVsZ3VlJwpTJ24nCnRwMzkKYShTJ3BuZycKUydjJwp0|cDQwCmFzUydjb2xvcmludGVyaW9yJwpwNDEKTDQyOTIzMzEyMTBMCnNTJ2Rlc2N1ZWxndWUnCnA0|MgpJNgpzUydzaU1vdmlibGUnCnA0MwpJMDEKc1MnZ3Jvc29yJwpwNDQKSTMKc1MncG5nJwpwNDUK|UydceDg5UE5HXHJcblx4MWFcblx4MDBceDAwXHgwMFxySUhEUlx4MDBceDAwXHgwMCBceDAwXHgw|MFx4MDAgXHgwOFx4MDZceDAwXHgwMFx4MDBzenpceGY0XHgwMFx4MDBceDAwXHgwNHNCSVRceDA4|XHgwOFx4MDhceDA4fFx4MDhkXHg4OFx4MDBceDAwXHgwMFx0cEhZc1x4MDBceDAwXHgwZVx4YzRc|eDAwXHgwMFx4MGVceGM0XHgwMVx4OTUrXHgwZVx4MWJceDAwXHgwMFx4MDJceDEwSURBVFhceDg1|XHhlNVx4ZDY/a1x4ZGJAXHgxOFx4MDZceGYwXHhlNz01NFx4OTBceDE2XHgxYVx4ZGFmMSRLXHgw|Y1x4YzZceDg5XHg4N2RceGYyXHhkYy9Qalx4YjBceDk3anFcdE5ceDg3di5ceDE0XHg4Y3pDXHhi|Ni5ceDFlXHgwYlx4YTZceGM5XHhkNEUlQ0JceGEwXHhhYlx4YjZceGNjMVx4YjhceDA2XHg3Zlx4|MDJceGY3XHhiMFx4MGNtXHg4M1x4ODkjXHhmYlx4ZWRQXHhjOVx4OTZceGUzOFx4MGVceGQ2XHg5|Zlx4MGN5XHhhNlx4ZDNceGExXHhlM1x4ZmRceGExXHhkM1x4YmRceDEycFx4ZGZDXHhkZVx4YzAw|XHgwY1x4ZDFceGFjXHhkNVx4OGJEXHhlMFx4ZjVceGNkXHhmNFx4ODFceDk0clx4MTBceDA3QFx4|ZjNceDA2XHg4OVx4YTcrb0BceGE4XHgwMnhpXHhiN1QiV1x4YzhceDlmWFx4OTZceGM1UVx4MDNc|eDg0NyBceGMyXHhhOFx4MThhXHhhN1lceGFiXHg3ZjFceDBjQ1xcXHhiYipcblx4YzBceGZhZlx4|ZmFceDAwXHg4Y2pceGRjXHg4OFx4ZTFceDE2WFx4OTZceGM1XHhiOUJceGZlXHhjNG5ceGE5XHgw|NFx4MDhceGRiLmI7XHhlYVx4ZWRceGQwXHhmY1x4MTd3XHg4MVx4ZDBceGFlTlx4YzRceDhkXHg5|OFx4MDBceGM0XHg4ZFx4YjhceDE2XHgxMFwnYipceGUwRlx4YzQvXHhmNVx4YTRceGY2XHhiM1x4|ZmUjXHgwY1x4YzBceGNjIyZceGE1XHgxYyQzXHhlOV1ceGZmXHgxMWVceGU2Ylx4MThceGM1b1x4|MDVceDE4Q1x4MDBceDE1Zlx4ZmVcclx4YTJceGNmYVx4MDFceGVlPDRceGZiXHg5Nlx4ZTl5XHhm|ZFx4YWFceDkwZVx4YzF7YD5NZjZceGNhXHhmM3xceGMwXHgwMlx4YjVZXHgxNlx4YmNceDA3XHhl|MFx4MDVceDg4PjZrXHhmNVx4ZWE8bTtYXHg5Zmc+XHgxZFx4OGVcdFx4YzV5XHgxMFx4ODFceDAw|XHhjOVx4Y2NGXHgxOVx4OGNceGZkIFx4ODhceDFiXHhmYlx4YzBceGFjXHhiOH1ceGUyXHhkOG5c|eGE5VVx4MTBceGI2XFxceGM0XHg5Nlx4ZGRSXHhhYlx4YjlCXHhmZVx4Zjg2XHhjZCpceDEwIFx4|MGNEXHhhMFNceGUwXHg4Zlx4ZmJLV1x4MDVhXHhkNFx4YTRceDE4XHhmYlx4OGZceDllLVx4ZWZc|eDllXHhiN1x4ZGJceGQ5XHg5ZVx4MTBcclx4ZDM0VWRceDgwXHhhOVx4ODhceDAxXHgxYVx4MTBI|XHg4MVx4YTEuNVx4YTRMXHhkM1x4YjRceGZka0JceGZkXHhkYnE7XHhlNlx4Y2VceGQ4XHg4Yilc|eDkwXHgwMlx4MDBceDEwXHg5ZS9ceGY0XHhmOVx4ZmRceGQ1NVx4YTE+XHgwMS9ceGE1UmlceGUx|XHhhZlx4ZWFceDljXHJceDhie2FceGVlLDpceGJkXHhiNVx4YWZHR1x4N2ZGXHhiZVx4MDhyXHhk|ZW5nXCdceDhhXHgwM1x4MDBceGQxclx4ZjdceGMxXHhjM1x4YjdceGZlXHhhOUhceDAwPSFceDFh|YExceGJjcFx4ZmZceDExXFxceGQ2dX0pUlx4ODBpXHg5YVx4ZWFSQ1xuXHhjY1x4OWZceGMwXHhk|Y1x4MTlceGFiXHgwZnpceGRjXHhlZl5UIlx4MDVceGI4XHgwOFx4ZmJceGRiXHhlMXdceGI5XHhl|OFx4ZjRceGQ2XHhjMFx4ZmNceDgxXHhjMVx4YzN9XCdceDg2M1x4MDJceGM1XHgxNF1ceGQ3XHg5|N1x4ZmFceGRkXHg4YlxuMVx4OWNkJlx4ZmROSlx4ZTlceGNjXnVceDFmXHhmMlx4MGZceDFjXHhl|MjJceDlmXHhhYlx4YTBdNlx4MDBceDAwXHgwMFx4MDBJRU5EXHhhZUJgXHg4MicKcDQ2CnNiLg==|###0#0#4294769635##KGlDb2RlLlFULlRhYlRpcG9zCkZsZWNoYQpwMQooZHAyClMnb3BhY2lkYWQnCnAzCkYxCnNTJ2Zv|cm1hJwpwNApTJzMnCnNTJ2NvbG9yaW50ZXJpb3IyJwpwNQpJLTEKc1MnYW5jaG9DYXNpbGxhJwpw|NgpJMzYKc1MnYTFoOCcKcDcKUydkMmQ2JwpwOApzUydhbmNobycKcDkKSTUKc1MnY29sb3InCnAx|MApMNDI4Mzc2MDc2N0wKc1MnZGVzY3VlbGd1ZScKcDExCkk2CnNTJ3Z1ZWxvJwpwMTIKSTQKc1Mn|cG9zaWNpb24nCnAxMwooaUNvZGUuUVQuVGFiVGlwb3MKUG9zaWNpb24KcDE0CihkcDE1ClMnYWx0|bycKcDE2CkkxNgpzUydvcmRlbicKcDE3Ckk4CnNnOQpJMTI4CnNTJ2FuZ3VsbycKcDE4CkkwCnNT|J3knCkkxNgpzUyd4JwpJMApzYnNTJ2Rlc3Rpbm8nCnAxOQpTJ20nCnNTJ3JlZG9uZGVvcycKcDIw|CkkwMApzUydhbHRvY2FiZXphJwpwMjEKSTIyCnNTJ2NvbG9yaW50ZXJpb3InCnAyMgpMNDI4OTM0|NTUzNkwKc1MnbGlWYXJzJwpwMjMKKGxwMjQKKFMncG9zaWNpb24nClMnbycKdHAyNQphKFMnYTFo|OCcKUydjJwp0cDI2CmEoUydncm9zb3InClMnbicKdHAyNwphKFMnYWx0b2NhYmV6YScKUyduJwp0|cDI4CmEoUyd0aXBvJwpTJ24nCnRwMjkKYShTJ2Rlc3Rpbm8nClMndCcKdHAzMAphKFMnYW5jaG9D|YXNpbGxhJwpTJ24nCnRwMzEKYShTJ2NvbG9yJwpTJ24nCnRwMzIKYShTJ2NvbG9yaW50ZXJpb3In|ClMnbicKdHAzMwphKFMnY29sb3JpbnRlcmlvcjInClMnbicKdHAzNAphKFMnb3BhY2lkYWQnClMn|bicKdHAzNQphKFMncmVkb25kZW9zJwpTJ2wnCnRwMzYKYShTJ2Zvcm1hJwpTJ3QnCnRwMzcKYShT|J2FuY2hvJwpTJ24nCnRwMzgKYShTJ3Z1ZWxvJwpTJ24nCnRwMzkKYShTJ2Rlc2N1ZWxndWUnClMn|bicKdHA0MAphKFMncG5nJwpTJ2MnCnRwNDEKYXNTJ3NpTW92aWJsZScKcDQyCkkwMQpzUydncm9z|b3InCnA0MwpJMQpzUydwbmcnCnA0NApTIlx4ODlQTkdcclxuXHgxYVxuXHgwMFx4MDBceDAwXHJJ|SERSXHgwMFx4MDBceDAwIFx4MDBceDAwXHgwMCBceDA4XHgwNlx4MDBceDAwXHgwMHN6elx4ZjRc|eDAwXHgwMFx4MDBceDA0c0JJVFx4MDhceDA4XHgwOFx4MDh8XHgwOGRceDg4XHgwMFx4MDBceDAw|XHRwSFlzXHgwMFx4MDBceDBlXHhjNFx4MDBceDAwXHgwZVx4YzRceDAxXHg5NStceDBlXHgxYlx4|MDBceDAwXHgwMkNJREFUWFx4ODVceGVkXHhkNk9IXHg5M2FceDFjXHgwN1x4ZjBceGVmXHhmM1x4|YmNceGVmXHhlM2YwXHhhMlx4MGVceDg5XHg4MVx4YzJceDA4ZVx4YjAxJlx4YTVOYVJceDhlXHhj|MFx4MGVceDFlXHg4YWJceGU0XHg5Y1x4ZDFceGJkS1x4OWJceGMzMFx4ZTlQXHg4N1x4ZThQXHgx|ZFx4YmFGXHg5N1x4OGFceGEwQjtceDE4Ylx4ODQsXHgxMVx4ZjdceDBjQnlceGRmNVx4YzFTXHhl|ZFx4MTBceDA4XHgxZVx4ODJceGNjXHhkNlx4ZTZceGZiXHhiY09ceDA3PVx4ZDQyMlx4ZDhceDll|XHhmN1x4ZTJceGY3XHhmNlx4YzBceGVmeX5ceDFmeHhceGZlXHgwMFx4ZmJceGY5M1x4YzRceGIx|XHhjZXFceDhjNydYXHhlYVx4OGRceGNhXHg5ZVx4ZjRceGQ3XHgwMWFceGU1XHhjN11ceGM3Jlx4|ZmJceDg3XHhiNFx4YjE1XHg5NVx4ODhceGRmMlx4YTRceDhkXHhhZFx4ZGRrXHhmM1lDXHhkYVhc|eGQxSURceGYxXHhiNjdUXHg4OVx4ZWJceGU5VVx4YzdceDEwcT1ceGJkelx4YjNceGI1XHhlN1x4|YzdceGIwXHg5ZTJceDFjQ1x4MGNceGViKVx4ZTNceGM2XHhkMVx4OTNceGRmXHgxM2xceDk0O1x4|ODdgXHhhOVx4ZGN4XHhmM1x4YzBceGI3XHgxMVx4OTZceGNjOFx4ODZceDE4YVx4YzlMXHhmYVx4|YzhceGUwRlx4ODIlZ1x4MWNDJFhyXHhlNlx4ZWFceGUxXHhmM19ceDEzLFx4ZjlceGIyXHg5Nlx4|ZWJqey00XHhlZFx4ZWNceGQzNmtceGUwXHhmOFx4YTFceDAza1x4YTdceGRiZVx4ZDRvXG4+XHhh|NVx4MTRceGIwXHg4M3hceGRlLlx4YTN+XHg4Zlx4ZWJceGNiXHhhMFx4MGZceGZkXlNceGYwaVx4|YTVceDAwXHgwMDBceDA1XHg5Zlx4ZjJceGExXHhkZlx4ZGJceGE4b1x4YzZceGZjNFx4ZDJkXHgw|OD5ceGFiXHgxNFx4YjBceDgzXHg5OFx4ZjZceGQzSFx4MTNceGEzXHhlNVx4Y2JceDAxXHgxMlx4|ZjFceDk4Nlx4OWZTXG5ceDAwXHgwMENceGYwXHhkOVx4MDBceDg5eDQqXHhhZVx4MDRceGI1XmJc|eDA4XHhiZVx4YTBceDE0XHgwMFx4MDBceGE2XHhjZFx4ZTdceDgyWi9ceDkxXHg5MlxcXHgwYlx4|ZDFceGVlXHg5MmFceGYzXHg5Y1JceDAwXHgwMFx4MThceDgyL1x4ODRod0lAXHhiZlx4MTVceGQ0|XHhjMlx4ZWJ5O1x4YmJceGE0XHgxNFx4MDBceDAwXHg4Nlx4Y2RzXHgxZCxceGJjblx4OGJceDg2|XHhmYkFceGJkXHhlYlNceGRlXHhjZX5QXG5ceDAwXHgwMENkXHg5N0J6Z1x4ZDFceDEyXHhlZVx4|ODdceDFkNFxcMFx4ZTVceGUyXHg5ZV5ceGQyXHg5YVx4MDFceDAwXHhjMFx4YjR5XHhiZVx4ODNc|eDg2XHgwYlx4MTVceGRiXHhmNVx4ZWNceDg0K1x4Y2Ncclx4YjFceGY4XHhmMV9zXHhlYVx4ZjJc|eGZmXHhiYlx4ZTRKR0tceDE1XHhmN2tNK1x4OWRceGQyLGlceDAyXHhjMFx4MTNceGRjXHhkZFRc|eDA2XHgwMFx4ODBceDhiXHhmYWhceDhmJVx4MWFceGRmXHhiOVx4ZjRKZ3lceGNiXHhiZFx4MGNc|eGIwXHg5Nlx4MTdceDk4XHhmOFxcXUd3XHg5YlxcXHg4YmhceDk2NFx4YjdceDliXHhiYlx4ZGVc|eDAzXHg5OFx4MDRceGNhXHg5OVx4ZGRceGVhXHhlYVx4MDZceDAwXHg4MFx4ZjJceDk2e1x4OTlc|eDAwXHhhZiRceGU0WVx4ODBceGI0XHhjNjBxTlx4MTlge1x4Y2ZZXHg4Ylx4ODRceDBjUUhceDBi|IFxyXHgxMlx4ZjRRdV1NT0F1VjBceGI3XHhiMVx4ODJceGY5XHgwNz5ceGY0XHhhZFx4MDA4XHgw|M1x4ZDBceDgzXHgwMVx4ZDJceGQ3WFx4YzBceGZjXHhkYnpceGY2XHhmZGtiZFx4ZTJceGNlXHgw|NXJceGZkXHhiZm5ceGNhXHhmZFx4ZDQ9P1x4MDFceGFlXHhjZlx4Y2NceGYyUVBZJFx4MDBceDAw|XHgwMFx4MDBJRU5EXHhhZUJgXHg4MiIKcDQ1CnNTJ3RpcG8nCnA0NgpJMQpzYi4=|#KGlDb2RlLlFULlRhYlRpcG9zCkZsZWNoYQpwMQooZHAyClMnb3BhY2lkYWQnCnAzCkYxCnNTJ2Zv|cm1hJwpwNApTJzMnCnNTJ2NvbG9yaW50ZXJpb3IyJwpwNQpJLTEKc1MnYW5jaG9DYXNpbGxhJwpw|NgpJMzYKc1MnYTFoOCcKcDcKUydkMmQ2JwpwOApzUydhbmNobycKcDkKSTUKc1MnY29sb3InCnAx|MApMNDI4NjU1Mzc4MEwKc1MndnVlbG8nCnAxMQpJNApzUydwb3NpY2lvbicKcDEyCihpQ29kZS5R|VC5UYWJUaXBvcwpQb3NpY2lvbgpwMTMKKGRwMTQKUydhbHRvJwpwMTUKSTE2CnNTJ29yZGVuJwpw|MTYKSTgKc2c5CkkxMjgKc1MnYW5ndWxvJwpwMTcKSTAKc1MneScKSTE2CnNTJ3gnCkkwCnNic1Mn|ZGVzdGlubycKcDE4ClMnbScKc1MncmVkb25kZW9zJwpwMTkKSTAwCnNTJ2FsdG9jYWJlemEnCnAy|MApJMjIKc1MnbGlWYXJzJwpwMjEKKGxwMjIKKFMncG9zaWNpb24nClMnbycKdHAyMwphKFMnYTFo|OCcKUydjJwp0cDI0CmEoUydncm9zb3InClMnbicKdHAyNQphKFMnYWx0b2NhYmV6YScKUyduJwp0|cDI2CmEoUyd0aXBvJwpTJ24nCnRwMjcKYShTJ2Rlc3Rpbm8nClMndCcKdHAyOAphKFMnYW5jaG9D|YXNpbGxhJwpTJ24nCnRwMjkKYShTJ2NvbG9yJwpTJ24nCnRwMzAKYShTJ2NvbG9yaW50ZXJpb3In|ClMnbicKdHAzMQphKFMnY29sb3JpbnRlcmlvcjInClMnbicKdHAzMgphKFMnb3BhY2lkYWQnClMn|bicKdHAzMwphKFMncmVkb25kZW9zJwpTJ2wnCnRwMzQKYShTJ2Zvcm1hJwpTJ3QnCnRwMzUKYShT|J2FuY2hvJwpTJ24nCnRwMzYKYShTJ3Z1ZWxvJwpTJ24nCnRwMzcKYShTJ2Rlc2N1ZWxndWUnClMn|bicKdHAzOAphKFMncG5nJwpTJ2MnCnRwMzkKYXNTJ2NvbG9yaW50ZXJpb3InCnA0MApMNDI5NDk2|NzA0MEwKc1MnZGVzY3VlbGd1ZScKcDQxCkk2CnNTJ3NpTW92aWJsZScKcDQyCkkwMQpzUydncm9z|b3InCnA0MwpJMgpzUydwbmcnCnA0NApTJ1x4ODlQTkdcclxuXHgxYVxuXHgwMFx4MDBceDAwXHJJ|SERSXHgwMFx4MDBceDAwIFx4MDBceDAwXHgwMCBceDA4XHgwNlx4MDBceDAwXHgwMHN6elx4ZjRc|eDAwXHgwMFx4MDBceDA0c0JJVFx4MDhceDA4XHgwOFx4MDh8XHgwOGRceDg4XHgwMFx4MDBceDAw|XHRwSFlzXHgwMFx4MDBceDBlXHhjNFx4MDBceDAwXHgwZVx4YzRceDAxXHg5NStceDBlXHgxYlx4|MDBceDAwXHgwMmpJREFUWFx4ODVceGU1XHhkNj1oXHgxM2FceDE4XHgwN1x4ZjBceGZmc1FiJFxy|NFsmZ1x4MWRceGI1XHg4NVx4MGVcbnZRMVx4MWZcblx4ZGE4RFx4OTBceGU2XHg4MjpceGI0XHhk|NFx4YTJceGE4XHg4M1x4Y2RxXHg4OVx4ZDJceDgyYChceGE1QyRceDFmSFx4ZWRceGQwXHhmOFx4|MDE2XHhiOVx4YTAuXG52XHhiMFx4ZDhZXHg5Y0NBXHhiN1x4ODhpXHJceGExXHhkZT1ceDBlbS5c|eGQ3XHhiNFJceDg3XHhiYlx4MTdceGM0Z3tceGZlXHhmN1x4ZGVceGJkP15ceDBlXHhkZVx4MDdc|eGY4XHhkZlx4OGJceGFjXHg4ZDJXXHhmNVx4ZTktXG5ceGFjXHhmYlx4MWFceGI1TDRceGRhXHgx|NFx4MDFceDkwXHhhY1x4OWJjQ1x4ZmZceGU4XHg5Mlx4ZjQvXHhiZTVceDhmNl4qeVx4ODRceDAy|XHhmNFx4MTZceDA1XHgwMDpceGJjXHhkOVx4ZDFgT1x4YzNceGYzcnRceGJhXHhlYVx4MTZceDA2|WFx4Zjc1alx4MDBceGJma1x4ZjdEdFx4YzZceGVmXHhkNVx4MTdceGFlZldceGY2XHgwYlx4MDFk|XHhhMlx4ZDFceGU2XHgwZm8zXHhjOFx4Y2NceGFmXHhjZFx4YTdEXHhlN1x4MDJceGZiXHhiZVx4|Y2Rcclx4OTVKLlx4YzdceDAxbUR9XHhjZHVceDFlXHhjY1x4YWY6XHgwOFxcOlx4ZDI4XHg5OFdc|eDE0RVx4ZGFceGYxXHhiNlx4ZGRceDAwXHgwMFx4OThceDE5O1x4ZGJceGZhXHhmYSswXHgwNFx4|YzZceDgyXHgwNXFceDg1XHgwZlx4ZjVceGNmXHg4Mlx4OTlceGJhXHhkN1x4ZGJceDBlXHgwMFx4|ODBceGM3XHhkN1x4ZmE2Plx4ZjdceGZjXHg4Y1x4ODFceGYxXHhhNGNceGMwXHhmNWRRe2Q3XHhl|Mlx4OGZceGM3XHhmYSxceDFhXHhkNVFceGZiXHgxNFx4MDdzXHhkNlx4ODJceGI4XHhhMVx4MTRc|eGI0XHgwN3YiXHhmNlx4ZmVceDEwMylceDA1LVx4MDNceGMyXHg5OCVceDlkUFx4ZTNceGExXHhm|YnZceDAwXHhmNlx4ZmVceGIxXHg4OFhceDhkXHgwN1x4YzdceGMxXHg5OFx4YjRceGE0XHhlOWRc|eGJlfFx4ZDNceDBlXHhjMFx4ZGZceDFmJTMlXHgwYlx4OTV7RFx4OTRceGIyRCMpOTgrXHgwNlx4|YjBVSlx4YTFyXHgwYlx4YzBceGMzXHgwZVx4MDJceDg5XHg5NFx4MWNceGNhXHgwYlx4MDNsIlx4|Y2EjXHgwMFx4Y2RceDk4XHgwOFx4ODMvXHhhN1x4MTJceGUxeWFceDAwXHgwMEhceGU2KzJceDEx|clx4ZWRceGRlMFx4ZThiOlx4MTF8IVx4MGNceDAwXHgwMFx4YzlcXDlGXHgxMj01XHgwM1x4YTZc|eGIwKlx4MDcrXHhjMlx4MDBceDAwMFx4OTFceGQzLkhceDEyPzdceDAzXHhjMzhceGFkJiJvXHg4|NVx4MDFceDAwQFx4YzlrIVx4MTBceDk3O19ceGU1QXU4XHhmY15ceDE4XHgwMFx4MDBceDk0XHhk|Y1x4ZTIpSFx4ZDJceDFiM2BceGUzXHg4NCpHXHg5Nlx4ODRceDAxXHgwMEApXHg5Nk9ceDgyXHhj|OVx4OWMpXHgwY1x4YzZAWlx4MGUtXHgwYlx4MDNceDAwXHg4MFx4OTJfPFx4MGVceDkyPlx4OThc|eDA4XHR9XHg5Mlx4OGVjIF5VXHhlM1x4ZTFqXHhmN3pceGRiXHhlZnhVXHg4ZSxceDE5XHg4Y1x4|MDFzXHgwM1x4MDMrIGRceDAxXHhkMnZceGJiXHhjNFx4MWNceDE5Mlx4ZDJyaFx4MTlceDA2XHhm|NXdceGU3SkFceDliXHhlY1x4Y2VceDFjXHgwMVx4MDBceDAwXHg4OFx4OGZceGVlXHhjY3BceGE3|e1x4ZDB1XHgxMlx4YjBceGJhW1x4ZWNceGY3XHgxYVx4ZjVceGVkJlwnXHg4Ylx4OTlceDkyRW1c|eDhhXHg4MFx4ZGJceGQ2XHhiOFx4ZTVceDg2XHg3ZipceDE2XHhhYTtceDBmXHhkOFx4YWFceGQx|XHhlOVx4YWFceGJiXHhkN1x4YWJceDdmXCdceGEyXHgwM1x4MDBceGEwXHgwZVx4MDclXHgxMFx4|YjFceDg4XHhiZFx4YjdceGQ1XHhkZFx4ZjlKXHhhZlx4MTNceDgzXHhlZFx4YmZdXHhiZlx4MDFc|eDgzeFx4ZGJceDE3XHhlNlx4ODdceDEzXHg3Zlx4MDBceDAwXHgwMFx4MDBJRU5EXHhhZUJgXHg4|MicKcDQ1CnNTJ3RpcG8nCnA0NgpJMQpzYi4=|#iVBORw0KGgoAAAANSUhEUgAAAEAAAABACAIAAAAlC+aJAAAAA3NCSVQICAjb4U/gAAAACXBIWXMAAA7EAAAOxAGVKw4bAAAE1UlEQVRogd1aTVMjVRS9/foj6XwDISQwBgRlBEahRGrUhbrSssrShXuX/ij/gwtdoRtxMaPWYJWUU6UMCjHMkBBCQpN0+rvbBQwZ7m3HscuyfTmbpE6fun1fdb/zbt/3hHrtQFESwCds25IUJaEkk3FnEh3SxY923nuwvx9vKv8Ii/Pz+VwWrgbwYH8/nUukVPwovtk+OGxqiFxZKK0vTSOy1dU37+zRO33ywRolN+/utTo6IteXplcWSoisN7Wt7QNE+p4DABtrq8MBAEBKTabTKSSVZUWUZEQqiQRVqoZHlQBAlQAgyYoo2YhMhIZVrdCwV2BPucYFGAA0H9XiTiM6GABMTc/GnUZ0MAAQBCHuNKKD+zkgNI+OlGTy3k879w87sqygyzOlXCaFyY5mnHSxCapJuVrO0xvs1tqUrJbzahJ7y0lX72gGIjMpZaaUQ6RhmKoAG2urtmkObfSwqVHDujlXnJseQ6TWM/9onCFyaiLz1qtzNNevv/uNkquL5XIxi8jmaZ+Gna0UaAK6Pjg5vlyduH+FGAD0tG7caUQHA4BUGj9NjsAAQJSkv9X9b8H9HBjaaL2jKwn8ZaNIosjwMud6vuP5iGSCkJBFegPDdimZkEVGVk/H810SVmSCIuGwlmWVMglso+tL07QY/OruHrW2VxbLr7/8HCKb7d6X3/5Kc/304w1KfrH1y/FpH5G3b914bXkGkbWjLjViz3Xe33j+4j/3rxADAL2PP1k4AgMAz3XiTiM6GADkCsW404gO7ufA0IVaXV01PHRZTcpTExlEMkFotnuI7A1sqgQAqgSAbEoBwGI/CKjYMB0a1nWG39PDAWze2aPV6LtvvEBrzJ3dBnXMqYnMR+8s0Vw/+/weJT98+yVajX7/8yENO1sp0LAjV43athV3GtHBAGDA+zpQGMf9MI4wEnOAawzL6cmpfOzV6OrNCiKfUo1elNPcP4GRGEC79SjuNKKDAUCxhL+DOMJIvEJcY2ijP/7ekkhzd7E6MZZTEdlo9+pk4yybUpbnQ1b0H+4/pOTyfClLesb1ptYg5fRYTl2sTiDSME3BdnFXotXR6b5VaBf2+LRPXRwgQ5UXYkrevnWDimuNMypOKhJV6ro4WuX0+dlp3GlEBwOApJqOO43oYACgJDg+asD9HBjaaKtvJUhz13Y9zw8QKYlMFvHI/SCwHNzUAABVCendW47nBzisLDKJhPX8wHZxWNuyquNpbKMrC6VnL6dpF/Y/Lqer46PV3D2PO43oYAAA5HXkCAwA0tmQDWpewP0cGLpQvampKm7RZVLKbKWASJEJtSO8tWyYDlUCAFUCwFhOTRJ79fyAivsDm4Z1Qpu7W9sHoc1dutO/s9ug1vavNHdp2NlK4b03X0TkyDV3n3wi3IEBgOtwvkempjgvp7nG0IUuTpMiGIap6wNEWpZFd2Zdx6ZK+Is9XMM0dR0fILDDwjphYQeGefX/spy+dvQ4CIAcZPA8VxSf9VBLuDgsrOvYtBUSjsD3fBAf19vz1aooiiJ7PIAnla3GYamCm89a5ziVK8rXz13Ypu54kE5fm0JB4J+2W8XJMopw0nw4Wb6ByIHeV9MZNCz9vOMFLJe/tn4Fnq2d64Wxy0XpTDsv5HOtVkvg9Pi95diGYTIh+BMNfzkC73m+swAAAABJRU5ErkJggg==#0#'
p14
sg9
VObscuros
p15
sa(dp16
S'NOMBRE'
p17
VSlavick
p18
sS'BASE'
p19
VMerida#Arial#S#72#100#4#100#100
p20
sS'TEXTO'
p21
S'4294967295#4294243572#4291200098#KGlDb2RlLlFULlRhYlRpcG9zCkZsZWNoYQpwMQooZHAyClMnb3BhY2lkYWQnCnAzCkYwLjgwMDAw|MDAwMDAwMDAwMDA0CnNTJ2Zvcm1hJwpwNApTJzMnCnNTJ2NvbG9yaW50ZXJpb3IyJwpwNQpJLTEK|c1MnYW5jaG9DYXNpbGxhJwpwNgpJMzYKc1MnYW5jaG8nCnA3Ckk0CnNTJ3RpcG8nCnA4CkkxCnNT|J2NvbG9yJwpwOQpMNDI5MjQ0Nzg1MUwKc1MnYTFoOCcKcDEwClMnYTFoOCcKcDExCnNTJ3Z1ZWxv|JwpwMTIKSTUKc1MnY29sb3JpbnRlcmlvcicKcDEzCkw0MjkyNTMyNzM2TApzUydkZXN0aW5vJwpw|MTQKUydtJwpzUydyZWRvbmRlb3MnCnAxNQpJMDAKc1MnYWx0b2NhYmV6YScKcDE2CkkyMApzUyds|aVZhcnMnCnAxNwoobHAxOAooUydwb3NpY2lvbicKUydvJwp0cDE5CmEoUydhMWg4JwpTJ2MnCnRw|MjAKYShTJ2dyb3NvcicKUyduJwp0cDIxCmEoUydhbHRvY2FiZXphJwpTJ24nCnRwMjIKYShTJ3Rp|cG8nClMnbicKdHAyMwphKFMnZGVzdGlubycKUyd0Jwp0cDI0CmEoUydhbmNob0Nhc2lsbGEnClMn|bicKdHAyNQphKFMnY29sb3InClMnbicKdHAyNgphKFMnY29sb3JpbnRlcmlvcicKUyduJwp0cDI3|CmEoUydjb2xvcmludGVyaW9yMicKUyduJwp0cDI4CmEoUydvcGFjaWRhZCcKUyduJwp0cDI5CmEo|UydyZWRvbmRlb3MnClMnbCcKdHAzMAphKFMnZm9ybWEnClMndCcKdHAzMQphKFMnYW5jaG8nClMn|bicKdHAzMgphKFMndnVlbG8nClMnbicKdHAzMwphKFMnZGVzY3VlbGd1ZScKUyduJwp0cDM0CmFz|Uydwb3NpY2lvbicKcDM1CihpQ29kZS5RVC5UYWJUaXBvcwpQb3NpY2lvbgpwMzYKKGRwMzcKUydh|bHRvJwpwMzgKSTE2CnNTJ29yZGVuJwpwMzkKSTkKc2c3CkkxMjgKc1MnYW5ndWxvJwpwNDAKSTAK|c1MneScKSTE2CnNTJ3gnCkkwCnNic1MnZGVzY3VlbGd1ZScKcDQxCkk2CnNTJ3NpTW92aWJsZScK|cDQyCkkwMApzUydncm9zb3InCnA0MwpJMQpzYi4=|#4289353215#4278206043#False#KGlDb2RlLlFULlRhYlRpcG9zCkZsZWNoYQpwMQooZHAyClMnb3BhY2lkYWQnCnAzCkYwLjgwMDAw|MDAwMDAwMDAwMDA0CnNTJ2Rlc2N1ZWxndWUnCnA0Ckk2CnNTJ2FuY2hvJwpwNQpJNApzUydjb2xv|cicKcDYKTDQyOTI0NDc4NTFMCnNTJ3Z1ZWxvJwpwNwpJNQpzUydwb3NpY2lvbicKcDgKKGlDb2Rl|LlFULlRhYlRpcG9zClBvc2ljaW9uCnA5CihkcDEwClMnYWx0bycKcDExCkkxNgpzUydvcmRlbicK|cDEyCkk5CnNnNQpJMTI4CnNTJ3gnCkkwCnNTJ3knCkkxNgpzUydhbmd1bG8nCnAxMwpJMApzYnNT|J2dyb3NvcicKcDE0CkkzCnNTJ2Zvcm1hJwpwMTUKUydhJwpzUydjb2xvcmludGVyaW9yMicKcDE2|CkktMQpzUydhbmNob0Nhc2lsbGEnCnAxNwpJMzYKc1MnYTFoOCcKcDE4ClMnYTFoOCcKcDE5CnNT|J3RpcG8nCnAyMApJMgpzUydkZXN0aW5vJwpwMjEKUydtJwpzUydyZWRvbmRlb3MnCnAyMgpJMDAK|c1MnYWx0b2NhYmV6YScKcDIzCkkyMApzUydjb2xvcmludGVyaW9yJwpwMjQKTDQyOTI1MzI3MzZM|CnNTJ2xpVmFycycKcDI1CihscDI2CihTJ3Bvc2ljaW9uJwpTJ28nCnRwMjcKYShTJ2ExaDgnClMn|YycKdHAyOAphKFMnZ3Jvc29yJwpTJ24nCnRwMjkKYShTJ2FsdG9jYWJlemEnClMnbicKdHAzMAph|KFMndGlwbycKUyduJwp0cDMxCmEoUydkZXN0aW5vJwpTJ3QnCnRwMzIKYShTJ2FuY2hvQ2FzaWxs|YScKUyduJwp0cDMzCmEoUydjb2xvcicKUyduJwp0cDM0CmEoUydjb2xvcmludGVyaW9yJwpTJ24n|CnRwMzUKYShTJ2NvbG9yaW50ZXJpb3IyJwpTJ24nCnRwMzYKYShTJ29wYWNpZGFkJwpTJ24nCnRw|MzcKYShTJ3JlZG9uZGVvcycKUydsJwp0cDM4CmEoUydmb3JtYScKUyd0Jwp0cDM5CmEoUydhbmNo|bycKUyduJwp0cDQwCmEoUyd2dWVsbycKUyduJwp0cDQxCmEoUydkZXNjdWVsZ3VlJwpTJ24nCnRw|NDIKYXNTJ3NpTW92aWJsZScKcDQzCkkwMApzYi4=|###0#0#4294769635##KGlDb2RlLlFULlRhYlRpcG9zCkZsZWNoYQpwMQooZHAyClMnYW5jaG8nCnAzCkk1CnNTJ29wYWNp|ZGFkJwpwNApGMQpzUydmb3JtYScKcDUKUyczJwpzUydjb2xvcmludGVyaW9yMicKcDYKSS0xCnNT|J2FuY2hvQ2FzaWxsYScKcDcKSTM2CnNTJ3RpcG8nCnA4CkkxCnNTJ2ExaDgnCnA5ClMnYTFoOCcK|cDEwCnNTJ2NvbG9yJwpwMTEKTDQyODM3NjA3NjdMCnNTJ2Rlc2N1ZWxndWUnCnAxMgpJNgpzUyd2|dWVsbycKcDEzCkk0CnNTJ2NvbG9yaW50ZXJpb3InCnAxNApMNDI5NDkyMzUyMEwKc1MnZGVzdGlu|bycKcDE1ClMnbScKc1MncmVkb25kZW9zJwpwMTYKSTAwCnNTJ2FsdG9jYWJlemEnCnAxNwpJMjIK|c1MncG9zaWNpb24nCnAxOAooaUNvZGUuUVQuVGFiVGlwb3MKUG9zaWNpb24KcDE5CihkcDIwClMn|YWx0bycKcDIxCkkxNgpzUydvcmRlbicKcDIyCkk4CnNnMwpJMTI4CnNTJ2FuZ3VsbycKcDIzCkkw|CnNTJ3knCkkxNgpzUyd4JwpJMApzYnNTJ2xpVmFycycKcDI0CihscDI1CihnMTgKUydvJwp0cDI2|CmEoUydhMWg4JwpwMjcKUydjJwp0cDI4CmEoUydncm9zb3InCnAyOQpTJ24nCnRwMzAKYShTJ2Fs|dG9jYWJlemEnCnAzMQpTJ24nCnRwMzIKYShTJ3RpcG8nCnAzMwpTJ24nCnRwMzQKYShTJ2Rlc3Rp|bm8nCnAzNQpTJ3QnCnRwMzYKYShTJ2FuY2hvQ2FzaWxsYScKcDM3ClMnbicKdHAzOAphKFMnY29s|b3InCnAzOQpTJ24nCnRwNDAKYShTJ2NvbG9yaW50ZXJpb3InCnA0MQpTJ24nCnRwNDIKYShTJ2Nv|bG9yaW50ZXJpb3IyJwpwNDMKUyduJwp0cDQ0CmEoUydvcGFjaWRhZCcKcDQ1ClMnbicKdHA0Ngph|KGcxNgpTJ2wnCnRwNDcKYShTJ2Zvcm1hJwpwNDgKUyd0Jwp0cDQ5CmEoUydhbmNobycKcDUwClMn|bicKdHA1MQphKFMndnVlbG8nCnA1MgpTJ24nCnRwNTMKYShTJ2Rlc2N1ZWxndWUnCnA1NApTJ24n|CnRwNTUKYShTJ3BuZycKcDU2ClMnYycKdHA1Nwphc1Mnc2lNb3ZpYmxlJwpwNTgKSTAwCnNTJ2dy|b3NvcicKcDU5CkkxCnNTJ3BuZycKcDYwClMnJwpzYi4=|#KGlDb2RlLlFULlRhYlRpcG9zCkZsZWNoYQpwMQooZHAyClMnYW5jaG8nCnAzCkk1CnNTJ29wYWNp|ZGFkJwpwNApGMQpzUydmb3JtYScKcDUKUyczJwpzUydjb2xvcmludGVyaW9yMicKcDYKSS0xCnNT|J2FuY2hvQ2FzaWxsYScKcDcKSTM2CnNTJ3RpcG8nCnA4CkkxCnNTJ2ExaDgnCnA5ClMnYTFoOCcK|cDEwCnNTJ2NvbG9yJwpwMTEKTDQyODE3NDk3NjBMCnNTJ2Rlc2N1ZWxndWUnCnAxMgpJNgpzUyd2|dWVsbycKcDEzCkk0CnNTJ2NvbG9yaW50ZXJpb3InCnAxNApMNDI4OTM5NjQ4MEwKc1MnZGVzdGlu|bycKcDE1ClMnbScKc1MncmVkb25kZW9zJwpwMTYKSTAwCnNTJ2FsdG9jYWJlemEnCnAxNwpJMjIK|c1MncG9zaWNpb24nCnAxOAooaUNvZGUuUVQuVGFiVGlwb3MKUG9zaWNpb24KcDE5CihkcDIwClMn|YWx0bycKcDIxCkkxNgpzUydvcmRlbicKcDIyCkk4CnNnMwpJMTI4CnNTJ2FuZ3VsbycKcDIzCkkw|CnNTJ3knCkkxNgpzUyd4JwpJMApzYnNTJ2xpVmFycycKcDI0CihscDI1CihnMTgKUydvJwp0cDI2|CmEoUydhMWg4JwpwMjcKUydjJwp0cDI4CmEoUydncm9zb3InCnAyOQpTJ24nCnRwMzAKYShTJ2Fs|dG9jYWJlemEnCnAzMQpTJ24nCnRwMzIKYShTJ3RpcG8nCnAzMwpTJ24nCnRwMzQKYShTJ2Rlc3Rp|bm8nCnAzNQpTJ3QnCnRwMzYKYShTJ2FuY2hvQ2FzaWxsYScKcDM3ClMnbicKdHAzOAphKFMnY29s|b3InCnAzOQpTJ24nCnRwNDAKYShTJ2NvbG9yaW50ZXJpb3InCnA0MQpTJ24nCnRwNDIKYShTJ2Nv|bG9yaW50ZXJpb3IyJwpwNDMKUyduJwp0cDQ0CmEoUydvcGFjaWRhZCcKcDQ1ClMnbicKdHA0Ngph|KGcxNgpTJ2wnCnRwNDcKYShTJ2Zvcm1hJwpwNDgKUyd0Jwp0cDQ5CmEoUydhbmNobycKcDUwClMn|bicKdHA1MQphKFMndnVlbG8nCnA1MgpTJ24nCnRwNTMKYShTJ2Rlc2N1ZWxndWUnCnA1NApTJ24n|CnRwNTUKYShTJ3BuZycKcDU2ClMnYycKdHA1Nwphc1Mnc2lNb3ZpYmxlJwpwNTgKSTAwCnNTJ2dy|b3NvcicKcDU5CkkxCnNTJ3BuZycKcDYwClMnJwpzYi4=|#iVBORw0KGgoAAAANSUhEUgAAAEAAAABACAIAAAAlC+aJAAAAA3NCSVQICAjb4U/gAAAACXBIWXMAAA7EAAAOxAGVKw4bAAAGAElEQVRogd1aX4gbZRCf3c3+yV2SSy6989peaeHSlkOutHi1lCpSaKmIJ6IWwaIiKvgg4rs+6rv42iJaqCBiLb2+aAURW8ReUbjS2l57XNr7l8s1m2bzb/9/PtwmuZ3ZE1KhyXZeMvvjt/vNJPvNN5kZTr2fl5UeCKcYei0iKz09vb2dtuThhQ9EXRtcB4P6A2AMg44ZcLv+IACkTMagXiRLO+DYQUu7gZZu4EBdhVqBPEUFs47Baj7Aq/IysdUFdS5gIUa+pmoOtAUM2jroWqClwFUrleYrdO73q66LPa3n5/UCtig2vFOMpxCozU47po7A1OjTCHHNemn2GgKleKp3eCcC9cJSPY+9iW3NvD7x/Jpeq1Yjvke77rHxJ9ENy5dmV2f+RuD2g0/1ZTDz1vUfjWIegXvG38FmqSszV04jMJEc2zH+MgLzU0u5f/DSN/yXwa9QiMRzwDWgtNRZS9qQyiJYhqd7DjAGgtQxg9oVXm7p3h4QFIgpnbHmIaRnU0sP/R7whdEz3/9wIIHPGz4ickIEga5lMnLU8ZLMcfgbcQx8dnAcz0syApnruBZemhMifERE4B8qvPGKF69wGNULyzRiDh2aGNx/FIHZyZMaieW73vpE6X8CgdNffIQQOTW4++1PEVi6M333wikEDowfGTz4AgKVq9fXX4b+FWpEIQe0xc5a0oZUllv5kucAx0E03TGD2hU5Cc1dyTc/xfCEUTHa0kO/B3xh9LsLPz27LYEY9fy8XsBpRmx41wbZKA6aqdEDCHHMujY7jUAxnooN70KgXliq5+cR+Jcz8OaJE2s6DqNiPEVzzFouSyNmavRAX2YPAnOXz9NsdMfE+9gsdWXh5zMITIyM0QcaxRW6tJnet/4y9K+Q54ClQSHbUUPakeIdMGqe7jkQiUPfUMcMalcS20BqBCJvD3AcRMITRoV1mVTo94AvjH791ak9+ixiJEf392X2InB16mItl0XglsPHxVgSgXcnTyJEjCW3HD6OwFouuzp1EYF9mb3J0f0I/PXm/GtHn/PuQmHUMXUaBzmOpzmmY9YpU4wlKZPSACCApq5QJmMuZfLSfd9lg7th5agLhbmtYpTngGPA6u2OGdSulObAqHq654CgwODujhnUriRHQIl5euijUOgd8IXRs79dCSotnl+9+gsCt7/4Hs29bn3zWUBp8eMvEaKrKzOnP0dgYmSMpn35qYu5y5MIvJHe9+4HH67ptWo19L9AywHb+A9ad4ljQrOI3gqjxXsdM6hdKd8jtVFBhgFcne9eSWZAbmSjod8D/gaHWdfVFcTgOF5ODSLQCWLSTA4AKM2qPKAPFKQoZTLmBjF9eb/PgdLsNdo7GTo0QSuB2cmT9H/t/ywt0tg6MH4kYOnHtrS4URuwC8XQwGmUxlsdGou0ULtWmA2O5eneHuAjEMdvb/eK0t/SQ78HfFFIiqcSyTHEYK5TuhNQCUyMYGYtlzVIKKQ0QYrSB1rlImVyvBDE9G1WnwO9wztpt3n50nnaO3lk2ShdupLeB3CseRn6V6jR6LahSqY7ulaMEjRnMtb9AmTopGvFNqDZvGyF0d5NG97QbdK7Lj8K/R7w/Sf+9uy5g/2Y4doWIzNUvChxvICZpsFIeUyQowhhzHVN/PeP4wVexNMazLFd20Lgn5p04virazouLdbzC3Q+Z+jQBO02P7JG9+ZnXkJg9LHNRumgW9dKeQGab2qj0S2AjNuT3StKCriG3toDUniGR8V1poZ+D/iiUGxr5gZhzKl4wgUAqs4A6tcCwOLNedR9AIAioQmSkiUPtMpahTAVTYoSJs/7vnTfOdAUowQMQOnzgaUs9GwG0T+qVFMhmgKO84GF25D2V5mYC6VFSG7zgwzKi5AY9i9dBubipbV5UNIgNUa8Va1iWDYDFhPJKJbnlgBk9ArkBJCzKwABAAUPIQDHgUKCROCIDLPBJqPH0X6fPYZlb04nGWNzC0vBDkixAFAhhzSQX2lNAtIqLpgp4mM6wHnw71oAYMAYY3XDjMpSxNBrAXd0t8REYW5hKSpLigD/Apilhsc3SYCCAAAAAElFTkSuQmCC#0#'
p22
sS'SECCION'
p23
VClaros
p24
sa.