(lp1
(dp2
S'NOMBRE'
p3
VSlavick
p4
sS'TEXTO'
p5
S'4294967295#4294243572#4294945407#KGlDb2RlLlFULlRhYlRpcG9zCkZsZWNoYQpwMQooZHAyClMnb3BhY2lkYWQnCnAzCkYwLjgwMDAw|MDAwMDAwMDAwMDA0CnNTJ2Zvcm1hJwpwNApTJzMnCnNTJ2NvbG9yaW50ZXJpb3IyJwpwNQpJLTEK|c1MnYW5jaG9DYXNpbGxhJwpwNgpJMzYKc1MnYW5jaG8nCnA3Ckk0CnNTJ3RpcG8nCnA4CkkxCnNT|J2NvbG9yJwpwOQpMNDI5MjQ0Nzg1MUwKc1MnZGVzY3VlbGd1ZScKcDEwCkk2CnNTJ2ExaDgnCnAx|MQpTJ2ExaDgnCnAxMgpzUyd2dWVsbycKcDEzCkk1CnNTJ2NvbG9yaW50ZXJpb3InCnAxNApMNDI5|MjUzMjczNkwKc1MnZGVzdGlubycKcDE1ClMnbScKc1MncmVkb25kZW9zJwpwMTYKSTAwCnNTJ2Fs|dG9jYWJlemEnCnAxNwpJMjAKc1MncG9zaWNpb24nCnAxOAooaUNvZGUuUVQuVGFiVGlwb3MKUG9z|aWNpb24KcDE5CihkcDIwClMnYWx0bycKcDIxCkkxCnNTJ29yZGVuJwpwMjIKSTkKc2c3Ckk4MApz|Uydhbmd1bG8nCnAyMwpJMApzUyd5JwpJMApzUyd4JwpJMApzYnNTJ2xpVmFycycKcDI0CihscDI1|CihTJ3Bvc2ljaW9uJwpTJ28nCnRwMjYKYShTJ2ExaDgnClMnYycKdHAyNwphKFMnZ3Jvc29yJwpT|J24nCnRwMjgKYShTJ2FsdG9jYWJlemEnClMnbicKdHAyOQphKFMndGlwbycKUyduJwp0cDMwCmEo|UydkZXN0aW5vJwpTJ3QnCnRwMzEKYShTJ2FuY2hvQ2FzaWxsYScKUyduJwp0cDMyCmEoUydjb2xv|cicKUyduJwp0cDMzCmEoUydjb2xvcmludGVyaW9yJwpTJ24nCnRwMzQKYShTJ2NvbG9yaW50ZXJp|b3IyJwpTJ24nCnRwMzUKYShTJ29wYWNpZGFkJwpTJ24nCnRwMzYKYShTJ3JlZG9uZGVvcycKUyds|Jwp0cDM3CmEoUydmb3JtYScKUyd0Jwp0cDM4CmEoUydhbmNobycKUyduJwp0cDM5CmEoUyd2dWVs|bycKUyduJwp0cDQwCmEoUydkZXNjdWVsZ3VlJwpTJ24nCnRwNDEKYXNTJ3NpTW92aWJsZScKcDQy|CkkwMApzUydncm9zb3InCnA0MwpJMQpzYi4=|#4289353215#4278206043'
p6
sa(dp7
S'NOMBRE'
p8
VLucas
p9
sg5
S'4280690214#4294243572#4289509046#KGlDb2RlLlFULlRhYlRpcG9zCkZsZWNoYQpwMQooZHAyClMnb3BhY2lkYWQnCnAzCkYwLjgwMDAw|MDAwMDAwMDAwMDA0CnNTJ2Zvcm1hJwpwNApTJ2MnCnNTJ2NvbG9yaW50ZXJpb3IyJwpwNQpJLTEK|c1MnYW5jaG9DYXNpbGxhJwpwNgpJMzYKc1MnYTFoOCcKcDcKUydkMmQ2JwpwOApzUydhbmNobycK|cDkKSTcKc1MnY29sb3InCnAxMApMNDI5MDk1NTMyMEwKc1MnZGVzY3VlbGd1ZScKcDExCkkwCnNT|J3Z1ZWxvJwpwMTIKSTQKc1MncG9zaWNpb24nCnAxMwooaUNvZGUuUVQuVGFiVGlwb3MKUG9zaWNp|b24KcDE0CihkcDE1ClMnYWx0bycKcDE2Ckk5OQpzUydvcmRlbicKcDE3Ckk5CnNnOQpJMTI2CnNT|J2FuZ3VsbycKcDE4CkkwCnNTJ3knCkkyMzQKc1MneCcKSTEyNgpzYnNTJ2Rlc3Rpbm8nCnAxOQpT|J20nCnNTJ3JlZG9uZGVvcycKcDIwCkkwMQpzUydhbHRvY2FiZXphJwpwMjEKSTI4CnNTJ2NvbG9y|aW50ZXJpb3InCnAyMgpMNDI5MDk1NTMyMEwKc1MnbGlWYXJzJwpwMjMKKGxwMjQKKFMncG9zaWNp|b24nClMnbycKdHAyNQphKFMnYTFoOCcKUydjJwp0cDI2CmEoUydncm9zb3InClMnbicKdHAyNwph|KFMnYWx0b2NhYmV6YScKUyduJwp0cDI4CmEoUyd0aXBvJwpTJ24nCnRwMjkKYShTJ2Rlc3Rpbm8n|ClMndCcKdHAzMAphKFMnYW5jaG9DYXNpbGxhJwpTJ24nCnRwMzEKYShTJ2NvbG9yJwpTJ24nCnRw|MzIKYShTJ2NvbG9yaW50ZXJpb3InClMnbicKdHAzMwphKFMnY29sb3JpbnRlcmlvcjInClMnbicK|dHAzNAphKFMnb3BhY2lkYWQnClMnbicKdHAzNQphKFMncmVkb25kZW9zJwpTJ2wnCnRwMzYKYShT|J2Zvcm1hJwpTJ3QnCnRwMzcKYShTJ2FuY2hvJwpTJ24nCnRwMzgKYShTJ3Z1ZWxvJwpTJ24nCnRw|MzkKYShTJ2Rlc2N1ZWxndWUnClMnbicKdHA0MAphc1Mnc2lNb3ZpYmxlJwpwNDEKSTAxCnNTJ2dy|b3NvcicKcDQyCkkzCnNTJ3RpcG8nCnA0MwpJMQpzYi4=|#4294243572#4280690214'
p10
sa(dp11
g8
VLucasT
p12
sg5
S'4278206043#4294243572#4288588449#KGlDb2RlLlFULlRhYlRpcG9zCkZsZWNoYQpwMQooZHAyClMnb3BhY2lkYWQnCnAzCkYwLjgwMDAw|MDAwMDAwMDAwMDA0CnNTJ2Zvcm1hJwpwNApTJ2MnCnNTJ2NvbG9yaW50ZXJpb3IyJwpwNQpJLTEK|c1MnYW5jaG9DYXNpbGxhJwpwNgpJMzYKc1MnYTFoOCcKcDcKUydkMmQ2JwpwOApzUydhbmNobycK|cDkKSTcKc1MnY29sb3InCnAxMApMNDI5MDk1NTMyMEwKc1MnZGVzY3VlbGd1ZScKcDExCkkwCnNT|J3Z1ZWxvJwpwMTIKSTQKc1MncG9zaWNpb24nCnAxMwooaUNvZGUuUVQuVGFiVGlwb3MKUG9zaWNp|b24KcDE0CihkcDE1ClMnYWx0bycKcDE2Ckk5OQpzUydvcmRlbicKcDE3Ckk5CnNnOQpJMTI2CnNT|J2FuZ3VsbycKcDE4CkkwCnNTJ3knCkkyMzQKc1MneCcKSTEyNgpzYnNTJ2Rlc3Rpbm8nCnAxOQpT|J20nCnNTJ3JlZG9uZGVvcycKcDIwCkkwMQpzUydhbHRvY2FiZXphJwpwMjEKSTI4CnNTJ2NvbG9y|aW50ZXJpb3InCnAyMgpMNDI5MDk1NTMyMEwKc1MnbGlWYXJzJwpwMjMKKGxwMjQKKFMncG9zaWNp|b24nClMnbycKdHAyNQphKFMnYTFoOCcKUydjJwp0cDI2CmEoUydncm9zb3InClMnbicKdHAyNwph|KFMnYWx0b2NhYmV6YScKUyduJwp0cDI4CmEoUyd0aXBvJwpTJ24nCnRwMjkKYShTJ2Rlc3Rpbm8n|ClMndCcKdHAzMAphKFMnYW5jaG9DYXNpbGxhJwpTJ24nCnRwMzEKYShTJ2NvbG9yJwpTJ24nCnRw|MzIKYShTJ2NvbG9yaW50ZXJpb3InClMnbicKdHAzMwphKFMnY29sb3JpbnRlcmlvcjInClMnbicK|dHAzNAphKFMnb3BhY2lkYWQnClMnbicKdHAzNQphKFMncmVkb25kZW9zJwpTJ2wnCnRwMzYKYShT|J2Zvcm1hJwpTJ3QnCnRwMzcKYShTJ2FuY2hvJwpTJ24nCnRwMzgKYShTJ3Z1ZWxvJwpTJ24nCnRw|MzkKYShTJ2Rlc2N1ZWxndWUnClMnbicKdHA0MAphc1Mnc2lNb3ZpYmxlJwpwNDEKSTAxCnNTJ2dy|b3NvcicKcDQyCkkzCnNTJ3RpcG8nCnA0MwpJMQpzYi4=|#4294243572#4278206043'
p13
sa(dp14
g8
VOlive GB
p15
sg5
S'4281413888#4294836181#4289966452#KGlDb2RlLlFULlRhYlRpcG9zCkZsZWNoYQpwMQooZHAyClMnb3BhY2lkYWQnCnAzCkYwLjgwMDAw|MDAwMDAwMDAwMDA0CnNTJ2Zvcm1hJwpwNApTJ2MnCnNTJ2NvbG9yaW50ZXJpb3IyJwpwNQpJLTEK|c1MnYW5jaG9DYXNpbGxhJwpwNgpJMzYKc1MnYTFoOCcKcDcKUydkMmQ2JwpwOApzUydhbmNobycK|cDkKSTcKc1MnY29sb3InCnAxMApMNDI5MDk1NTMyMEwKc1MnZGVzY3VlbGd1ZScKcDExCkkwCnNT|J3Z1ZWxvJwpwMTIKSTQKc1MncG9zaWNpb24nCnAxMwooaUNvZGUuUVQuVGFiVGlwb3MKUG9zaWNp|b24KcDE0CihkcDE1ClMnYWx0bycKcDE2Ckk5OQpzUydvcmRlbicKcDE3Ckk5CnNnOQpJMTI2CnNT|J2FuZ3VsbycKcDE4CkkwCnNTJ3knCkkyMzQKc1MneCcKSTEyNgpzYnNTJ2Rlc3Rpbm8nCnAxOQpT|J20nCnNTJ3JlZG9uZGVvcycKcDIwCkkwMQpzUydhbHRvY2FiZXphJwpwMjEKSTI4CnNTJ2NvbG9y|aW50ZXJpb3InCnAyMgpMNDI5MDk1NTMyMEwKc1MnbGlWYXJzJwpwMjMKKGxwMjQKKFMncG9zaWNp|b24nClMnbycKdHAyNQphKFMnYTFoOCcKUydjJwp0cDI2CmEoUydncm9zb3InClMnbicKdHAyNwph|KFMnYWx0b2NhYmV6YScKUyduJwp0cDI4CmEoUyd0aXBvJwpTJ24nCnRwMjkKYShTJ2Rlc3Rpbm8n|ClMndCcKdHAzMAphKFMnYW5jaG9DYXNpbGxhJwpTJ24nCnRwMzEKYShTJ2NvbG9yJwpTJ24nCnRw|MzIKYShTJ2NvbG9yaW50ZXJpb3InClMnbicKdHAzMwphKFMnY29sb3JpbnRlcmlvcjInClMnbicK|dHAzNAphKFMnb3BhY2lkYWQnClMnbicKdHAzNQphKFMncmVkb25kZW9zJwpTJ2wnCnRwMzYKYShT|J2Zvcm1hJwpTJ3QnCnRwMzcKYShTJ2FuY2hvJwpTJ24nCnRwMzgKYShTJ3Z1ZWxvJwpTJ24nCnRw|MzkKYShTJ2Rlc2N1ZWxndWUnClMnbicKdHA0MAphc1Mnc2lNb3ZpYmxlJwpwNDEKSTAxCnNTJ2dy|b3NvcicKcDQyCkkzCnNTJ3RpcG8nCnA0MwpJMQpzYi4=|#4294836181#4281413888'
p16
sa(dp17
g8
VWood GB
p18
sg5
S'4285018142#4294497714#4291528795#KGlDb2RlLlFULlRhYlRpcG9zCkZsZWNoYQpwMQooZHAyClMnb3BhY2lkYWQnCnAzCkYwLjgwMDAw|MDAwMDAwMDAwMDA0CnNTJ2Zvcm1hJwpwNApTJ2MnCnNTJ2NvbG9yaW50ZXJpb3IyJwpwNQpJLTEK|c1MnYW5jaG9DYXNpbGxhJwpwNgpJMzYKc1MnYTFoOCcKcDcKUydkMmQ2JwpwOApzUydhbmNobycK|cDkKSTcKc1MnY29sb3InCnAxMApMNDI5MDk1NTMyMEwKc1MnZGVzY3VlbGd1ZScKcDExCkkwCnNT|J3Z1ZWxvJwpwMTIKSTQKc1MncG9zaWNpb24nCnAxMwooaUNvZGUuUVQuVGFiVGlwb3MKUG9zaWNp|b24KcDE0CihkcDE1ClMnYWx0bycKcDE2Ckk5OQpzUydvcmRlbicKcDE3Ckk5CnNnOQpJMTI2CnNT|J2FuZ3VsbycKcDE4CkkwCnNTJ3knCkkyMzQKc1MneCcKSTEyNgpzYnNTJ2Rlc3Rpbm8nCnAxOQpT|J20nCnNTJ3JlZG9uZGVvcycKcDIwCkkwMQpzUydhbHRvY2FiZXphJwpwMjEKSTI4CnNTJ2NvbG9y|aW50ZXJpb3InCnAyMgpMNDI5MDk1NTMyMEwKc1MnbGlWYXJzJwpwMjMKKGxwMjQKKFMncG9zaWNp|b24nClMnbycKdHAyNQphKFMnYTFoOCcKUydjJwp0cDI2CmEoUydncm9zb3InClMnbicKdHAyNwph|KFMnYWx0b2NhYmV6YScKUyduJwp0cDI4CmEoUyd0aXBvJwpTJ24nCnRwMjkKYShTJ2Rlc3Rpbm8n|ClMndCcKdHAzMAphKFMnYW5jaG9DYXNpbGxhJwpTJ24nCnRwMzEKYShTJ2NvbG9yJwpTJ24nCnRw|MzIKYShTJ2NvbG9yaW50ZXJpb3InClMnbicKdHAzMwphKFMnY29sb3JpbnRlcmlvcjInClMnbicK|dHAzNAphKFMnb3BhY2lkYWQnClMnbicKdHAzNQphKFMncmVkb25kZW9zJwpTJ2wnCnRwMzYKYShT|J2Zvcm1hJwpTJ3QnCnRwMzcKYShTJ2FuY2hvJwpTJ24nCnRwMzgKYShTJ3Z1ZWxvJwpTJ24nCnRw|MzkKYShTJ2Rlc2N1ZWxndWUnClMnbicKdHA0MAphc1Mnc2lNb3ZpYmxlJwpwNDEKSTAxCnNTJ2dy|b3NvcicKcDQyCkkzCnNTJ3RpcG8nCnA0MwpJMQpzYi4=|#4294497714#4285018142'
p19
sa(dp20
g8
VInternet GB
p21
sg5
S'4280829012#4294967295#4286173439#KGlDb2RlLlFULlRhYlRpcG9zCkZsZWNoYQpwMQooZHAyClMnb3BhY2lkYWQnCnAzCkYwLjgwMDAw|MDAwMDAwMDAwMDA0CnNTJ2Zvcm1hJwpwNApTJ2MnCnNTJ2NvbG9yaW50ZXJpb3IyJwpwNQpJLTEK|c1MnYW5jaG9DYXNpbGxhJwpwNgpJMzYKc1MnYTFoOCcKcDcKUydkMmQ2JwpwOApzUydhbmNobycK|cDkKSTcKc1MnY29sb3InCnAxMApMNDI5MDk1NTMyMEwKc1MnZGVzY3VlbGd1ZScKcDExCkkwCnNT|J3Z1ZWxvJwpwMTIKSTQKc1MncG9zaWNpb24nCnAxMwooaUNvZGUuUVQuVGFiVGlwb3MKUG9zaWNp|b24KcDE0CihkcDE1ClMnYWx0bycKcDE2Ckk5OQpzUydvcmRlbicKcDE3Ckk5CnNnOQpJMTI2CnNT|J2FuZ3VsbycKcDE4CkkwCnNTJ3knCkkyMzQKc1MneCcKSTEyNgpzYnNTJ2Rlc3Rpbm8nCnAxOQpT|J20nCnNTJ3JlZG9uZGVvcycKcDIwCkkwMQpzUydhbHRvY2FiZXphJwpwMjEKSTI4CnNTJ2NvbG9y|aW50ZXJpb3InCnAyMgpMNDI5MDk1NTMyMEwKc1MnbGlWYXJzJwpwMjMKKGxwMjQKKFMncG9zaWNp|b24nClMnbycKdHAyNQphKFMnYTFoOCcKUydjJwp0cDI2CmEoUydncm9zb3InClMnbicKdHAyNwph|KFMnYWx0b2NhYmV6YScKUyduJwp0cDI4CmEoUyd0aXBvJwpTJ24nCnRwMjkKYShTJ2Rlc3Rpbm8n|ClMndCcKdHAzMAphKFMnYW5jaG9DYXNpbGxhJwpTJ24nCnRwMzEKYShTJ2NvbG9yJwpTJ24nCnRw|MzIKYShTJ2NvbG9yaW50ZXJpb3InClMnbicKdHAzMwphKFMnY29sb3JpbnRlcmlvcjInClMnbicK|dHAzNAphKFMnb3BhY2lkYWQnClMnbicKdHAzNQphKFMncmVkb25kZW9zJwpTJ2wnCnRwMzYKYShT|J2Zvcm1hJwpTJ3QnCnRwMzcKYShTJ2FuY2hvJwpTJ24nCnRwMzgKYShTJ3Z1ZWxvJwpTJ24nCnRw|MzkKYShTJ2Rlc2N1ZWxndWUnClMnbicKdHA0MAphc1Mnc2lNb3ZpYmxlJwpwNDEKSTAxCnNTJ2dy|b3NvcicKcDQyCkkzCnNTJ3RpcG8nCnA0MwpJMQpzYi4=|#4294967295#4280829012'
p22
sa(dp23
g8
VMahnmut
p24
sg5
S'4279841860#4293717228#4282484141#KGlDb2RlLlFULlRhYlRpcG9zCkZsZWNoYQpwMQooZHAyClMnb3BhY2lkYWQnCnAzCkYwLjgwMDAw|MDAwMDAwMDAwMDA0CnNTJ2Zvcm1hJwpwNApTJ2MnCnNTJ2NvbG9yaW50ZXJpb3IyJwpwNQpJLTEK|c1MnYW5jaG9DYXNpbGxhJwpwNgpJMzYKc1MnYTFoOCcKcDcKUydkMmQ2JwpwOApzUydhbmNobycK|cDkKSTcKc1MnY29sb3InCnAxMApMNDI5MDk1NTMyMEwKc1MnZGVzY3VlbGd1ZScKcDExCkkwCnNT|J3Z1ZWxvJwpwMTIKSTQKc1MncG9zaWNpb24nCnAxMwooaUNvZGUuUVQuVGFiVGlwb3MKUG9zaWNp|b24KcDE0CihkcDE1ClMnYWx0bycKcDE2Ckk5OQpzUydvcmRlbicKcDE3Ckk5CnNnOQpJMTI2CnNT|J2FuZ3VsbycKcDE4CkkwCnNTJ3knCkkyMzQKc1MneCcKSTEyNgpzYnNTJ2Rlc3Rpbm8nCnAxOQpT|J20nCnNTJ3JlZG9uZGVvcycKcDIwCkkwMQpzUydhbHRvY2FiZXphJwpwMjEKSTI4CnNTJ2NvbG9y|aW50ZXJpb3InCnAyMgpMNDI5MDk1NTMyMEwKc1MnbGlWYXJzJwpwMjMKKGxwMjQKKFMncG9zaWNp|b24nClMnbycKdHAyNQphKFMnYTFoOCcKUydjJwp0cDI2CmEoUydncm9zb3InClMnbicKdHAyNwph|KFMnYWx0b2NhYmV6YScKUyduJwp0cDI4CmEoUyd0aXBvJwpTJ24nCnRwMjkKYShTJ2Rlc3Rpbm8n|ClMndCcKdHAzMAphKFMnYW5jaG9DYXNpbGxhJwpTJ24nCnRwMzEKYShTJ2NvbG9yJwpTJ24nCnRw|MzIKYShTJ2NvbG9yaW50ZXJpb3InClMnbicKdHAzMwphKFMnY29sb3JpbnRlcmlvcjInClMnbicK|dHAzNAphKFMnb3BhY2lkYWQnClMnbicKdHAzNQphKFMncmVkb25kZW9zJwpTJ2wnCnRwMzYKYShT|J2Zvcm1hJwpTJ3QnCnRwMzcKYShTJ2FuY2hvJwpTJ24nCnRwMzgKYShTJ3Z1ZWxvJwpTJ24nCnRw|MzkKYShTJ2Rlc2N1ZWxndWUnClMnbicKdHA0MAphc1Mnc2lNb3ZpYmxlJwpwNDEKSTAxCnNTJ2dy|b3NvcicKcDQyCkkzCnNTJ3RpcG8nCnA0MwpJMQpzYi4=|#4293717228#4279841860'
p25
sa(dp26
g8
VHarman
p27
sg5
S'4280427008#4293717228#4285229824#KGlDb2RlLlFULlRhYlRpcG9zCkZsZWNoYQpwMQooZHAyClMnb3BhY2lkYWQnCnAzCkYwLjgwMDAw|MDAwMDAwMDAwMDA0CnNTJ2Zvcm1hJwpwNApTJ2MnCnNTJ2NvbG9yaW50ZXJpb3IyJwpwNQpJLTEK|c1MnYW5jaG9DYXNpbGxhJwpwNgpJMzYKc1MnYTFoOCcKcDcKUydkMmQ2JwpwOApzUydhbmNobycK|cDkKSTcKc1MnY29sb3InCnAxMApMNDI5MDk1NTMyMEwKc1MnZGVzY3VlbGd1ZScKcDExCkkwCnNT|J3Z1ZWxvJwpwMTIKSTQKc1MncG9zaWNpb24nCnAxMwooaUNvZGUuUVQuVGFiVGlwb3MKUG9zaWNp|b24KcDE0CihkcDE1ClMnYWx0bycKcDE2Ckk5OQpzUydvcmRlbicKcDE3Ckk5CnNnOQpJMTI2CnNT|J2FuZ3VsbycKcDE4CkkwCnNTJ3knCkkyMzQKc1MneCcKSTEyNgpzYnNTJ2Rlc3Rpbm8nCnAxOQpT|J20nCnNTJ3JlZG9uZGVvcycKcDIwCkkwMQpzUydhbHRvY2FiZXphJwpwMjEKSTI4CnNTJ2NvbG9y|aW50ZXJpb3InCnAyMgpMNDI5MDk1NTMyMEwKc1MnbGlWYXJzJwpwMjMKKGxwMjQKKFMncG9zaWNp|b24nClMnbycKdHAyNQphKFMnYTFoOCcKUydjJwp0cDI2CmEoUydncm9zb3InClMnbicKdHAyNwph|KFMnYWx0b2NhYmV6YScKUyduJwp0cDI4CmEoUyd0aXBvJwpTJ24nCnRwMjkKYShTJ2Rlc3Rpbm8n|ClMndCcKdHAzMAphKFMnYW5jaG9DYXNpbGxhJwpTJ24nCnRwMzEKYShTJ2NvbG9yJwpTJ24nCnRw|MzIKYShTJ2NvbG9yaW50ZXJpb3InClMnbicKdHAzMwphKFMnY29sb3JpbnRlcmlvcjInClMnbicK|dHAzNAphKFMnb3BhY2lkYWQnClMnbicKdHAzNQphKFMncmVkb25kZW9zJwpTJ2wnCnRwMzYKYShT|J2Zvcm1hJwpTJ3QnCnRwMzcKYShTJ2FuY2hvJwpTJ24nCnRwMzgKYShTJ3Z1ZWxvJwpTJ24nCnRw|MzkKYShTJ2Rlc2N1ZWxndWUnClMnbicKdHA0MAphc1Mnc2lNb3ZpYmxlJwpwNDEKSTAxCnNTJ2dy|b3NvcicKcDQyCkkzCnNTJ3RpcG8nCnA0MwpJMQpzYi4=|#4293717228#4280427008'
p28
sa(dp29
g8
VOrphu
p30
sg5
S'4281676849#4294242784#4290689717#KGlDb2RlLlFULlRhYlRpcG9zCkZsZWNoYQpwMQooZHAyClMnb3BhY2lkYWQnCnAzCkYwLjgwMDAw|MDAwMDAwMDAwMDA0CnNTJ2Zvcm1hJwpwNApTJ2MnCnNTJ2NvbG9yaW50ZXJpb3IyJwpwNQpJLTEK|c1MnYW5jaG9DYXNpbGxhJwpwNgpJMzYKc1MnYTFoOCcKcDcKUydkMmQ2JwpwOApzUydhbmNobycK|cDkKSTcKc1MnY29sb3InCnAxMApMNDI5MDk1NTMyMEwKc1MnZGVzY3VlbGd1ZScKcDExCkkwCnNT|J3Z1ZWxvJwpwMTIKSTQKc1MncG9zaWNpb24nCnAxMwooaUNvZGUuUVQuVGFiVGlwb3MKUG9zaWNp|b24KcDE0CihkcDE1ClMnYWx0bycKcDE2Ckk5OQpzUydvcmRlbicKcDE3Ckk5CnNnOQpJMTI2CnNT|J2FuZ3VsbycKcDE4CkkwCnNTJ3knCkkyMzQKc1MneCcKSTEyNgpzYnNTJ2Rlc3Rpbm8nCnAxOQpT|J20nCnNTJ3JlZG9uZGVvcycKcDIwCkkwMQpzUydhbHRvY2FiZXphJwpwMjEKSTI4CnNTJ2NvbG9y|aW50ZXJpb3InCnAyMgpMNDI5MDk1NTMyMEwKc1MnbGlWYXJzJwpwMjMKKGxwMjQKKFMncG9zaWNp|b24nClMnbycKdHAyNQphKFMnYTFoOCcKUydjJwp0cDI2CmEoUydncm9zb3InClMnbicKdHAyNwph|KFMnYWx0b2NhYmV6YScKUyduJwp0cDI4CmEoUyd0aXBvJwpTJ24nCnRwMjkKYShTJ2Rlc3Rpbm8n|ClMndCcKdHAzMAphKFMnYW5jaG9DYXNpbGxhJwpTJ24nCnRwMzEKYShTJ2NvbG9yJwpTJ24nCnRw|MzIKYShTJ2NvbG9yaW50ZXJpb3InClMnbicKdHAzMwphKFMnY29sb3JpbnRlcmlvcjInClMnbicK|dHAzNAphKFMnb3BhY2lkYWQnClMnbicKdHAzNQphKFMncmVkb25kZW9zJwpTJ2wnCnRwMzYKYShT|J2Zvcm1hJwpTJ3QnCnRwMzcKYShTJ2FuY2hvJwpTJ24nCnRwMzgKYShTJ3Z1ZWxvJwpTJ24nCnRw|MzkKYShTJ2Rlc2N1ZWxndWUnClMnbicKdHA0MAphc1Mnc2lNb3ZpYmxlJwpwNDEKSTAxCnNTJ2dy|b3NvcicKcDQyCkkzCnNTJ3RpcG8nCnA0MwpJMQpzYi4=|#4294242784#4281676849'
p31
sa(dp32
g8
VWood L
p33
sg5
S'4282194705#4294440951#4283848015#KGlDb2RlLlFULlRhYlRpcG9zCkZsZWNoYQpwMQooZHAyClMnb3BhY2lkYWQnCnAzCkYwLjgwMDAw|MDAwMDAwMDAwMDA0CnNTJ2Zvcm1hJwpwNApTJ2MnCnNTJ2NvbG9yaW50ZXJpb3IyJwpwNQpJLTEK|c1MnYW5jaG9DYXNpbGxhJwpwNgpJMzYKc1MnYTFoOCcKcDcKUydkMmQ2JwpwOApzUydhbmNobycK|cDkKSTcKc1MnY29sb3InCnAxMApMNDI5MDk1NTMyMEwKc1MnZGVzY3VlbGd1ZScKcDExCkkwCnNT|J3Z1ZWxvJwpwMTIKSTQKc1MncG9zaWNpb24nCnAxMwooaUNvZGUuUVQuVGFiVGlwb3MKUG9zaWNp|b24KcDE0CihkcDE1ClMnYWx0bycKcDE2Ckk5OQpzUydvcmRlbicKcDE3Ckk5CnNnOQpJMTI2CnNT|J2FuZ3VsbycKcDE4CkkwCnNTJ3knCkkyMzQKc1MneCcKSTEyNgpzYnNTJ2Rlc3Rpbm8nCnAxOQpT|J20nCnNTJ3JlZG9uZGVvcycKcDIwCkkwMQpzUydhbHRvY2FiZXphJwpwMjEKSTI4CnNTJ2NvbG9y|aW50ZXJpb3InCnAyMgpMNDI5MDk1NTMyMEwKc1MnbGlWYXJzJwpwMjMKKGxwMjQKKFMncG9zaWNp|b24nClMnbycKdHAyNQphKFMnYTFoOCcKUydjJwp0cDI2CmEoUydncm9zb3InClMnbicKdHAyNwph|KFMnYWx0b2NhYmV6YScKUyduJwp0cDI4CmEoUyd0aXBvJwpTJ24nCnRwMjkKYShTJ2Rlc3Rpbm8n|ClMndCcKdHAzMAphKFMnYW5jaG9DYXNpbGxhJwpTJ24nCnRwMzEKYShTJ2NvbG9yJwpTJ24nCnRw|MzIKYShTJ2NvbG9yaW50ZXJpb3InClMnbicKdHAzMwphKFMnY29sb3JpbnRlcmlvcjInClMnbicK|dHAzNAphKFMnb3BhY2lkYWQnClMnbicKdHAzNQphKFMncmVkb25kZW9zJwpTJ2wnCnRwMzYKYShT|J2Zvcm1hJwpTJ3QnCnRwMzcKYShTJ2FuY2hvJwpTJ24nCnRwMzgKYShTJ3Z1ZWxvJwpTJ24nCnRw|MzkKYShTJ2Rlc2N1ZWxndWUnClMnbicKdHA0MAphc1Mnc2lNb3ZpYmxlJwpwNDEKSTAxCnNTJ2dy|b3NvcicKcDQyCkkzCnNTJ3RpcG8nCnA0MwpJMQpzYi4=|#4294243572#4282194705'
p34
sa(dp35
g8
VAzul
p36
sg5
S'4282931067#4293914607#4286419133#KGlDb2RlLlFULlRhYlRpcG9zCkZsZWNoYQpwMQooZHAyClMnb3BhY2lkYWQnCnAzCkYwLjgwMDAw|MDAwMDAwMDAwMDA0CnNTJ2Zvcm1hJwpwNApTJ2MnCnNTJ2NvbG9yaW50ZXJpb3IyJwpwNQpJLTEK|c1MnYW5jaG9DYXNpbGxhJwpwNgpJMzYKc1MnYTFoOCcKcDcKUydkMmQ2JwpwOApzUydhbmNobycK|cDkKSTcKc1MnY29sb3InCnAxMApMNDI5MDk1NTMyMEwKc1MnZGVzY3VlbGd1ZScKcDExCkkwCnNT|J3Z1ZWxvJwpwMTIKSTQKc1MncG9zaWNpb24nCnAxMwooaUNvZGUuUVQuVGFiVGlwb3MKUG9zaWNp|b24KcDE0CihkcDE1ClMnYWx0bycKcDE2Ckk5OQpzUydvcmRlbicKcDE3Ckk5CnNnOQpJMTI2CnNT|J2FuZ3VsbycKcDE4CkkwCnNTJ3knCkkyMzQKc1MneCcKSTEyNgpzYnNTJ2Rlc3Rpbm8nCnAxOQpT|J20nCnNTJ3JlZG9uZGVvcycKcDIwCkkwMQpzUydhbHRvY2FiZXphJwpwMjEKSTI4CnNTJ2NvbG9y|aW50ZXJpb3InCnAyMgpMNDI5MDk1NTMyMEwKc1MnbGlWYXJzJwpwMjMKKGxwMjQKKFMncG9zaWNp|b24nClMnbycKdHAyNQphKFMnYTFoOCcKUydjJwp0cDI2CmEoUydncm9zb3InClMnbicKdHAyNwph|KFMnYWx0b2NhYmV6YScKUyduJwp0cDI4CmEoUyd0aXBvJwpTJ24nCnRwMjkKYShTJ2Rlc3Rpbm8n|ClMndCcKdHAzMAphKFMnYW5jaG9DYXNpbGxhJwpTJ24nCnRwMzEKYShTJ2NvbG9yJwpTJ24nCnRw|MzIKYShTJ2NvbG9yaW50ZXJpb3InClMnbicKdHAzMwphKFMnY29sb3JpbnRlcmlvcjInClMnbicK|dHAzNAphKFMnb3BhY2lkYWQnClMnbicKdHAzNQphKFMncmVkb25kZW9zJwpTJ2wnCnRwMzYKYShT|J2Zvcm1hJwpTJ3QnCnRwMzcKYShTJ2FuY2hvJwpTJ24nCnRwMzgKYShTJ3Z1ZWxvJwpTJ24nCnRw|MzkKYShTJ2Rlc2N1ZWxndWUnClMnbicKdHA0MAphc1Mnc2lNb3ZpYmxlJwpwNDEKSTAxCnNTJ2dy|b3NvcicKcDQyCkkzCnNTJ3RpcG8nCnA0MwpJMQpzYi4=|#4294243572#4278206043'
p37
sa(dp38
S'NOMBRE'
p39
VMetal
p40
sS'BASE'
p41
VChessicons#Arial#N#60#72#2#100#100
p42
sS'TEXTO'
p43
V4294967295#4294769635#4291672985#KGlDb2RlLlFULlRhYlRpcG9zCkZsZWNoYQpwMQooZHAyClMnb3BhY2lkYWQnCnAzCkYwLjc2MDAw|MDAwMDAwMDAwMDAxCnNTJ2Zvcm1hJwpwNApTJzMnCnNTJ2NvbG9yaW50ZXJpb3IyJwpwNQpJLTEK|c1MnYW5jaG9DYXNpbGxhJwpwNgpJMzYKc1MnYTFoOCcKcDcKUydkMmQ2JwpwOApzUydhbmNobycK|cDkKSTQKc1MnY29sb3InCnAxMApMNDI3ODIxMjA5NUwKc1MndnVlbG8nCnAxMQpJNQpzUydwb3Np|Y2lvbicKcDEyCihpQ29kZS5RVC5UYWJUaXBvcwpQb3NpY2lvbgpwMTMKKGRwMTQKUydhbHRvJwpw|MTUKSTE2CnNTJ29yZGVuJwpwMTYKSTkKc2c5CkkxMjgKc1MnYW5ndWxvJwpwMTcKSTAKc1MneScK|STE2CnNTJ3gnCkkwCnNic1MnZGVzdGlubycKcDE4ClMnbScKc1MncmVkb25kZW9zJwpwMTkKSTAx|CnNTJ2FsdG9jYWJlemEnCnAyMApJMjkKc1MnbGlWYXJzJwpwMjEKKGxwMjIKKFMncG9zaWNpb24n|ClMnbycKdHAyMwphKFMnYTFoOCcKUydjJwp0cDI0CmEoUydncm9zb3InClMnbicKdHAyNQphKFMn|YWx0b2NhYmV6YScKUyduJwp0cDI2CmEoUyd0aXBvJwpTJ24nCnRwMjcKYShTJ2Rlc3Rpbm8nClMn|dCcKdHAyOAphKFMnYW5jaG9DYXNpbGxhJwpTJ24nCnRwMjkKYShTJ2NvbG9yJwpTJ24nCnRwMzAK|YShTJ2NvbG9yaW50ZXJpb3InClMnbicKdHAzMQphKFMnY29sb3JpbnRlcmlvcjInClMnbicKdHAz|MgphKFMnb3BhY2lkYWQnClMnbicKdHAzMwphKFMncmVkb25kZW9zJwpTJ2wnCnRwMzQKYShTJ2Zv|cm1hJwpTJ3QnCnRwMzUKYShTJ2FuY2hvJwpTJ24nCnRwMzYKYShTJ3Z1ZWxvJwpTJ24nCnRwMzcK|YShTJ2Rlc2N1ZWxndWUnClMnbicKdHAzOAphKFMncG5nJwpTJ2MnCnRwMzkKYXNTJ2NvbG9yaW50|ZXJpb3InCnA0MApMNDI3ODIxMjA5NUwKc1MnZGVzY3VlbGd1ZScKcDQxCkk2CnNTJ3NpTW92aWJs|ZScKcDQyCkkwMQpzUydncm9zb3InCnA0MwpJMQpzUydwbmcnCnA0NApTJ1x4ODlQTkdcclxuXHgx|YVxuXHgwMFx4MDBceDAwXHJJSERSXHgwMFx4MDBceDAwIFx4MDBceDAwXHgwMCBceDA4XHgwNlx4|MDBceDAwXHgwMHN6elx4ZjRceDAwXHgwMFx4MDBceDA0c0JJVFx4MDhceDA4XHgwOFx4MDh8XHgw|OGRceDg4XHgwMFx4MDBceDAwXHRwSFlzXHgwMFx4MDBceDBlXHhjNFx4MDBceDAwXHgwZVx4YzRc|eDAxXHg5NStceDBlXHgxYlx4MDBceDAwXHgwMVxcSURBVFhceDg1XHhlZFx4ZDZceGExS1x4ODNB|XHgxOFx4YzdceGYxXHhlZm1ceDg4XHg5NkVceGZmXHgwMlx4OWJiXHgxMEFceDgzYVx4ZDU4XHhm|Nlx4YmVceGNmYGtqc1x4ZDVceGJhXHhhOElceDE4WFxcU1x4YjBceDBjXHhhNiBoXHhiMChceDA2|XHhjYlx4OGFRXHhmZDNceGE2XHhhMiJzXHhmYllceGRlMlx4YjZceGExXHhhMFx4ZGJTXHhmNmt3|XHhkY1x4ZjF8XHhlZThceGVlXHgwZSZceGU5XHg4Ylx4ODJfbVx4ZDMyXHhhNlx4ODNxXHg5Nkxc|eGY1XHhiNFx4YzRceDA2Ylx4MTNceGQzXHhlZDhceDExXHhiZDFceGRkYnolXHhkNlx4OTVceDFm|Ilx4ZDZceDE1XHhiMV4wXHg5ZFx4ZmIhTFx4ZTdceGM0elx4YzZUXHhmN0RceGQ0XHgxM1x4YzRc|eDkxXHgxZiJceGQ2MVx4YTZceDE2XHgwNVx4MWRceGZhIVxuOlx4YzRceGQ0IlJceGQ1XHgwZlx4|MTFceGE5XHg5YVx4ZWNceGM0XHhhZVx4MWZceGMyXHhiNEdBLSJVXHhmY1x4MTBceDkxKlx4Yzlc|eGMxXHhkY1x4ZjFDXHg5OHZceDEyRFx4ZDlceDEzUU4uXHhhYi1PXHhjNFx4MTZceGE2V0wlT0Rc|dFx4ZDNceDFieVx4ZTVceGZjXHgxMHlceGU1MFx4YmRjWlx4ZjdDXHg5OFx4ZDYxfWBceGNheiJc|eGIyXHg5OD4palx4ZTVceGI3U1x4ZmVceGZmXHhmYlVceGQ0XG5tXHhlZVx4MDgsXHgxM1x4OThD|ZGhceDg0XHg5M1x4ZjFceDAxXHgwMExceDhiXHg4OHtceGE2XHg5OFx4ZTdceDhiR1x4YmFceGFj|cVx4MTZceDlhXHg4M1x4ODZceGE2XHgwNnVceGZlOVx4MWRceGU2SFx4YjNAXHg5YlwnXHgwMjVS|XFxceDBjXHgxYjpceDFhQFx4OWFceDBjXVx4MWVceDA4XHhkNFx4MTBceGRiXHhjMFx4MGM2XHhm|OFx4ZmRceDE4XHhkZFx4MTc8XHhkMipceDgxS1x4MDJceGQzQFx4MDZceDEwXHg4ZFx4ZDBceGI3|XHhlMFx4ZDFceGVjXHgwMFx4YzBZaHJceDFhZlx4ZTlceGIwXHg4Zlx4MTBceDEwMF1ceDhmXHhh|Y1x4ZGVceDhmXHg4OXVceDgzXHhhOU1ceGE0JT9ceDg0a1x4ZjFJXHg4Nlx4ZTRceDFiflx4OWRc|eDkzXHgxYUFceDA3XHg4Mm5ceDAwXHgwMFx4MDBceDAwSUVORFx4YWVCYFx4ODInCnA0NQpzUyd0|aXBvJwpwNDYKSTEKc2Iu|#4283716692#4285822068#False#KGlDb2RlLlFULlRhYlRpcG9zCkZsZWNoYQpwMQooZHAyClMnb3BhY2lkYWQnCnAzCkYwLjgwMDAw|MDAwMDAwMDAwMDA0CnNTJ2Zvcm1hJwpwNApTJ2EnCnNTJ2NvbG9yaW50ZXJpb3IyJwpwNQpJLTEK|c1MnYW5jaG9DYXNpbGxhJwpwNgpJMzYKc1MndGlwbycKcDcKSTIKc1MnYW5jaG8nCnA4Ckk0CnNT|J2NvbG9yJwpwOQpMNDI3ODE5MDIwN0wKc1MnYTFoOCcKcDEwClMnZDJkNicKcDExCnNTJ3Z1ZWxv|JwpwMTIKSTUKc1MncG9zaWNpb24nCnAxMwooaUNvZGUuUVQuVGFiVGlwb3MKUG9zaWNpb24KcDE0|CihkcDE1ClMnYWx0bycKcDE2CkkxNgpzUydvcmRlbicKcDE3Ckk5CnNnOApJMTI4CnNTJ2FuZ3Vs|bycKcDE4CkkwCnNTJ3knCkkxNgpzUyd4JwpJMApzYnNTJ2Rlc3Rpbm8nCnAxOQpTJ20nCnNTJ3Jl|ZG9uZGVvcycKcDIwCkkwMQpzUydhbHRvY2FiZXphJwpwMjEKSTIwCnNTJ2xpVmFycycKcDIyCihs|cDIzCihTJ3Bvc2ljaW9uJwpTJ28nCnRwMjQKYShTJ2ExaDgnClMnYycKdHAyNQphKFMnZ3Jvc29y|JwpTJ24nCnRwMjYKYShTJ2FsdG9jYWJlemEnClMnbicKdHAyNwphKFMndGlwbycKUyduJwp0cDI4|CmEoUydkZXN0aW5vJwpTJ3QnCnRwMjkKYShTJ2FuY2hvQ2FzaWxsYScKUyduJwp0cDMwCmEoUydj|b2xvcicKUyduJwp0cDMxCmEoUydjb2xvcmludGVyaW9yJwpTJ24nCnRwMzIKYShTJ2NvbG9yaW50|ZXJpb3IyJwpTJ24nCnRwMzMKYShTJ29wYWNpZGFkJwpTJ24nCnRwMzQKYShTJ3JlZG9uZGVvcycK|UydsJwp0cDM1CmEoUydmb3JtYScKUyd0Jwp0cDM2CmEoUydhbmNobycKUyduJwp0cDM3CmEoUyd2|dWVsbycKUyduJwp0cDM4CmEoUydkZXNjdWVsZ3VlJwpTJ24nCnRwMzkKYShTJ3BuZycKUydjJwp0|cDQwCmFzUydjb2xvcmludGVyaW9yJwpwNDEKSS0xCnNTJ2Rlc2N1ZWxndWUnCnA0MgpJNgpzUydz|aU1vdmlibGUnCnA0MwpJMDEKc1MnZ3Jvc29yJwpwNDQKSTQKc1MncG5nJwpwNDUKUydceDg5UE5H|XHJcblx4MWFcblx4MDBceDAwXHgwMFxySUhEUlx4MDBceDAwXHgwMCBceDAwXHgwMFx4MDAgXHgw|OFx4MDZceDAwXHgwMFx4MDBzenpceGY0XHgwMFx4MDBceDAwXHgwNHNCSVRceDA4XHgwOFx4MDhc|eDA4fFx4MDhkXHg4OFx4MDBceDAwXHgwMFx0cEhZc1x4MDBceDAwXHgwZVx4YzRceDAwXHgwMFx4|MGVceGM0XHgwMVx4OTUrXHgwZVx4MWJceDAwXHgwMFx4MDFceGI4SURBVFhceDg1XHhkNVx4OTZc|eGJmS1x4YzNAXHgxNFx4Yzc/XHg5N1x4ODYqXHhiOFx4ODhceGEyXHg4Mlx4OGJcbiI4dFx4ZDRF|XHg5MFx4ZmVcckpceGE1XHhlMFx4ZTRceGRhRVx4MWRceDA0RTRkXHgxMFwnXHgxMVwnXHhmMVx4|MGZceDEwKjg5OVx4YjhceDA0XHhlYVx4N2ZceGQwdnBxLjg4RFx4MTRceGQ0XHg5ZVx4YzMlJlx4|ZDVceGZlMlx4ZjZceDBlXHhmZEJceGUwXHhlZV1eXHhkZVx4ZTdceGRkXVx4ZGVceDFkXHhmYzFc|eDg5XHhlMDFceDFhMFx4ZDBceGRlMlhnQFx4MWQoXHg4MHtpXHgwMlx4YzBceDhhQFx4YWMzYFx4|MThceDE4XHgwMXlceDAxTlx4ZGUkXHgwMFx4YThceGNjQ1x4MWVceDBiXHhlNFx4YjlcdFx4ODhc|eDEwQFx4MDJceDA1XHg5MFx4YzYhUlFceGQzXHhhYkJceGY2XHgwZVx4ZTRceDEyXHg4OGBvXHgw|OFx4YTFceGZhXHhkOTtceGYwXHhjYVx4OWFceDAxQFx4MDUxXHgwYlx4OTFceGZhbjJceDBiXHhk|MVx4MDRceGMwLERceDBiXHgwMHNceDEwbVx4MDBceGNjQHRceDAwXHhkMFx4MGZceGQxXHgwNVx4|ODBeXHg4OFx4MWZceDFlPE5eXHgxNVwnXHgxMVx4YWJceGEwXHhmMlxyXHhkZWdceGUwXHhlMD5c|dFx4ODBceGQ1XHhmOVx4OTVceGI4XHhkYyJceDg4XHhkNS9ceDE1XHhkM1x4MDZrOklceGYwXHgw|NFx4MDBcclx4MTBvXHg4MVx4YTFceDAyfikpXHhjMC9ceGNlXHhmZVx4ZGQpXHg5NVx4YjlfXHg4|Mlx4ZTNceGU3XHhlNFx4ZGZceGU5XHhiOVx4MWNceDFicl1uXHhlZURLXHhkME5ceGZia1x4YzAj|XHhjYz5ceDgwXHhiM1x4ZDJceDhkR1x4MGZceGFmX1x4OGVceGFkXHg4MjNceGEwXHhmYVx4YjJc|eGFlXHhmNlx4OGFbNFx4MDRceDkwS1x4YTlceGNjXHhjNWBkXHg5M3VceDkwXHhhNyAyICpceGUw|b1x4YzFceGQxU1x4ZGNceGFiXHhlYlx4YjVceGVhXHhhY1x4YWFceDg0XHhlYz1ceGM4XHhlNVx4|YzZiJVx4ZTZBTFx4MDBzXHg5MFx4MWVceDAwXHhlZjpceGVlXHhhNVx4ZTFceDA2XHhkY1x4YWNY|XHg4NVx4OTIvXHhmMDpcdFx4ODdceGI1XHhkMFx4ZDJceGMzXHgxOVx4MDhceGU1XHg5NWFxVGVc|eGZlVVx4YzJceDg2XHhkNDt4N1x4YTFceGE1XHhjN1x4N2ZceGMxZ1x4YTBMXHhlYjFceGI5XHgw|ZVx4Y2VceDkwblx4ODBKXHg5Ylx4YjF+XHg5MFdceDlhXHgwMVx4ZmMtXHhlMERceGFkeVNceDg4|XHg4NVx4Y2ZceDk2XHgxZVx4ODBQO2NceDkwXHhkZVx4MDRceGI5XHgwMVx4YTJceGFmcVx4Y2Nc|eDE1XHhhMG1ceDA2Qlx4MWRceGQ2XHhjMFx4ZGRceDA2MVx4MGVceGRjRlx4ZjZceGZhXHg4NVx4|ZGVceGI4XHhmZklceDFmXHgxNFx4YmNceDliK1x4YTNceDlhWFx4ZGZceDAwXHgwMFx4MDBceDAw|SUVORFx4YWVCYFx4ODInCnA0NgpzYi4=|#iVBORw0KGgoAAAANSUhEUgAAAGQAAABkCAYAAABw4pVUAAAAAXNSR0IArs4c6QAAAARnQU1BAACxjwv8YQUAAAAgY0hSTQAAeiYAAICEAAD6AAAAgOgAAHUwAADqYAAAOpgAABdwnLpRPAAAAAd0SU1FB90CEhEAONdCGPwAAAATdEVYdFNvZnR3YXJlAFBob3RvU2NhcGWAdZG/AAAUDElEQVR4Xu1dXZdTxxEULCT+/38rLz6xj50YjoGExSy7gPECMTGLMt1V1V1ztXZsLL2Nz5G1SLpX9/ZndU1P6871qx/2d852u/0vN7vd3fHH+O/m5mM+73Znu7OzT/m8u9nvxifir93NJ7x/74v78f/dfnw+jrn3l/gbR8a/z87u8Tx9znjtzng1znYzzpnfcufO7sPP73f37t/fnd3/Il+7My7qw4efx1/jPOP9+u/s7m7/8b/j/XHu8fe4GJyDx+W1f9rvPv4yruf+vXEN4zPxsfFddz/d7D6d4VzjzsZr49i7du7+lnGOuMdxt+P9jx/+g2u7+9e46rqvU8ht9+Pls/3boZRQzNs3eP7x8t/5uB7v5XO+Fn/j3xdPv99fnT/hMZc87mn++zrP8aKOu36F13+8+Fc+9O94zu8Zr72+eLa/evrd+PsRzsFHHsPP5PPV+M4rHjf+zvONf798/v10vfF6vHY1rlPH5HE6fnxP/B3fV99h91vfGe+P1+Nc8ZBsIJfTyG0oZAicN5nCGgJ1IUCA42Ze9uvPHny7P//m76mUVMw43gUZCimhlkIvSqFQ/mV+Js/x+GEqOW40j5PQ7dok/LrW/Mz4fDxT2RBeKN2MKq6Nykgl0NgOnnUOKrkUVkqEMbWBnkZuuxKmlPJmCJOegC+nhdtrF4//sb948PX+2YOv9hdDmLIyeRk8DcqN5/g3PtMep/OGZ8R5rp4MxdLq3vA7odQQ+KPyAgkyBC+DiOf4dzxScdP1Qzml5LiOEHJdSyusjg+Divf52fj+9DZFjrg+GeGR5baTB+RzfImEaUJJgeoGGCJCkAgL342Lh/WnAPn89s15KiKVY6Ew3x+Pny5hrbpxhZ1URnkcvZOhy4VaQs/whLDnSofw9Bo8pzxEnpIhEt+RkWG8ntchL9l4k9/fqeTWCqmw1TFcYUe5xS1vvmgqI3MHYyuVUUoxd5flQ8Dwmo7lOhcF5eHHwlmFpSkM0QM35yxrl4DNQ8rqFdo2XpB5hopFyNpc35HltouEDg+AUMpTLLkqriv2hxUrNHRIQ/LvpP2i8oS/3lbcHqW4DDDQ4GFK8MxFyk9vJwVDeQ5K8nPbsCRhZ95BYk8hU6nyQM+NykuQTeemU8ktFXL9hsiFsVbumDcYlhNWwbBTrmqW8fb1i30oqTwpvQNJWxaFEHZp6Gu8l0AhQpgSPpTRoMCTKN8b7yO8PYQhjXN0mGyU6ODAhZ5J3xAXwiNDYxolkZflD8+R8uhTyQ0hiwoBtOtQATgsBNUCr6Rtnw1LCoFLEdcBDuRlvGkdh8/OwoOXhIdcNEKjwuQ1ON/4TFo2rzVzGuGxecD1K8Dy9Go+EtUxOaciQjGhUCmklMB8Q+QV+WmLAE8lt8ohHbIQwiLppgUS9mWYqrBBYfJm3l+HN1AB5UnheQpbAgtM8PSgUp7XHkzGeb5Q6nhUgo7QwvgfIWsKN+npL1I5QGkQeKKxgNTpwe2hQl6hrPx8eiZCWUBwyUPKFgJUWTB7FcLZMeRGhRhuH4KAoNqVhXpcIZ7c5BlK4HGDcSPtMbOXIf6ioPSkD6+CYvucQ4iqgeQBt4VQClwhSWhRRaK8ssMP8whRH8Im4HEosLyOcH3Og0Jnx5fbUAisdi4GibRGKIvY33GWmJ4w2BNpXfC22lctwTC1VUIrea534nzv0vNg2Zmg0yORM95dP5+SbFxjvBYJ2cFJ5LfMZazMJ9CiwnLko0rs47Wos64e/zMVk94lw6mClgZ2ArlBIUIPRiVM1XclPoYwXkgVfQxlXtBNcNLDnWDjULbwf6MpAxcMAaUQy2eydilFxhAKFBWTIZYoakrwBVsVdlV7oPgMZUdtdfH46wxfCHfbUqCZCRhyUzB/Vm6V1LvQipMPl2RMLeRkCbqSOhFRJn8Wcwp3IQyBgoaYpEVCUOl9qujDiht+gtOykEmD6fDWIU8Ki+8NhajaVs4rioS5sDwt85OjQYQrPSKHipZRFGmAo+tG7mml/Hm5lYekl5B2CFQha5F1ecVdYS7CgMLIpDCGmvK+USxWIldiV64SGAgBEfnEdTjMJjvg3ixhFhiJgpSeKz6rLLsQXxd2uJ+up+o8aVjBIlDQQoQOVozFOLbcZoXYRaRCjMJomIqCbobERCqCmbR8KXGLzqRQoSyHyyrEPOmHZTpcFcRGjvmhOSzWTTNn1uFGdZXnreanNvyWhbYCOWlUI6duFXJEuc05hNxSfiFDVoaSqjEOaZUpBxWzS/o+AcPMxgaKCsGEMN++edlwueL0i+SlBCMbOHTS70IQdU+jQnqdEX+TV1m+rJqGUaEh8QyZkwqid0yI0HPvEeWW6yHpdgYtK5ZaBeuJTXWBXnOuSyEuzoEbOE/3V2xvlCVBjjqjwh5JPoO1bs3ymjQQoicpDgJFLTGTk4DScUzmFd4nrnm8LuJSBjEMSMSnaJ4uhHEMQNBp5Ib1kLgwXmhaH0k/VaMVJwv59IWl4OnCea4o5MQN6fMbrkyfF7rbophtiIvwGK+9v35JuAtvUUiEosLbIg9iUSmuXUgrji8WwuBzfQ+plFKO5a8uXgE88lqLIzu+3FIhTpyVkDYoS7FWiVP8FqDlEA4tNgXjPJfzV+H+pdQRXsYx8o48/zCK2fKHoMfnUWgCfpY3ZlI2QKAQQvqjuTRbC6nQYgtoiQYjLD+c6i2F6oMazEOVEY7HktvO2dcOBTMaKSWkQEZokBJIsSDOgj55N6xYVpR0AxN8LaVarnCBiq9KhVrMrrUUhpbyijyP8WWZr+zfsvK0ZqflyTJHOA2DiPCXxwqoKE8S8ZU3dCjsdZY+Nwzpz8sNHkL+qAupDTwkJBYTC6TRN5SvlxCddpmrarfwuAEJvxJqeZY8Bwm2w0ZXyKqek2Uw6N0Iaw4vWu5NSw6vMEZBqG/ixkIR9IA85hWpFeajU8mtFFJhZlzIbUSiVtLaG3hTtKCZKOxK1tFSxWyFGws5zejSyuVd+VkxsrTk4UXpiUVeNtsAr2miU4KL6xeTIPJRuWlO2k0jgc9q2r8SeRmxrasfSW5Zqc+rYH5z7cYKbQhDqIrjeV7/Zg5gBY9kLaZXSiKLyxCTimTVLCjqocgtWQqN70YNAuEj2eN6JkBgIUxkoa63oDJpITfCihhxHwQBWLdBuEPheRq5ZR0y3USFH35hWCfdV90dTipOEDSPdShptLvCkazanh1lIRZzKZiKl7ARWkaoo6Jz7WR85/t3L6seUVjdMgjl4URhQGYDkjMfVghSe5AtNSC8tvF5Z0td+5HktnOIWvialpU3paRsaKyKsSIZmexFjztON2Sj1b2sxi+wSljC9oS8KUblkTCEkb/GcRejFSkfo+slcpFC2G9B6YK1WSOhyleNkkZJo4nPBTOQrK/akyw8pvIM2h9Tbjtgai3cz5V4hSO2Bk1tMkRcoMZjla9DUsVoWpastXqwhhCj7SctjTcqlOa0hJOJyEUSItYy1GmSRkOFNtzFUnAXvJGkH9XiFZRMRFjIDwYoFBWsLxr4sABV+VCh7ARym7isW60rcgYF68qLsBH0d8btgUBqidNvjnBSlhgKefLl38bjy9GLBetuQVuRpbxTCd2VYQnewm14mgxogqVcZUyvHAaglVBV6m5IIlQ9NJf1170YaLB73RazmWs/Q25zDrHEdVB0WeJVnK7kWl7GpriynMghQDzoVAG1j16uTpKduIdiDfoqnIUle5gsJpjWHOePzxx4ulvyOG+EoDSA9LaZBgmBRgh8Eh2ZsYQ7vGJiuOmF+Rrvr5RwRLkdJnUv3Ozv4n4Mn3dsF7cjLgpNas77eNKsWK3EmZwXUFPXEb2mHihK6+sgJ7msy/ojgcUWYVV+kOKf7l8/f4DuSBGSaSwgT8N7wmPDc+Nx+8LUHNIPvOKgWAWRWvfF0Pdbcmu2V+00su7x/PL5WD1jm2a6cYQmNR8oppsHNGzlhUd+IGqaqQVcZOWISpgIB0UUTjVILNEC2spjFNclmIKyZUjN3KrArM/GdVm+6M6VZ5mb4uHND44EPTxXG9KR5Mak3j28fpMRU2E1TKCEmdt6ofknFmSB7S2cqF7YtvP0il0ch6a14qosiUqpsuyAuQmvSYgCYSnpXo66ZK5H0AYE5VSNoRYja7IWr5cQOeGwmF1bThC1n2H6+HI7SOqOq+PCzr/5ZijkQaIi75maLGZK5L4VAegHKKtp8Eqk4psYOnw5FnRMdz+6p0UIyzBGql2KUpjEe13gihLKZVlDlQpzUgSWCaIFCIisFBLXr+Xdid6fQ1h+J8/xuXLDmrq0LoqCYSg9hIkOArqackMpRXULqXwJvKtwWpoofiZVhCxV3M1TCbpC0BQGEVWEkQITVgdlg0PVPEBieR41aFAR2oOinCYhdg0S9H2gRmsgLxDgCjiN3NJDABdbaLKcrBuiQBpKAYclJNOLNFqHcA6pyMbKAcbCUjDqzfKcJJqlFTKveaBpTtQNkRc9AfkFDX5Fa6jQ00omGWN4kq+KmjcRtKSXsCmvUF0taePzp5Bbk4vl4l0oFow0Nwfnw9Wyohds1c/CUOeDjsXwKuvZrXDW1ie6v5dOkcwVipxdVp1Q1brliQ4z3VCeIWvT/V4RgsiwmdxeK5InKQ9OHpbeexy5TeTiQZVbTdCEsVVfGOWQ9AogaoWgKTe0oCeaXNWvKuyyOLX/MJwZvd4hTu/1ZiCtZ6hOmPt9SRIWPdIdJb0NQlAd3Tc63jtYZkP0JQpvLEd/suC7k5ITVfMrcutWUrPUpqxBP7t1eNKvxBm5QWsSUgaLtU7+8KL2GoWMptuRe3SjgKW+ONbWqYUhVMNdu0iZ7FJRiLJnX2ZANyN2XblimiIyYrV4Onk3my6OLDfbQeWL94KUzXHFTW+p9qKslRdCgFaQCf3M9YE4Lwh+hsJWROX6vFMmELyKLKfot8k8w5iaF5gTwPZyU6ktMUMZYBCwde5QQcllCWVNcNdyr65NWywsBfwRudUew0Y7DVG30LapCfI5FsK2VavTCk0KCjH58mgvr/a6yGGnfdcdyl+zsQjOTvFfC0m26zYEO22bC+VUsu+dXFDMUCCb9Go9yLobnYfb1mYuuz8it6kOQXjoEFUVKeFlC327O8qOE31gFtWLVCzeCGFVaygx94XPazTpRWQSRHN447U2gHaoBRfVHeyyfjT/dULuYrFIxLjukEHWE9heXR7EJYit8R1TblQISEBRFtrZ1El4eAQta4suimjz3ioWSF2PgNaerYbVr+WJpNMNwfn3x+tao0iuKbrcGR60BU2CSgJzvP/6nLulKEjfSav1j23B5x72+hz70w92ARcdf3y53Uq/z7GdMX8TdyVsURFoCwJZV7wVPaEqc+L4rLptQQpr20JC2jgTaxBGdadCRle6tmOTAEzF+Bp3GIMtNLlHzHCWTeWbWkXeUdV75ZfepXUbS1GUTMHfz5NbKsSrYQmzBD01h1FoRCUOQ+PzzkPdllOK2LNaRJa6neQQSjsIGcwFwdqqo17hZKJKuOJXyZi1yU8Xj7HSZ8MAbs056VG9xaCurRK6eLNmEY4ltzVawxJ6bS1QrlijNQgoPIxswk/VEfk6216tjvAGBM8T8oxf94iGu/kdanYwb5oYBluDF2hpklIscPcSh7f+npEka7QGyVVMcdCAnJG7xGlRMWu0BvNMWqWKPPcWxnPB2zVag9VrJ/+usqtXlpC2+nut10m0f3E+ExMLAnJGcpwU4WjP2nEa5fRYqW21XuFqjdaQgEVpWOvRhFzWaI01WkMLWKLt12gNTaxbozWillmjNbQOk5QNesfWaI1pLR/LAE7dr9Ea6iJZozXWaA1nkwWXvclanFG8t0ZrkEmtHUdcJVujNURGrtEaoN6jSB3GofX3NVqjOkaMllZbqDWzTesItl5ezc9cP+lZW2qKWKM11miNXEtH1033h7WBTOsv1THpzXefN5JkjdYQcWnIco3WkDCqdUYjZ+emiDVaw7YHCI5W41quoXPCXBRya7SGNXvPM4S1vJ0LZv9Hbmu0RvQChGdWk5+6Y7x3jCuAbNLIJYMMdWu0BlqJ2FWvPYBrtEbu6VijNbRmr1B0jJEka7QG10PWaI01WqNng7HJMPLSGq1h45bWaI01WqMaOaJtNsLmGq1hM1rWaA12uq/RGj2SZI3WWKM1tPNpjdbordXatRZdJ9OeOdsxmwNZ1mgN32aQLMEarYEtx2u0xhDCGq3RG0u3Q3FONZJkjdYo2KufLzImd43W6DV53yJXY5k45WeN1shNlT2S7/eMiABNbkNnooHBJ1Cv0Rq3jiRZozXWaI01WuO3RpKs0RprtAYG1NRWuJpGNw909n3ua7SGBkRWEl6jNfR779W6qk2pRx5JskZrrNEamqllU3mGUNZoDdRga7TGGq2BNlFtwqlfTNDPQvg0n81PSGiUUrffrNEaiY5iqH2NSRqTr2uDPicL1YYe7h3M9tPq9FPfLuqRCFXPHnyVg5pzj8dma4M2Yk5JlbPaNSdL49BrNIamPGg87EaxPpW0Bhis0RqYc6WZIhL4NH5PQzHXaI15+ltRz2Z5mkW1RmvcMh+SXfyfI7ec5KCOdvySjI3Q9m0CmgbH32LSNrLtBLmaHsdfOehdU5w0Z03K+d4arcHRh5DPGq2xRmtoqxfCoigSPGMqdG0XE2NQcww5cSh/SiJ+ihXePE+x5g/V589f9IYfzBMOEBG/ftA/Zo8lAU4nDe/VcGUbspy/Xq1prTWNKAZg6sdgeC1c7Jp/2rz3ihTY2Uw68j2Wa7SGUN0arYFfM9ADY/J6CukarXHbkOA1WmON1lijNTJUYH81qGUOGGZMPWh/GUltjdYgEDiB3P4HSr/afV2YLesAAAAASUVORK5CYII=#iVBORw0KGgoAAAANSUhEUgAAAGQAAABkCAIAAAD/gAIDAAAACXBIWXMAAAsTAAALEwEAmpwYAAAAB3RJTUUH3QISEQA410IY/AAAAB1pVFh0Q29tbWVudAAAAAAAQ3JlYXRlZCB3aXRoIEdJTVBkLmUHAAARdUlEQVR42u1bTbIbPXLMeh8VyGLMFw+tleSVv62P4AN460P5GL6C7zNLL6XZqPEiZohEDBXlRQFNyuHVMLxrKfTER3azUUD9ZGVV2X/953/QMZqiEMCQAATorghCEEBgDAF4/0KA6hrS+0Z15C2FBHDcXkgCw5QX0PBj36/u5b0CIPit7YCuZnkXCHTBCAICgLxySBi49X51JwFCHRwS8yZKQMH//jMEEAW3tl/dS6kDc4UvSvomAR1RSH88jkB+rHw69KP3W48pvIMOdcDzWgAwU16KATPpsXT0zmdZBF3NrnSAKMT8W0FAJHmLGBL0WM2td0EQaFBen79DGPOqAj4vHwDIW8R8W3hd0otBY2AEzAAnBAyMIjoAgTQJA9olNeAL0D9vloeDjtQjAOooRJQKSF2FKKwR2ltH3+XcSgVgQwqggAYVYIBLKwn2QkBX81zDTbFVzxM/RAagAAoRT2o1MCAAJERBgOmzu7ROkTC9KukbDVFIyw1mAY8VpHLOUyNItP27uqSpw3TQZSb4PAQb7cka8nVrauycx0gUspAgMHSLroACAH706K3/2OPW4xZxU1zNDv2KQgUIIogBmFKV6KAB1C0CQJRaoqa+S7r1njpiptclvYAwCASFgMxFIIIRoCPNiQZuhEASUilf5wnvAOGOAEAKKO8cUkE+WwPY6ter6xZ9wIaBQpR12uCVoEEBDGz0QWHgFuFwM0Vh6kuA40Mo+NHj6gPpdCAMwQmisALt1gMfIIECBFFwLSgkhAgY9aKkl4cjCZSOwC/+hQREha50mJMQXVC6S0EV6JiGlE4dhx8zUugBK7gOBxCdwblTEURRqkxu8HQ11DUIKKalckA2hIICwoTg4aRGmR6Hmq5seX5IilJtyFzHCl+U9K0EC5lnayYbD9esDhsC8b5V+FRXOshUTrlLAHoGjrnuQo4PSeidscJkeWdhBSBBHRE8nN20HdIhAKXUtOi6oZADKqylEIC5DqEJjtFgogOmNGQAtxY/vkWuIy0wggYN6XVJ33CoQ8mDhZnosCEIUTPKNgIkBhRBgumkIuaLNO88HzoPyxcgoKBKyCtIFtJMR+SWAGlvexvtfaNSAeP52LXMdjr4W+7NCosk6WnLurpd3QRh6GqWXulQohclfRtrHTf1/M4IogOcESQvTZdMT1ggdACkE316RhI2ckNEx5DoINIhyiAmUoIA9ODcptR/8uqWx+hDu/qQPnYNiQazFoWFLMH3UgsJaTp7oBceAXGZoSACjGAGATc9duoFSd+OuHg1z0tNDQ5JNiTgY1cqagR7EEDdWFjVFxbqgpOekYrqCLJszGekrRUSkKFN9XJyY4a6MdoY30tURp0ojFbIstWbQgRAG9pb//Z9HyY6r9WnQQEVSGVkBYQfvadTu0UYlf4zteZ1Sd/mBqdy5iY7h1IRUJ7MQVpgRxMopEff2xPo7DATAfZ504QUJjgLKzlvJBCkQQimeN0ZwbSp/JLUkrSGq1ki+ASiqbmSmlCW0yTJNNKCq1kq3zChJ6x/VdJLWuNEaGj5LXYVA4noZrDaiPWruhK5BFmCoD72VkgzZHIAJOTVkNSRH6FLQmoTN47WqlcpEXmiQhxRggZUQZCBEoT391rAMdrHd7EmGmApNJNy2cEIqu/sujkBbF/IjD9OM74u6cMMjxOzobjxlxzFBOAAiOmb9bgRCc2PyKId6tNHlI0zJJkeEPNIh7gcSmYz2xNkBa9uERQgaFibPr0wOiewJlR06wXCLbGmQ9DVLeVSh4CU+XVJL4m/izgKMISBKHXuK4gVdgpgjuhU8J0YQ6WQzqEG03upw6SW6kszaYhX5lmFV1OTBBBD5mkTONLUhdIIyUyFE4LfIq7plYPTAE00RkAAnYDe8aVAQ/psAPR521AFW/I7TIpgntaLkl4iiBtA4AOlVAm79g2bAjZUKpUBvgPOoRaoiWIAjNZKrUBDIIJRWJNWcARm+I8gusIrvWGHwCDTtdnQTb30xQE4CKpLrZVCbrjSbootfLoQJ7pgymhGaJg+vilRmJSBVb1XC6Gklk0/ZabXJX07FDBzi4wg9gzE+0oFlgc9wnCUld874DBIHepST73V8vEkEDcqcIsgSMe0NU1zOGBTSdZhSAANTh+HzfbJ/7hNb4gOFAyIrlIyPpJYtgyaBIe7nsH6Pyzp22GcmVvQsXFLwKYJMWaycJxSfm/K8LHnBsFMGBgfiTbzrgx6VJemnNXh+TpZsM9fvZA9WEB1QaDz69eNFegstbqpkIdDzD2Kha0iKgYKWPhlIPkDmGlvPb1NBIlfMptXJH3T9Ak8vOwBl9OtHAzfwyk7Cifeo4EGOhiIwlsEBpgnqad/eYYuEPAZ9RZnxLphQHxsqwqrpMVb5Mnn1mMssuygpcYkhQgHuhQ4aMXcCHVG8HVJ32wShA/+LPEYfGZ5xz2pmDZkfcUvpyAF1BGYXmaeXldKngnEAZdtYuLJpiY4SsSsVI1JKJKEmhSTShzjO6GbElNN9DvUyjtpGKOND+kHYquFZEXdqI6IapbhFK9L+gZgfLSDf9NS2bLwWyrhkCDBoRQQLMz878FPjl2FLIUlGJ45FudJzljIRe+SwIfppt72lqAJDmHmT+oNi7IrrCWI4Bi60qc+YiYGYzQWAEq4m6FDHaO13Ka8Ppf5oqRvGIiy0jTwOYKknqenhCkXmBBunj8RhQd7RccYLRVhcrUZx5yR1zjhC2g5SvBqy3872BcOSljkLO8spWaqUTBTkAJOI/fJBQZY6pdSHuk3DT2YnpS2gN3Lkl5QYLnLNoHfM3ExyVqgVvYOdGri7bngBC8R1A5+ZewMTN46UaNcBAZEw8f+vbAKMsmA4vVwK/Dc2bnRxAPx06aHznWaiYVjtHef+6gVtoaEYAHHEN8BsActWgEN7XVJZzR0E4LRqYVfUzVu0W1IUqCaNbjKUTRYyHieJ+c3zqDukCOz9sQvPZLSEoVCBilowh8HUcmqSe1MR0uysOYFKUvXvpLGo8oDLuRZSgUwhm4RaUxMeuJR/HhJ0jcmgMyaBx/5ZP53NX8QePULwOGPpIlg9BmkjopOWYghrYlOANzwVJc4dAfKwNyBzGo61FG3yo3vWx1qS04e0Akdw5LJq8NEmw7xgGNR6POpD5d+U7wu6VsSiQ/S3ichLZ/rtKExNNQgqQt90beCHPlRpproE2RiuapFX80I+JTKE2TuSCHhxK7RWhKBhypEwrTDi620Dm1yhyQETVoKGKNhJHcGEBWsG8dCpK9LehmjHQE1A1bEfMN8lgLL+4xi8CzXic4PNewq75QQgbGrgMEaEHZ9QH1sLL1+fQicdmczGs0Kl0mEuvjtv3dgB8mtgpREYqjxiUC/0jGAwnTbvbOUVMAsfBDArfUffadzqxuc76zqutJel/RSouqZtF+kBDrDa+nao+NDs47l5EbtGNbSKIY1d5So3Ni6CPXvvffciegbqIMhpVmLYGZy0xF00GvvMtfnf/KERUKDiK40JglMB6esYjT4sqCtas+VIIDi0I7r3A2NodIz5QZEBF+U9IInpHQU4ksQGQw2bvuMB6vMQRHs0/GVYKyQsfx8/8v37wGykjtRBac6BFkHXcGnRTsP/mSV7IEObviQMllLGtOswWCBW5TPXWWrgLSvDBnc27dNWyZGn79uB2SHQ2u1L0r6drA20KqA57ltzIo3NpCQ8juZLQbCZPvzVjOtXKRdffzxL1+//ME//vj69eu2tF7QKnD2xMjkVmcE8JmFJF2R2xhZlyXKOwmUqBGVBu0tWA8qLTdlqOmb/vzn/771PoNMJnqeSd8U5UVJ334p+/OJIeuaDrQzj/fAHIcqZvSVEFETFqEj2xc+b9uAxsJBdJIrvciC2KpeZDGNGQ77qj7piSlcFdwMcJ83m/gWhCM5xZsCJMm2ryp0X7Jk0vdcLfpHJb3kOWg64ZRATRa6gf36YfFOktgmFJiqlJ0nnTP/90NdMaQSNbIe5rlZy8WQdLZ90gMfrRlQas3P6hOlqa6EDouNar5i1vvXf/7Y2wxVrt65TM8DW14zTKVzLvLJpb8o6QXCgPwwBGBAga4O7fSvfALJk67k5BUJyIaiUrsOYiDwQDcz4HUM+27GQs7qcAcdyNiyCmJt9nPo/esXqamLXkn85dt04SywyK4NSBCFfdLZSTPY0A396lbiC5hZ4WR4gnxd0rfc7+eiZtqzmgD1/QkgLaNZOiqAilW/d043T9osi66Q9+hMIp1aRpTlveQLIVTSM5WTsvdqdnCsVPxjNBnQV0sIUDei4Kik3qI7t0cvCUmbpeb8+aKkb49C9ipYzahGSM2/OrcMK09G749msDSoCZidyx2t8ne+2ZcnXl1BCfVsSNBQG5bJiYJUQF2zXUVqezMTnTSQjM6OOkZL15ZVpQKSsNkdx1K+aK24VEZhUt6vS/oWwQyV6OhBTo6C3FjJX29N8F3TI2ai13tSKzNZmUvManNf+uyzuvNLRxsQlXSWrUbnsY3vy0beNxqamXrnaC1Zs6kjhVnRK6CZkhLIngkbTZBZS4w+mxiOuPmapL/9+7/9K+64XADgLkh38mKXT79X//333+8AoJ+fdBcuF/y8C7inBV1wh+MC4BOJ+70DuAD3IV14+fRJf9MdgHC/3C/AHbjgjsun+9/+KvpFHfxEAH8i73f99a93fNK93++50E9/AvnzZ/qdyye7Xwy/kXSMv98L+NPab3//04Dud3z6ecflcrlfLuRPyHAHLj/H/fJbSnXRHfc7ft71oqQzkcaK7kdozS64iUqCx9YrY5+nlS0m9+HQp/uMbDlbtpkV3eQkZj7saMmmquWjmSVPTxTasEysaza8SdCOVaqpc3kDiplLZ+aYbSPZ2zb9DWHQ65JeVjo6QUd253SF07MN7MHFLtT7qFn6Mj0eQDxzBaiDFdGftXpmc5m7TCsg276yH6XOMwrGLnNAMAeaYI4CGxplNoDM1i1rwDwVKxrKUqMVsgDZ/2bAo9H3NUnfZgthog6hsAbpyfsmGPNH9TgJtmRTmNzm6hmik06zxie2RIA0GeUIRtSn9slFuWC2lSauF2b15Sg7Xt1nJ1s2wEDZ7TigJLBm8BqanZXA0MTDWU+J/ugSfkXSt+S/6ceawUdPLMjjSQRY+qytzxJhBjVIXdqfiMBkUNejLU/NCdcs4fV1aJ4EhLKPaHri2RG62K4yrQ2rLm9DIpJ4mFZTiMJsyLpFYIiGW3QJPTjJ5Zclfcs4oi767K7C0Vbts8p21IWOgPFUiVtYJlXGJ/1WYrYEcWPiZu1CR/zarKIuCgbtrR9+r6vvrdvsW+uHG8pPpzPqyMJPRt9CBkiigBv9FuVH71ezeZaCAq9LelldIvWXho3ZKEaaRIyuByzXI7cyUwQiaC7ETCYe0GDxttnbFqLwqGJmtUvS3vbZOCjgiz9uznx46NbjCqNDhRgp7i+PoQEmz0ZeCMBV40bMbonsMRqz1e8VSS9HO0Lmitk9BmVONLPNLKtlljSgyNbOjTOVh0pwSGZA0IYiNTiTrD7PJ51rFq6X9otAn/380J4kMq/VnjJoTlEX6L4Wx1OPCzmziEKWFR7hvOaumS/+h69Lenke0siml2fdi+A6Lajh/QvodXa/YDKThxZErHGU9GWrtGuG3nZz53uN4Pv7L+MoV/fr5k/jKAPj/xhHwVE0OsZRyLSv5/agp3EU3tp+dRQskPGypOc4yjmOco6jnOMo5zjKOY5yjqOc4yjnOMo5jnKOo5zjKOc4yjmOco6jnOMo5zjKOY5yjqOc4yjnOMo5jnKOo5zjKOc4yjmOco6jnOMo5zjKOY5yjqOc4yjnOMo5jnKOo5zjKOc4yjmOco6jnOMo5zjKOY5yjqOc4yjnOMo5jnKOo5zjKOc4yjmOco6jnOMo5zjKOY5yjqOc4yjnOMo5jnKOo5zjKOc4yjmOco6jnOMo5zjK/884yv8AqLLCD7d/rQMAAAAASUVORK5CYII=#13#0#4294967295##KGlDb2RlLlFULlRhYlRpcG9zCkZsZWNoYQpwMQooZHAyClMnb3BhY2lkYWQnCnAzCkYxCnNTJ2Zv|cm1hJwpwNApTJzMnCnNTJ2NvbG9yaW50ZXJpb3IyJwpwNQpJLTEKc1MnYW5jaG9DYXNpbGxhJwpw|NgpJMzYKc1MnYW5jaG8nCnA3Ckk1CnNTJ3RpcG8nCnA4CkkxCnNTJ2NvbG9yJwpwOQpMNDI4Mzc2|MDc2N0wKc1MnZGVzY3VlbGd1ZScKcDEwCkk2CnNTJ2ExaDgnCnAxMQpTJ2ExaDgnCnAxMgpzUyd2|dWVsbycKcDEzCkk0CnNTJ2NvbG9yaW50ZXJpb3InCnAxNApMNDI5NDkyMzUyMEwKc1MnZGVzdGlu|bycKcDE1ClMnbScKc1MncmVkb25kZW9zJwpwMTYKSTAwCnNTJ2FsdG9jYWJlemEnCnAxNwpJMjIK|c1MncG9zaWNpb24nCnAxOAooaUNvZGUuUVQuVGFiVGlwb3MKUG9zaWNpb24KcDE5CihkcDIwClMn|YWx0bycKcDIxCkkxNgpzUydvcmRlbicKcDIyCkk4CnNnNwpJMTI4CnNTJ2FuZ3VsbycKcDIzCkkw|CnNTJ3knCkkxNgpzUyd4JwpJMApzYnNTJ2xpVmFycycKcDI0CihscDI1CihTJ3Bvc2ljaW9uJwpT|J28nCnRwMjYKYShnMTIKUydjJwp0cDI3CmEoUydncm9zb3InClMnbicKdHAyOAphKFMnYWx0b2Nh|YmV6YScKUyduJwp0cDI5CmEoUyd0aXBvJwpTJ24nCnRwMzAKYShTJ2Rlc3Rpbm8nClMndCcKdHAz|MQphKFMnYW5jaG9DYXNpbGxhJwpTJ24nCnRwMzIKYShTJ2NvbG9yJwpTJ24nCnRwMzMKYShTJ2Nv|bG9yaW50ZXJpb3InClMnbicKdHAzNAphKFMnY29sb3JpbnRlcmlvcjInClMnbicKdHAzNQphKFMn|b3BhY2lkYWQnClMnbicKdHAzNgphKFMncmVkb25kZW9zJwpTJ2wnCnRwMzcKYShTJ2Zvcm1hJwpT|J3QnCnRwMzgKYShTJ2FuY2hvJwpTJ24nCnRwMzkKYShTJ3Z1ZWxvJwpTJ24nCnRwNDAKYShTJ2Rl|c2N1ZWxndWUnClMnbicKdHA0MQphKFMncG5nJwpTJ2MnCnRwNDIKYXNTJ3NpTW92aWJsZScKcDQz|CkkwMApzUydncm9zb3InCnA0NApJMQpzUydwbmcnCnA0NQpTJycKc2Iu|#KGlDb2RlLlFULlRhYlRpcG9zCkZsZWNoYQpwMQooZHAyClMnb3BhY2lkYWQnCnAzCkYxCnNTJ2Zv|cm1hJwpwNApTJzMnCnNTJ2NvbG9yaW50ZXJpb3IyJwpwNQpJLTEKc1MnYW5jaG9DYXNpbGxhJwpw|NgpJMzYKc1MnYW5jaG8nCnA3Ckk1CnNTJ3RpcG8nCnA4CkkxCnNTJ2NvbG9yJwpwOQpMNDI4MTc0|OTc2MEwKc1MnZGVzY3VlbGd1ZScKcDEwCkk2CnNTJ2ExaDgnCnAxMQpTJ2g1YjcnCnAxMgpzUyd2|dWVsbycKcDEzCkk0CnNTJ2NvbG9yaW50ZXJpb3InCnAxNApMNDI4OTM5NjQ4MEwKc1MnZGVzdGlu|bycKcDE1ClMnbScKc1MncmVkb25kZW9zJwpwMTYKSTAwCnNTJ2FsdG9jYWJlemEnCnAxNwpJMjIK|c1MncG9zaWNpb24nCnAxOAooaUNvZGUuUVQuVGFiVGlwb3MKUG9zaWNpb24KcDE5CihkcDIwClMn|YWx0bycKcDIxCkkxNgpzUydvcmRlbicKcDIyCkk4CnNnNwpJMTI4CnNTJ2FuZ3VsbycKcDIzCkkw|CnNTJ3knCkkxNgpzUyd4JwpJMApzYnNTJ2xpVmFycycKcDI0CihscDI1CihTJ3Bvc2ljaW9uJwpT|J28nCnRwMjYKYShTJ2ExaDgnClMnYycKdHAyNwphKFMnZ3Jvc29yJwpTJ24nCnRwMjgKYShTJ2Fs|dG9jYWJlemEnClMnbicKdHAyOQphKFMndGlwbycKUyduJwp0cDMwCmEoUydkZXN0aW5vJwpTJ3Qn|CnRwMzEKYShTJ2FuY2hvQ2FzaWxsYScKUyduJwp0cDMyCmEoUydjb2xvcicKUyduJwp0cDMzCmEo|Uydjb2xvcmludGVyaW9yJwpTJ24nCnRwMzQKYShTJ2NvbG9yaW50ZXJpb3IyJwpTJ24nCnRwMzUK|YShTJ29wYWNpZGFkJwpTJ24nCnRwMzYKYShTJ3JlZG9uZGVvcycKUydsJwp0cDM3CmEoUydmb3Jt|YScKUyd0Jwp0cDM4CmEoUydhbmNobycKUyduJwp0cDM5CmEoUyd2dWVsbycKUyduJwp0cDQwCmEo|UydkZXNjdWVsZ3VlJwpTJ24nCnRwNDEKYShTJ3BuZycKUydjJwp0cDQyCmFzUydzaU1vdmlibGUn|CnA0MwpJMDEKc1MnZ3Jvc29yJwpwNDQKSTEKc1MncG5nJwpwNDUKUycnCnNiLg==|#iVBORw0KGgoAAAANSUhEUgAAAEAAAABACAIAAAAlC+aJAAAAA3NCSVQICAjb4U/gAAAACXBIWXMAAA7EAAAOxAGVKw4bAAASoklEQVRogdWa269lWXXev2+Mtfc5daqqL9VVXV3dTTdudxNsxeYSG9s0ShCYmBCbCBElSpSQlzzEf1D8HPJkI4FkLFmCFsZYNhiEAwmEiFsD3V1d1V33y7nsveYYXx7GXPtyTrUTJQ+IpXqos848c80152988xtjLt649sbuqT38Yl5HhwfD7qm9vdNnft4j+X+/7Oc9gP/fa1j97xtf/9vBSVJS3SG5f/fW1cs/M2e2BADI3Oc7e08++/x2S7RxfOVH36MxMyEQgBHCc7/ybgjC1BIQ8NrL/2sclxAkEQAh8Olfesd859Sx8V278rP7d24D65YAHzp/6SMf/YPjLzBze8fzzwJUf6AIXHm1Xf3h6zJTSsps6W67j196x/NvJygAkDJJLo4Ofvrtl+gGUJnRGs1tsBee+xckpm5V83L5e1/R4hCglBkh0Qd7+onffvSxi6p3rKkh99/4/r3DK/XirQUkM7vva3A2ECIkCiCtTxRIMtMj4LOBdNBSBll/QxLo/yQkXCLd6YNgoGVW/73bGr/ETANdoA2zqaXXE1EDACVAEEwyiTYMRpMs4dVsvQLKuHXnHtBnPTP7BICAMmMYbHm4zBaAhvk8MwUYmBnrlhKUgLXFGGMQKbIeVAsaGTUtBGjMCKSWixEZdBeBicnMrIYCSGQmoeVBUzSQNK6AnF5AiQlaoJ5KQDWqYQANPpgZMpJIc5AARFpRAIJGo0j1lk0kbJgmizTahBCINAPM6MgQJB+qQwhkX3+QgNINoJkrmkMyaj3/hZD57NyjDwMQVgj1FSSZ8gj4MNAmhFAIYY2QIEGFkK0RUho0TckKITDFFUKAAZZ6AEIqhDAhZJ6iTiK0uiSRyCwYencZMcxsPBozGiTO5xkdIWVq1VJKycEYxxgDSrHPlXqoZ5/YmpdIKJeLhmx0V8TfhxCxPAzFCDBNxxGqa//e7SuvjCSVCUiCux3s33/q2efMLSKRysxh5rP57pVXfmhupa1Smnu09tQzb6e5JGUqk2ZmduXVHwGUJIkQSYEXLl6KDAnKVM2z273b1w7v3615XDF0am/vyWeeq+nNSEjmdqi9B7zAm5d/evUHr9MsUxmhTHe79OwL733x99baqqTx9o03v/bSZzmYEsrMFj74qTNnP/jP/12Nb6WtJP/8j/9opa3ZGmg+2Ad//9/v7p3BhmKS/OpLn71z+5oEQNkCgLm95/2/9yvv/uUtbQV++PIrWzHQL1LwTNjg5gPoKSdNoHq8AiRECKJn0IaBPsBMMMimRS/14YS7AQaaDYNooAm+GRidXlCwigcbZjQXDPDqZDMwNgMAk4zm/f0DkNHSB7ZFy9YgcGaZUMpsA3dWYMhnbIux1FAzi6y+2amYcC8klFmBQWe0BLkdGESnX4DGo6ZopEXNr4QTkbn1AiTdDUofZAYIGEyZxkTpXQ0NJiUJUG5JmBlJyxZGuQmdBhA9HEmYJUGQPlABQD7U6wkEyZVikmmUAB+YJY+W6Lak5o1YzcpWDJB7e3sAAc+QDY7IUKSsECrJF3LaIAm6EjbzbAFTiWZ/CG0yIhQoGc1I0r2lyAIDnHhTvRYoGWgQbDAlMgT6tNODpJBK0bZWYCsGoiWIGCOWo1rU6knqYOTKoiBCMMSyxdjUyiep5lRKrRVTXc4j2tGoSEjREpOPys5bKQ+Lk7YYcxwhRfROesvqdmsBNlRoZ+fU2ccv0Cwja7g+89l8dvv6VRoVWTJk7gf79x67cN7cIySlInw2DLOdW9ev0EyZxXOF3bkLF0hKqBEYSbf7d24cHtwrNwqUzbTTZ/bIC6uYgWDOcXl46/pVrCYDILk4PHjACzz57AsvPPdsZ7Jk23jllR//7Zc+Z4NFq0iMYfBHzl/6nd/9ZA2rmpI8Otz/iz/9tA0uISMVYW40+2f/6j8VWpAEVTx8+fOfPjo6APp2JsHcXvzIJx9+7OIEuSSQ+NZXv/jdb/5V7XGKlNLMZo88A3zwBEIoJQVJkCzFpMGGCPp8oLn5IDjNQJNQ/6kABEgbJNDdZwPMQOcaYtJsbV1hNAdsmM9Ao7nV3262JEADjXTAhtmM1adtuQcDIOXB4WFNUgmIcr1e0dKMMUa2lmMoJbFmXUopMW3tEQJNkW3ZA6Mg5oQ7ukWWkkoAasuWLSC12tTRm0oJdWpSq5at0ofjXiiWR3fuHdbPfSzd+EoZZkECNWKmWULBDZnvfwcZg0BKpGAiktZjcNVlnzYLKMptmpcZ6Q53QqHzaUgiAAJJIyRjbD7YAAw7e5cef6z+rv6YGwiZzyLos4E+2DCIE0IAzbiJkA9KmA8+zGCO3nIDoWrGYwg5aeYPRkg00gDz+azsMP0EQuurI1Qx3BFqo8yYkWotW2SgI9Qt2gZCDTCTMlooCqHVRlRb6RT12S1TjFF63Ua9NUIEFWNmC6Wi4ThCdbVxeXRwHyy1kAAzi3Gxd3rXBouWmkkRw3wYBl8c3IexxE5Ioy8Xh3und8w9QxpSGeZOs6PD+x2jVYYBntrbsUV2NzqfAzS31pZHpa0bDm8YbPfULgFJOZsDMjcMwwNe4NUff+8n337J3DKytoJh5hff9vyHPv6pIrL6pfH29Te+9PlP++DRBGVG+Mx3985+6OP/YaslCfDP/+Q/00yCIpVBM5p9+OOf2jl1pk8WeoB97Uufu3XjTQBKIUMC3f7RBz766+/7cDejU7ebbnT9AiLNXYLPBjCVKZiZgyaIxo3KCM0HpYb5kJEgQDfzrsJGiOU7SAJOkjQ4YlwCZm7dRABlE0EjCZiZZXLYYSwBwdwB9sg0IHs0HY8BScvlSLI1kMyEWmTLTFQushUYKtMBTJlDNimUyclKdAiLnNpSAUWLSoBa65tvjwdpvfmq8unMlkpFYDVn0wCOeblagWzXb96C0hgQK1UC0i2UbVLM6e8oKI2N8GjlT5JGoPVGG9EIwC1Qg8skhQxzVfyjuGBPZd1SakpICQqSodV/xG6q18PYfAH67MknHpc6QsOMEYlMgVwjZBDWq+iuxDCfZWRGWyGECSFMCAluIAczKEcIZm5YIUQqBQq0hJmZRPchxiaJbhA3ul3VKrYR6jNr1hpASlRktMzkJkJQrhEKYgrNbFIiJ4c/yV9XzBRFg5RRPhRVG5gQQs+TSltllbt0xQxuIoS3RKh3FoVQRDeubrmJ0LSjCkpDIzyWJdhhJBQTQquSqQA6G1TR0hGia61VWwiF1JBSCkiIa4S2RrB1cf/+vSqvf+vvvvHCc8+AnFqK5JVXf/ytv/mCDR5jSMqI2Xx4+LFL7//dT1Rxt0ZcbvRLf/ppd4/uxvs+8LF//YcgsaWt+PKf/dfDwwMIGQFl7QMv/tN/+fC5iz0w6tXIb3/1i6+/+jKASjOUssHnjzzziX/zHwEc7N/f2pZJm9yoJqGowOAwn0WkuQk0s0kxp8AgUdUzwGczSWojaNYdaO90IzDMzAQOg2drZaelY4GBqlpXS3ePMWQy23IPWz/0cOcaYpq1MJAilRljKims621YaSuQSdB6PXUUwMherOTUf+c+WYVMCTEmxBa2iftKsquMxyo8R2Youw3ZiAFle+31N6agwkbqSGUYRsLbIpA9n1C2CqWVvSk3SjTC25iKAFMJmq20darhCZBZZrZCiEylzJPTxtwRqglmQpFRJeecygbaegHa8Lann7r+xuVCyEhx1QnNHeIwn2XIFJsImVm98ZTQOGojH4bcQKgsLugrhyOhfmWDZzTlCYRqKySl/jifebRQ/h8Q6qFwDCFVXakQEtWnoCDdRMjUy0+KMVcIrcxjLUKVEgHrifxyCyFUhaLXlihYir3K2xGy4whtXNnzVGwi1EgbjxZV8TQzZWDrJEETQiPh5XuBsm4TEhNCggiZpbJJaItlJXbmWiO0KmogCyEJMS5R3mYbobWMfv4z/wWH11jWP1OpYe7nHn/6H/za+2hUToppdu/Oje98/S9tVtqaihxmw2x37zc+8NFKsmrTqdz6ay99FmZKZSYyaUbjb/zjj9VxWN+ZBJLf/eZX7t65VbZImRDN7Z3v/u1zjz81LWAX4p+89sZv/taLOCaj4zhqcVCHHBmCqjaTu6fPluBMNp1HB/uLxQFHI5kpRRub0X339NnCvQcGSOLw8MCsrIcyRonuNt85dWrvTK8OTXnCcrlcLvYBoyHGJsGM5sPu3hnWFj8FxjDcfEAM0BhpStIcmdEkOGAQ1QNjHSSZngJokKJVmm99X13NFip3M5krBTBGkRZpEAFTf1sBRLWES1UZkBKZPlUxMMUbpvDbiAFlu3zlGiSqATYejt3aDswMILkODIEOJdCMNh4tlQElwbfQVpCBVISiNUIZzcxg6iGRVf8TSbeeLy4PRlZtwFY2COvzkann9QvQhqefuvR1ydxgHHaGDCGjEo5pl63lzq6tRgDDzqB0RQPN3PqR00pb62eAwDB3n3m2UaK5QV14AccERgrmBMxnvkII0lRxXWvrpuxsudFIywDNIUVAOoaQthDKKh8gmlDnAA9CKOWiK7GJkAqhSoByC6FMgVYFp1Q/HziB0PradKMiguTycFFG1mb2VggRzczHw2VGEAkZMuohxxAyBqQIxdjIzICZkxASQm4i5B2hxf7Ick1vidD6Wsvo1/76y2974tx0liNJZnb39vXXXv6+DRZjlroN82F376FfeuEf0iwn12JmbVz+4DvfsMmNQmnuoP3qe96/SsmVqorTj/7nN8dxWVXUaaz23Dvftbt3Zr2AEo2Xf/qDO7duoDaHepZbmz36sU/8WxyT0d3d04+ef6LXx6ak9vBg/86tNysNV6rOEs9dsEcuXJq0teN+dLh/++Y1c9JMqWgjYO72yGNPdNynvYzk3ds3l8uDOl+KCgzj7t7ZR89frJKWsp8G/eT7/+PurTdhRqKnabTZwzsPiAGU45vMUrctZnVObOaVZUsGeq3Setvq01anyBSYDZw+NVBl+p0Fds3lUElrNgBMeYHece/bAwVLeKUMELIGcFxGo127eXtF7aaVQCbUzGxxsOhgDJbRKt3J2CxTigiDjYvMFkQqyxxOK5rlN0HCXFqMmRiPlmQijC6brEQFBgAgjUI2AcuDZZ2RVbKyHcS0h86evYypdOmTYAkC3EnjbHdQSBmCzLvDN7OO0FT0BDGbD5p5tEbQvJ9s0QjzAoNEnRQNbj6zSn/d+7F2uVr1FJuSzEhbaavILR01ADTb3d0BNhCanCnJSI+AuQsohNabLldrDQBZCJEAswm0iA2EdAwhzxTpGQIt0vtvO0Irl2QJywRpEDOQJxHauE4gBHWE9ieEZuVGwTo671bUAJFp4AMRgvoXAxsIRabGo5EMqBA69qkBABj7lrrYRGgju1/L6Bf+7DOneFRutATLB985debc+Ys0plT1AnMbl4trV18192hR5tEHN589/uSzVb3pxJuRvPLKj0BmCpkVOaBdfPrtXt+nbAjxjWuXF0eLKcEobeW5C5d2985smhSavXHr4AP/5CM4JqP3796+t3+FRgHZUkqCT779hSeeeX513FAQ3L7x5nf/7iuV4CuVrdFs78xD7/qtD1csrFSY5H/7my/UYVl9lFAfZ/3qe188tXdmw7cC5Mvf/+93b18r/xGtW4knn33h0tt+ubNagQHeH3+2FQN9LcwiLZJmTlLJnA5uawOaAoMgU0MEq/iaWb6g497944R7do9Jmmf0p0y/7TnklhtN0l2qvx26ldiOzM2rr+Pdu3cJQUFxcTBWzjWbz0soNxRTgKOKWcbFwVIRVYRS175+9LuKsoI4IqMFkRliTdCGYgplJaBoEsbFkoqpZH3SSvD4C5A8ffp0prpi+pDNqjhRZ+wgq1yy0iYz0Tibu8RsCcKc07GQbSAEoBRz6Iop+EBA0/bsmLZnZZoToM8smyllplXLyfZpe/wTQsMwlE/sCJllMrNS734mubGC9RkXbXDQM9ER0gMQ6mCAtCETNI94AEKbsJkP+HsQeks3SnSEDsc63Bp2dnKVv68QqoRGaW7Lg2U+EKHUarNhR0jRgohKdU8gVNraEWrLEdnqK7z/K4TqOvvoxfsQCBeQkkTjkXZ/+PI65GspFkf784efgrFbvBCdnO+caAmAw0NPFoTK+jyQZvzJq68Pw3yjLUiOdnb28DCNt2vr1Zv37i1/ttEQJMeW661g//49bV/79+/dunP3+M27d27ePn5T2W7cuHX8pvTaa6+dvHn59ddP3rx+/frJm1evXn3Azdcvjzk9NvPmzZt37ty59uYbD/h2er6zc/rU8U+Ad0+fPrO3e7wp7fTp4y0BnD9//uTNx86dO3nzkUceOXlzZ2fn5M3HLlzwjR/d/aGHHmqt8Rf08/uDg4PWmhv/N6eCToPeEcAnAAAAAElFTkSuQmCC#
p44
sa.